SF:/Users/dbmrq/Documents/Programação/Misc/paperboat/src/acp.rs
FN:198,_RNCNCNCNvMs_NtCs2XshHk0aCOj_9paperboat3acpNtBa_9AcpClient18spawn_with_timeout0s_00Bc_
FN:171,_RNCNCNvMs_NtCs2XshHk0aCOj_9paperboat3acpNtB8_9AcpClient18spawn_with_timeout00Ba_
FN:188,_RNCNCNvMs_NtCs2XshHk0aCOj_9paperboat3acpNtB8_9AcpClient18spawn_with_timeout0s_0Ba_
FN:322,_RNCNCNvMs_NtCs2XshHk0aCOj_9paperboat3acpNtB8_9AcpClient7request00Ba_
FN:256,_RNCNCNvMs_NtCs2XshHk0aCOj_9paperboat3acpNtB8_9AcpClient7request0s0_0Ba_
FN:260,_RNCNCNvMs_NtCs2XshHk0aCOj_9paperboat3acpNtB8_9AcpClient7request0s1_0Ba_
FN:138,_RNCNvMs_NtCs2XshHk0aCOj_9paperboat3acpNtB6_9AcpClient18spawn_with_timeout0B8_
FN:241,_RNCNvMs_NtCs2XshHk0aCOj_9paperboat3acpNtB6_9AcpClient7request0B8_
FN:42,_RNvMNtCs2XshHk0aCOj_9paperboat3acpNtB2_11SessionMode6as_str
FN:135,_RNvMs_NtCs2XshHk0aCOj_9paperboat3acpNtB4_9AcpClient18spawn_with_timeout
FN:241,_RNvMs_NtCs2XshHk0aCOj_9paperboat3acpNtB4_9AcpClient7request
FN:342,_RNvXsa_NtCs2XshHk0aCOj_9paperboat3acpNtB5_9AcpClientNtB5_14AcpClientTrait10initialize
FN:366,_RNvXsa_NtCs2XshHk0aCOj_9paperboat3acpNtB5_9AcpClientNtB5_14AcpClientTrait11session_new
FN:386,_RNvXsa_NtCs2XshHk0aCOj_9paperboat3acpNtB5_9AcpClientNtB5_14AcpClientTrait14session_prompt
FN:416,_RNvXsa_NtCs2XshHk0aCOj_9paperboat3acpNtB5_9AcpClientNtB5_14AcpClientTrait20take_notification_rx
FN:407,_RNvXsa_NtCs2XshHk0aCOj_9paperboat3acpNtB5_9AcpClientNtB5_14AcpClientTrait4recv
FN:424,_RNvXsa_NtCs2XshHk0aCOj_9paperboat3acpNtB5_9AcpClientNtB5_14AcpClientTrait8shutdown
FN:471,_RNvXs0_NtCs2XshHk0aCOj_9paperboat3acpNtB5_9AcpClientNtNtNtCskpTlHb4dJmc_4core3ops4drop4Drop4drop
FNDA:0,_RNCNCNCNvMs_NtCs2XshHk0aCOj_9paperboat3acpNtBa_9AcpClient18spawn_with_timeout0s_00Bc_
FNDA:0,_RNCNCNvMs_NtCs2XshHk0aCOj_9paperboat3acpNtB8_9AcpClient18spawn_with_timeout00Ba_
FNDA:0,_RNCNCNvMs_NtCs2XshHk0aCOj_9paperboat3acpNtB8_9AcpClient18spawn_with_timeout0s_0Ba_
FNDA:0,_RNCNCNvMs_NtCs2XshHk0aCOj_9paperboat3acpNtB8_9AcpClient7request00Ba_
FNDA:0,_RNCNCNvMs_NtCs2XshHk0aCOj_9paperboat3acpNtB8_9AcpClient7request0s0_0Ba_
FNDA:0,_RNCNCNvMs_NtCs2XshHk0aCOj_9paperboat3acpNtB8_9AcpClient7request0s1_0Ba_
FNDA:0,_RNCNvMs_NtCs2XshHk0aCOj_9paperboat3acpNtB6_9AcpClient18spawn_with_timeout0B8_
FNDA:0,_RNCNvMs_NtCs2XshHk0aCOj_9paperboat3acpNtB6_9AcpClient7request0B8_
FNDA:3,_RNvMNtCs2XshHk0aCOj_9paperboat3acpNtB2_11SessionMode6as_str
FNDA:0,_RNvMs_NtCs2XshHk0aCOj_9paperboat3acpNtB4_9AcpClient18spawn_with_timeout
FNDA:0,_RNvMs_NtCs2XshHk0aCOj_9paperboat3acpNtB4_9AcpClient7request
FNDA:0,_RNvXsa_NtCs2XshHk0aCOj_9paperboat3acpNtB5_9AcpClientNtB5_14AcpClientTrait10initialize
FNDA:0,_RNvXsa_NtCs2XshHk0aCOj_9paperboat3acpNtB5_9AcpClientNtB5_14AcpClientTrait11session_new
FNDA:0,_RNvXsa_NtCs2XshHk0aCOj_9paperboat3acpNtB5_9AcpClientNtB5_14AcpClientTrait14session_prompt
FNDA:0,_RNvXsa_NtCs2XshHk0aCOj_9paperboat3acpNtB5_9AcpClientNtB5_14AcpClientTrait20take_notification_rx
FNDA:0,_RNvXsa_NtCs2XshHk0aCOj_9paperboat3acpNtB5_9AcpClientNtB5_14AcpClientTrait4recv
FNDA:0,_RNvXsa_NtCs2XshHk0aCOj_9paperboat3acpNtB5_9AcpClientNtB5_14AcpClientTrait8shutdown
FNDA:0,_RNvXs0_NtCs2XshHk0aCOj_9paperboat3acpNtB5_9AcpClientNtNtNtCskpTlHb4dJmc_4core3ops4drop4Drop4drop
FNF:18
FNH:1
DA:42,3
DA:43,3
DA:44,3
DA:45,0
DA:46,0
DA:48,3
DA:135,0
DA:136,0
DA:137,0
DA:138,0
DA:139,0
DA:140,0
DA:143,0
DA:147,0
DA:148,0
DA:149,0
DA:150,0
DA:152,0
DA:153,0
DA:154,0
DA:155,0
DA:156,0
DA:157,0
DA:158,0
DA:160,0
DA:161,0
DA:163,0
DA:164,0
DA:167,0
DA:168,0
DA:171,0
DA:172,0
DA:173,0
DA:174,0
DA:175,0
DA:176,0
DA:177,0
DA:178,0
DA:179,0
DA:180,0
DA:181,0
DA:184,0
DA:185,0
DA:188,0
DA:189,0
DA:190,0
DA:191,0
DA:192,0
DA:196,0
DA:197,0
DA:198,0
DA:199,0
DA:202,0
DA:203,0
DA:205,0
DA:206,0
DA:207,0
DA:212,0
DA:217,0
DA:218,0
DA:219,0
DA:221,0
DA:223,0
DA:227,0
DA:229,0
DA:230,0
DA:231,0
DA:232,0
DA:233,0
DA:234,0
DA:235,0
DA:236,0
DA:237,0
DA:238,0
DA:241,0
DA:242,0
DA:243,0
DA:244,0
DA:245,0
DA:246,0
DA:247,0
DA:250,0
DA:251,0
DA:252,0
DA:254,0
DA:255,0
DA:256,0
DA:257,0
DA:258,0
DA:259,0
DA:260,0
DA:261,0
DA:264,0
DA:269,0
DA:270,0
DA:271,0
DA:272,0
DA:273,0
DA:274,0
DA:275,0
DA:278,0
DA:282,0
DA:283,0
DA:287,0
DA:289,0
DA:290,0
DA:291,0
DA:292,0
DA:295,0
DA:296,0
DA:299,0
DA:301,0
DA:303,0
DA:304,0
DA:305,0
DA:310,0
DA:318,0
DA:319,0
DA:320,0
DA:321,0
DA:322,0
DA:323,0
DA:324,0
DA:325,0
DA:326,0
DA:328,0
DA:329,0
DA:330,0
DA:332,0
DA:333,0
DA:334,0
DA:335,0
DA:336,0
DA:342,0
DA:354,0
DA:366,0
DA:383,0
DA:386,0
DA:399,0
DA:407,0
DA:413,0
DA:416,0
DA:417,0
DA:418,0
DA:424,0
DA:467,0
DA:471,0
DA:473,0
DA:474,0
DA:475,0
DA:476,0
DA:477,0
DA:478,0
DA:481,0
DA:482,0
DA:483,0
DA:484,0
BRF:0
BRH:0
LF:165
LH:4
end_of_record
SF:/Users/dbmrq/Documents/Programação/Misc/paperboat/src/agents/config.rs
FN:57,_RNvMNtNtCs2XshHk0aCOj_9paperboat6agents6configNtB2_15AgentToolConfig20allowed_auggie_tools
FN:199,_RNvNtNtCs2XshHk0aCOj_9paperboat6agents6config10get_config
FN:188,_RNvNtNtCs2XshHk0aCOj_9paperboat6agents6config15get_tool_config
FN:212,_RNvNtNtCs2XshHk0aCOj_9paperboat6agents6config20format_removed_tools
FN:60,_RNCNvMNtNtCs2XshHk0aCOj_9paperboat6agents6configNtB4_15AgentToolConfig20allowed_auggie_tools0B8_
FN:273,_RNvNtNtNtCs2XshHk0aCOj_9paperboat6agents6config5testss_22test_planner_mcp_tools
FN:375,_RNvNtNtNtCs2XshHk0aCOj_9paperboat6agents6config5testss_23test_get_config_by_type
FN:349,_RNvNtNtNtCs2XshHk0aCOj_9paperboat6agents6config5testss_23test_verifier_mcp_tools
FN:387,_RNvNtNtNtCs2XshHk0aCOj_9paperboat6agents6config5testss_25test_format_removed_tools
FN:358,_RNvNtNtNtCs2XshHk0aCOj_9paperboat6agents6config5testss_26test_explorer_is_read_only
FN:328,_RNvNtNtNtCs2XshHk0aCOj_9paperboat6agents6config5testss_26test_implementer_mcp_tools
FN:298,_RNvNtNtNtCs2XshHk0aCOj_9paperboat6agents6config5testss_27test_orchestrator_mcp_tools
FN:225,_RNvNtNtNtCs2XshHk0aCOj_9paperboat6agents6config5testss_30test_planner_cannot_edit_files
FN:309,_RNvNtNtNtCs2XshHk0aCOj_9paperboat6agents6config5testss_31test_implementer_can_edit_files
FN:395,_RNvNtNtNtCs2XshHk0aCOj_9paperboat6agents6config5testss_35test_no_agent_has_builtin_subagents
FN:284,_RNvNtNtNtCs2XshHk0aCOj_9paperboat6agents6config5testss_35test_orchestrator_cannot_edit_files
FN:259,_RNvNtNtNtCs2XshHk0aCOj_9paperboat6agents6config5testss_37test_planner_cannot_execute_processes
FN:337,_RNvNtNtNtCs2XshHk0aCOj_9paperboat6agents6config5testss_37test_verifier_cannot_edit_but_can_run
FNDA:6,_RNvMNtNtCs2XshHk0aCOj_9paperboat6agents6configNtB2_15AgentToolConfig20allowed_auggie_tools
FNDA:6,_RNvNtNtCs2XshHk0aCOj_9paperboat6agents6config10get_config
FNDA:69,_RNvNtNtCs2XshHk0aCOj_9paperboat6agents6config15get_tool_config
FNDA:1,_RNvNtNtCs2XshHk0aCOj_9paperboat6agents6config20format_removed_tools
FNDA:114,_RNCNvMNtNtCs2XshHk0aCOj_9paperboat6agents6configNtB4_15AgentToolConfig20allowed_auggie_tools0B8_
FNDA:1,_RNvNtNtNtCs2XshHk0aCOj_9paperboat6agents6config5testss_22test_planner_mcp_tools
FNDA:1,_RNvNtNtNtCs2XshHk0aCOj_9paperboat6agents6config5testss_23test_get_config_by_type
FNDA:1,_RNvNtNtNtCs2XshHk0aCOj_9paperboat6agents6config5testss_23test_verifier_mcp_tools
FNDA:1,_RNvNtNtNtCs2XshHk0aCOj_9paperboat6agents6config5testss_25test_format_removed_tools
FNDA:1,_RNvNtNtNtCs2XshHk0aCOj_9paperboat6agents6config5testss_26test_explorer_is_read_only
FNDA:1,_RNvNtNtNtCs2XshHk0aCOj_9paperboat6agents6config5testss_26test_implementer_mcp_tools
FNDA:1,_RNvNtNtNtCs2XshHk0aCOj_9paperboat6agents6config5testss_27test_orchestrator_mcp_tools
FNDA:1,_RNvNtNtNtCs2XshHk0aCOj_9paperboat6agents6config5testss_30test_planner_cannot_edit_files
FNDA:1,_RNvNtNtNtCs2XshHk0aCOj_9paperboat6agents6config5testss_31test_implementer_can_edit_files
FNDA:1,_RNvNtNtNtCs2XshHk0aCOj_9paperboat6agents6config5testss_35test_no_agent_has_builtin_subagents
FNDA:1,_RNvNtNtNtCs2XshHk0aCOj_9paperboat6agents6config5testss_35test_orchestrator_cannot_edit_files
FNDA:1,_RNvNtNtNtCs2XshHk0aCOj_9paperboat6agents6config5testss_37test_planner_cannot_execute_processes
FNDA:1,_RNvNtNtNtCs2XshHk0aCOj_9paperboat6agents6config5testss_37test_verifier_cannot_edit_but_can_run
FNF:18
FNH:18
DA:57,6
DA:58,6
DA:59,6
DA:60,114
DA:61,6
DA:62,6
DA:63,6
DA:188,69
DA:189,69
DA:190,69
DA:191,68
DA:193,67
DA:195,69
DA:199,6
DA:200,6
DA:201,6
DA:202,5
DA:203,4
DA:204,3
DA:206,2
DA:208,6
DA:212,1
DA:213,1
DA:214,1
DA:225,1
DA:226,1
DA:229,1
DA:230,1
DA:233,1
DA:234,1
DA:237,1
DA:238,1
DA:241,1
DA:242,1
DA:247,1
DA:248,1
DA:249,1
DA:252,1
DA:253,1
DA:256,1
DA:259,1
DA:260,1
DA:262,1
DA:263,1
DA:266,1
DA:267,1
DA:270,1
DA:273,1
DA:274,1
DA:275,1
DA:278,1
DA:279,1
DA:280,1
DA:281,1
DA:284,1
DA:285,1
DA:287,1
DA:288,1
DA:291,1
DA:292,1
DA:295,1
DA:298,1
DA:299,1
DA:300,1
DA:301,1
DA:303,1
DA:305,1
DA:306,1
DA:309,1
DA:310,1
DA:313,1
DA:314,1
DA:317,1
DA:318,1
DA:321,1
DA:322,1
DA:325,1
DA:328,1
DA:330,1
DA:333,1
DA:334,1
DA:337,1
DA:338,1
DA:341,1
DA:342,1
DA:345,1
DA:346,1
DA:349,1
DA:351,1
DA:354,1
DA:355,1
DA:358,1
DA:359,1
DA:362,1
DA:363,1
DA:366,1
DA:369,1
DA:370,1
DA:371,1
DA:372,1
DA:375,1
DA:376,1
DA:377,1
DA:378,1
DA:379,1
DA:380,1
DA:383,1
DA:384,1
DA:387,1
DA:388,1
DA:389,1
DA:390,1
DA:391,1
DA:392,1
DA:395,1
DA:398,5
DA:399,1
DA:400,1
DA:401,1
DA:402,1
DA:403,1
DA:404,1
DA:405,5
DA:406,5
DA:409,5
DA:410,5
DA:414,1
BRF:0
BRH:0
LF:128
LH:128
end_of_record
SF:/Users/dbmrq/Documents/Programação/Misc/paperboat/src/agents/mod.rs
FN:60,_RNvMNtCs2XshHk0aCOj_9paperboat6agentsNtB2_9AgentRole6as_str
FN:41,_RNvMNtCs2XshHk0aCOj_9paperboat6agentsNtB2_9AgentRole8from_str
FN:87,_RNvNtNtCs2XshHk0aCOj_9paperboat6agents5testss_22test_agent_role_as_str
FN:76,_RNvNtNtCs2XshHk0aCOj_9paperboat6agents5testss_24test_agent_role_from_str
FN:105,_RNvNtNtCs2XshHk0aCOj_9paperboat6agents5testss_31test_get_prompt_returns_content
FN:93,_RNvNtNtCs2XshHk0aCOj_9paperboat6agents5testss_31test_spawnable_roles_discovered
FN:116,_RNvNtNtCs2XshHk0aCOj_9paperboat6agents5testss_35test_selfimprover_role_uses_dynamic
FNDA:72,_RNvMNtCs2XshHk0aCOj_9paperboat6agentsNtB2_9AgentRole6as_str
FNDA:71,_RNvMNtCs2XshHk0aCOj_9paperboat6agentsNtB2_9AgentRole8from_str
FNDA:1,_RNvNtNtCs2XshHk0aCOj_9paperboat6agents5testss_22test_agent_role_as_str
FNDA:1,_RNvNtNtCs2XshHk0aCOj_9paperboat6agents5testss_24test_agent_role_from_str
FNDA:1,_RNvNtNtCs2XshHk0aCOj_9paperboat6agents5testss_31test_get_prompt_returns_content
FNDA:1,_RNvNtNtCs2XshHk0aCOj_9paperboat6agents5testss_31test_spawnable_roles_discovered
FNDA:1,_RNvNtNtCs2XshHk0aCOj_9paperboat6agents5testss_35test_selfimprover_role_uses_dynamic
FNF:7
FNH:7
DA:41,71
DA:42,71
DA:43,71
DA:44,71
DA:45,4
DA:46,3
DA:47,2
DA:50,1
DA:51,1
DA:53,0
DA:57,71
DA:60,72
DA:61,72
DA:62,68
DA:63,2
DA:64,1
DA:65,1
DA:66,0
DA:68,72
DA:76,1
DA:77,1
DA:78,1
DA:81,1
DA:82,1
DA:83,1
DA:84,1
DA:87,1
DA:88,1
DA:89,1
DA:90,1
DA:93,1
DA:95,1
DA:96,1
DA:97,1
DA:98,1
DA:100,1
DA:101,1
DA:102,1
DA:105,1
DA:107,1
DA:108,1
DA:109,1
DA:110,1
DA:112,1
DA:113,1
DA:116,1
DA:118,1
DA:119,1
DA:120,1
BRF:0
BRH:0
LF:49
LH:47
end_of_record
SF:/Users/dbmrq/Documents/Programação/Misc/paperboat/src/agents/templates.rs
FN:53,_RNvMNtNtCs2XshHk0aCOj_9paperboat6agents9templatesNtB2_13AgentRegistry8has_role
FN:68,_RNvXs_NtNtCs2XshHk0aCOj_9paperboat6agents9templatesNtB4_13AgentRegistryNtNtCskpTlHb4dJmc_4core7default7Default7default
FN:102,_RNvNtNtNtCs2XshHk0aCOj_9paperboat6agents9templates5testss_26test_registry_has_explorer
FN:91,_RNvNtNtNtCs2XshHk0aCOj_9paperboat6agents9templates5testss_26test_registry_has_verifier
FN:78,_RNvNtNtNtCs2XshHk0aCOj_9paperboat6agents9templates5testss_29test_registry_has_implementer
FN:113,_RNvNtNtNtCs2XshHk0aCOj_9paperboat6agents9templates5testss_32test_registry_no_custom_template
FN:120,_RNvNtNtNtCs2XshHk0aCOj_9paperboat6agents9templates5testss_35test_registry_lists_available_roles
FN:62,_RNvMNtNtCs2XshHk0aCOj_9paperboat6agents9templatesNtB2_13AgentRegistry15available_roles
FN:31,_RNvMNtNtCs2XshHk0aCOj_9paperboat6agents9templatesNtB2_13AgentRegistry3get
FN:23,_RNvMNtNtCs2XshHk0aCOj_9paperboat6agents9templatesNtB2_13AgentRegistry3new
FNDA:0,_RNvMNtNtCs2XshHk0aCOj_9paperboat6agents9templatesNtB2_13AgentRegistry8has_role
FNDA:0,_RNvXs_NtNtCs2XshHk0aCOj_9paperboat6agents9templatesNtB4_13AgentRegistryNtNtCskpTlHb4dJmc_4core7default7Default7default
FNDA:1,_RNvNtNtNtCs2XshHk0aCOj_9paperboat6agents9templates5testss_26test_registry_has_explorer
FNDA:1,_RNvNtNtNtCs2XshHk0aCOj_9paperboat6agents9templates5testss_26test_registry_has_verifier
FNDA:1,_RNvNtNtNtCs2XshHk0aCOj_9paperboat6agents9templates5testss_29test_registry_has_implementer
FNDA:1,_RNvNtNtNtCs2XshHk0aCOj_9paperboat6agents9templates5testss_32test_registry_no_custom_template
FNDA:1,_RNvNtNtNtCs2XshHk0aCOj_9paperboat6agents9templates5testss_35test_registry_lists_available_roles
FNDA:1,_RNvMNtNtCs2XshHk0aCOj_9paperboat6agents9templatesNtB2_13AgentRegistry15available_roles
FNDA:70,_RNvMNtNtCs2XshHk0aCOj_9paperboat6agents9templatesNtB2_13AgentRegistry3get
FNDA:52,_RNvMNtNtCs2XshHk0aCOj_9paperboat6agents9templatesNtB2_13AgentRegistry3new
FNF:10
FNH:8
DA:23,52
DA:24,52
DA:25,52
DA:31,70
DA:32,70
DA:35,70
DA:36,1
DA:37,69
DA:40,69
DA:43,69
DA:45,69
DA:46,69
DA:47,69
DA:48,69
DA:49,70
DA:53,0
DA:54,0
DA:55,0
DA:56,0
DA:57,0
DA:58,0
DA:62,1
DA:63,1
DA:64,1
DA:68,0
DA:69,0
DA:70,0
DA:78,1
DA:79,1
DA:80,1
DA:82,1
DA:83,1
DA:84,1
DA:86,1
DA:87,1
DA:88,1
DA:91,1
DA:92,1
DA:93,1
DA:95,1
DA:96,1
DA:98,1
DA:99,1
DA:102,1
DA:103,1
DA:104,1
DA:106,1
DA:107,1
DA:109,1
DA:110,1
DA:113,1
DA:114,1
DA:116,1
DA:117,1
DA:120,1
DA:121,1
DA:122,1
DA:123,1
DA:124,1
DA:125,1
DA:126,1
BRF:0
BRH:0
LF:61
LH:52
end_of_record
SF:/Users/dbmrq/Documents/Programação/Misc/paperboat/src/app/agent_handler.rs
FN:311,_RNvNtNtNtCs2XshHk0aCOj_9paperboat3app13agent_handler5testss_74run_agent_handler_propagates_missing_complete_as_failure_and_cleans_socket
FN:272,_RNvNtNtCs2XshHk0aCOj_9paperboat3app13agent_handler25wait_for_agent_completion
FN:152,_RNCNCNCNvNtNtCs2XshHk0aCOj_9paperboat3app13agent_handler17run_agent_handler00s0_0Bb_
FN:153,_RNCNCNCNvNtNtCs2XshHk0aCOj_9paperboat3app13agent_handler17run_agent_handler00s1_0Bb_
FN:183,_RNCNCNCNvNtNtCs2XshHk0aCOj_9paperboat3app13agent_handler17run_agent_handler00s2_0Bb_
FN:184,_RNCNCNCNvNtNtCs2XshHk0aCOj_9paperboat3app13agent_handler17run_agent_handler00s3_0Bb_
FN:191,_RNCNCNCNvNtNtCs2XshHk0aCOj_9paperboat3app13agent_handler17run_agent_handler00s4_0Bb_
FN:111,_RNCNCNCNvNtNtCs2XshHk0aCOj_9paperboat3app13agent_handler17run_agent_handler00s_0Bb_
FN:284,_RNCNCNCNvNtNtCs2XshHk0aCOj_9paperboat3app13agent_handler25wait_for_agent_completion000Bb_
FN:285,_RNCNCNCNvNtNtCs2XshHk0aCOj_9paperboat3app13agent_handler25wait_for_agent_completion00s_0Bb_
FN:79,_RNCNCNvNtNtCs2XshHk0aCOj_9paperboat3app13agent_handler17run_agent_handler00B9_
FN:276,_RNCNCNvNtNtCs2XshHk0aCOj_9paperboat3app13agent_handler25wait_for_agent_completion00B9_
FN:78,_RNCNvNtNtCs2XshHk0aCOj_9paperboat3app13agent_handler17run_agent_handler0B7_
FN:48,_RNCNvNtNtCs2XshHk0aCOj_9paperboat3app13agent_handler22update_task_completion0B7_
FN:275,_RNCNvNtNtCs2XshHk0aCOj_9paperboat3app13agent_handler25wait_for_agent_completion0B7_
FN:311,_RNCNvNtNtNtCs2XshHk0aCOj_9paperboat3app13agent_handler5testss_74run_agent_handler_propagates_missing_complete_as_failure_and_cleans_socket0B9_
FN:20,_RNvNtNtCs2XshHk0aCOj_9paperboat3app13agent_handler16strip_mcp_prefix
FN:70,_RNvNtNtCs2XshHk0aCOj_9paperboat3app13agent_handler17run_agent_handler
FN:43,_RNvNtNtCs2XshHk0aCOj_9paperboat3app13agent_handler22update_task_completion
FNDA:1,_RNvNtNtNtCs2XshHk0aCOj_9paperboat3app13agent_handler5testss_74run_agent_handler_propagates_missing_complete_as_failure_and_cleans_socket
FNDA:0,_RNvNtNtCs2XshHk0aCOj_9paperboat3app13agent_handler25wait_for_agent_completion
FNDA:0,_RNCNCNCNvNtNtCs2XshHk0aCOj_9paperboat3app13agent_handler17run_agent_handler00s0_0Bb_
FNDA:2,_RNCNCNCNvNtNtCs2XshHk0aCOj_9paperboat3app13agent_handler17run_agent_handler00s1_0Bb_
FNDA:0,_RNCNCNCNvNtNtCs2XshHk0aCOj_9paperboat3app13agent_handler17run_agent_handler00s2_0Bb_
FNDA:0,_RNCNCNCNvNtNtCs2XshHk0aCOj_9paperboat3app13agent_handler17run_agent_handler00s3_0Bb_
FNDA:0,_RNCNCNCNvNtNtCs2XshHk0aCOj_9paperboat3app13agent_handler17run_agent_handler00s4_0Bb_
FNDA:0,_RNCNCNCNvNtNtCs2XshHk0aCOj_9paperboat3app13agent_handler17run_agent_handler00s_0Bb_
FNDA:0,_RNCNCNCNvNtNtCs2XshHk0aCOj_9paperboat3app13agent_handler25wait_for_agent_completion000Bb_
FNDA:0,_RNCNCNCNvNtNtCs2XshHk0aCOj_9paperboat3app13agent_handler25wait_for_agent_completion00s_0Bb_
FNDA:2,_RNCNCNvNtNtCs2XshHk0aCOj_9paperboat3app13agent_handler17run_agent_handler00B9_
FNDA:0,_RNCNCNvNtNtCs2XshHk0aCOj_9paperboat3app13agent_handler25wait_for_agent_completion00B9_
FNDA:2,_RNCNvNtNtCs2XshHk0aCOj_9paperboat3app13agent_handler17run_agent_handler0B7_
FNDA:1,_RNCNvNtNtCs2XshHk0aCOj_9paperboat3app13agent_handler22update_task_completion0B7_
FNDA:0,_RNCNvNtNtCs2XshHk0aCOj_9paperboat3app13agent_handler25wait_for_agent_completion0B7_
FNDA:1,_RNCNvNtNtNtCs2XshHk0aCOj_9paperboat3app13agent_handler5testss_74run_agent_handler_propagates_missing_complete_as_failure_and_cleans_socket0B9_
FNDA:0,_RNvNtNtCs2XshHk0aCOj_9paperboat3app13agent_handler16strip_mcp_prefix
FNDA:2,_RNvNtNtCs2XshHk0aCOj_9paperboat3app13agent_handler17run_agent_handler
FNDA:1,_RNvNtNtCs2XshHk0aCOj_9paperboat3app13agent_handler22update_task_completion
FNF:19
FNH:8
DA:20,0
DA:23,0
DA:24,0
DA:25,0
DA:27,0
DA:28,0
DA:29,0
DA:30,0
DA:31,0
DA:32,0
DA:43,1
DA:44,1
DA:45,1
DA:46,1
DA:47,1
DA:48,1
DA:49,1
DA:50,1
DA:51,1
DA:52,0
DA:53,0
DA:54,0
DA:55,0
DA:56,0
DA:58,1
DA:59,1
DA:60,1
DA:61,1
DA:63,1
DA:64,1
DA:70,2
DA:71,2
DA:72,2
DA:73,2
DA:74,2
DA:75,2
DA:76,2
DA:77,2
DA:78,2
DA:79,2
DA:81,2
DA:83,2
DA:84,0
DA:86,0
DA:87,0
DA:88,0
DA:89,0
DA:94,0
DA:95,0
DA:96,0
DA:99,0
DA:100,0
DA:101,0
DA:104,0
DA:105,0
DA:106,0
DA:109,0
DA:110,0
DA:111,0
DA:113,0
DA:116,0
DA:118,0
DA:119,0
DA:120,0
DA:121,0
DA:122,0
DA:123,0
DA:125,0
DA:128,0
DA:130,0
DA:132,0
DA:133,0
DA:134,0
DA:137,0
DA:140,0
DA:146,2
DA:147,2
DA:148,2
DA:150,2
DA:151,2
DA:152,2
DA:153,2
DA:155,2
DA:157,2
DA:158,2
DA:163,2
DA:168,2
DA:169,2
DA:170,2
DA:171,2
DA:172,2
DA:173,2
DA:174,2
DA:175,2
DA:176,2
DA:177,2
DA:179,0
DA:181,0
DA:182,0
DA:183,0
DA:184,0
DA:186,0
DA:187,0
DA:189,0
DA:191,0
DA:193,0
DA:194,0
DA:195,0
DA:198,0
DA:199,0
DA:201,0
DA:203,0
DA:204,0
DA:205,0
DA:206,0
DA:207,0
DA:208,0
DA:209,0
DA:210,0
DA:211,0
DA:212,0
DA:213,0
DA:215,0
DA:216,0
DA:217,0
DA:219,0
DA:220,0
DA:221,0
DA:226,0
DA:230,0
DA:231,0
DA:232,0
DA:233,0
DA:234,0
DA:235,0
DA:236,0
DA:240,2
DA:241,2
DA:243,2
DA:244,2
DA:246,0
DA:253,0
DA:254,0
DA:255,0
DA:256,0
DA:257,0
DA:258,0
DA:259,0
DA:260,0
DA:261,0
DA:262,0
DA:263,0
DA:265,2
DA:272,0
DA:273,0
DA:274,0
DA:275,0
DA:276,0
DA:277,0
DA:279,0
DA:280,0
DA:282,0
DA:283,0
DA:284,0
DA:285,0
DA:288,0
DA:289,0
DA:290,0
DA:291,0
DA:292,0
DA:293,0
DA:295,0
DA:296,0
DA:297,0
DA:299,0
DA:300,0
DA:311,1
DA:312,1
DA:313,1
DA:314,1
DA:315,1
DA:316,1
DA:317,1
DA:318,1
DA:319,1
DA:320,1
DA:321,1
DA:322,1
DA:324,1
DA:325,1
DA:326,1
DA:327,1
DA:329,1
DA:330,1
DA:331,1
DA:332,1
DA:333,1
DA:334,1
DA:335,1
DA:336,1
DA:337,1
DA:338,1
DA:339,1
DA:340,1
DA:342,1
DA:343,1
DA:344,1
DA:345,1
DA:346,1
DA:347,1
DA:348,1
DA:349,1
DA:350,1
DA:351,1
DA:353,1
DA:355,1
DA:356,1
DA:357,1
DA:358,1
DA:359,1
DA:360,1
DA:361,1
DA:362,1
DA:363,1
DA:364,1
DA:365,1
BRF:0
BRH:0
LF:242
LH:110
end_of_record
SF:/Users/dbmrq/Documents/Programação/Misc/paperboat/src/app/agent_session_handler.rs
FN:225,_RNCNvNtNtNtCs2XshHk0aCOj_9paperboat3app21agent_session_handler5testss_66spawn_agent_handler_task_marks_task_failed_and_unregisters_session0B9_
FN:191,_RNvNtNtCs2XshHk0aCOj_9paperboat3app21agent_session_handler21log_completion_status
FN:152,_RNvNtNtCs2XshHk0aCOj_9paperboat3app21agent_session_handler24process_agent_completion
FN:78,_RNvNtNtCs2XshHk0aCOj_9paperboat3app21agent_session_handler24spawn_agent_handler_task
FN:25,_RNvNtNtCs2XshHk0aCOj_9paperboat3app21agent_session_handler25spawn_notification_router
FN:225,_RNvNtNtNtCs2XshHk0aCOj_9paperboat3app21agent_session_handler5testss_66spawn_agent_handler_task_marks_task_failed_and_unregisters_session
FN:157,_RNCNvNtNtCs2XshHk0aCOj_9paperboat3app21agent_session_handler24process_agent_completion0B7_
FN:94,_RNCNvNtNtCs2XshHk0aCOj_9paperboat3app21agent_session_handler24spawn_agent_handler_task0B7_
FN:33,_RNCNvNtNtCs2XshHk0aCOj_9paperboat3app21agent_session_handler25spawn_notification_router0B7_
FNDA:1,_RNCNvNtNtNtCs2XshHk0aCOj_9paperboat3app21agent_session_handler5testss_66spawn_agent_handler_task_marks_task_failed_and_unregisters_session0B9_
FNDA:1,_RNvNtNtCs2XshHk0aCOj_9paperboat3app21agent_session_handler21log_completion_status
FNDA:1,_RNvNtNtCs2XshHk0aCOj_9paperboat3app21agent_session_handler24process_agent_completion
FNDA:1,_RNvNtNtCs2XshHk0aCOj_9paperboat3app21agent_session_handler24spawn_agent_handler_task
FNDA:0,_RNvNtNtCs2XshHk0aCOj_9paperboat3app21agent_session_handler25spawn_notification_router
FNDA:1,_RNvNtNtNtCs2XshHk0aCOj_9paperboat3app21agent_session_handler5testss_66spawn_agent_handler_task_marks_task_failed_and_unregisters_session
FNDA:1,_RNCNvNtNtCs2XshHk0aCOj_9paperboat3app21agent_session_handler24process_agent_completion0B7_
FNDA:1,_RNCNvNtNtCs2XshHk0aCOj_9paperboat3app21agent_session_handler24spawn_agent_handler_task0B7_
FNDA:0,_RNCNvNtNtCs2XshHk0aCOj_9paperboat3app21agent_session_handler25spawn_notification_router0B7_
FNF:9
FNH:7
DA:25,0
DA:26,0
DA:27,0
DA:28,0
DA:29,0
DA:30,0
DA:31,0
DA:32,0
DA:33,0
DA:34,0
DA:35,0
DA:36,0
DA:37,0
DA:38,0
DA:40,0
DA:41,0
DA:45,0
DA:47,0
DA:48,0
DA:49,0
DA:51,0
DA:55,0
DA:57,0
DA:78,1
DA:80,1
DA:81,1
DA:82,1
DA:83,1
DA:84,1
DA:85,1
DA:86,1
DA:87,1
DA:88,1
DA:89,1
DA:90,1
DA:91,1
DA:92,1
DA:94,1
DA:96,1
DA:98,1
DA:101,1
DA:102,1
DA:103,1
DA:104,1
DA:105,1
DA:106,1
DA:107,1
DA:108,1
DA:109,1
DA:110,1
DA:112,1
DA:113,1
DA:116,1
DA:120,1
DA:121,1
DA:124,1
DA:125,0
DA:126,1
DA:130,1
DA:131,1
DA:134,1
DA:136,1
DA:137,1
DA:138,1
DA:139,1
DA:140,1
DA:141,1
DA:142,1
DA:145,1
DA:146,1
DA:147,1
DA:152,1
DA:153,1
DA:154,1
DA:155,1
DA:156,1
DA:157,1
DA:159,1
DA:160,0
DA:161,0
DA:162,1
DA:165,1
DA:166,1
DA:167,0
DA:168,0
DA:169,0
DA:170,0
DA:171,0
DA:172,0
DA:174,1
DA:177,1
DA:178,1
DA:179,1
DA:180,1
DA:181,1
DA:182,1
DA:183,1
DA:184,1
DA:185,0
DA:187,1
DA:188,1
DA:191,1
DA:192,1
DA:193,1
DA:194,1
DA:195,1
DA:196,1
DA:197,1
DA:198,0
DA:202,0
DA:205,1
DA:209,0
DA:212,1
DA:225,1
DA:226,1
DA:227,1
DA:228,1
DA:229,1
DA:230,1
DA:231,1
DA:232,1
DA:233,1
DA:234,1
DA:235,1
DA:236,1
DA:238,1
DA:239,1
DA:241,1
DA:242,1
DA:243,1
DA:244,1
DA:245,1
DA:246,1
DA:247,1
DA:248,1
DA:249,1
DA:250,1
DA:251,1
DA:252,1
DA:253,1
DA:254,1
DA:257,1
DA:258,1
DA:259,1
DA:260,1
DA:263,1
DA:264,1
DA:265,1
DA:266,1
DA:268,1
DA:269,1
DA:270,1
DA:271,1
DA:272,1
DA:273,1
DA:274,1
DA:275,1
DA:276,1
DA:277,1
DA:278,1
DA:279,1
DA:280,1
DA:281,1
DA:282,1
DA:283,1
DA:286,1
DA:287,1
DA:288,1
DA:289,1
DA:290,1
DA:291,1
DA:292,1
DA:293,1
DA:294,1
DA:295,1
DA:296,1
DA:298,1
DA:300,1
DA:301,1
DA:302,1
DA:303,1
DA:304,1
DA:305,1
DA:306,1
DA:307,1
DA:310,1
DA:311,1
DA:312,1
DA:313,1
DA:314,1
DA:315,1
DA:316,1
DA:317,1
DA:318,1
DA:320,0
DA:323,1
DA:324,1
DA:325,1
DA:326,1
DA:327,1
DA:328,1
DA:329,1
DA:330,1
DA:331,1
DA:332,1
DA:333,1
DA:334,1
DA:335,1
DA:336,1
DA:338,1
DA:339,1
DA:340,1
DA:341,1
DA:342,1
BRF:0
BRH:0
LF:220
LH:182
end_of_record
SF:/Users/dbmrq/Documents/Programação/Misc/paperboat/src/app/agent_spawner.rs
FN:1000,_RNvMNtNtNtCs2XshHk0aCOj_9paperboat3app13agent_spawner5testsNtB2_16RecordingBackend19with_fallback_chain
FN:992,_RNvMNtNtNtCs2XshHk0aCOj_9paperboat3app13agent_spawner5testsNtB2_16RecordingBackend3new
FN:1005,_RNvMNtNtNtCs2XshHk0aCOj_9paperboat3app13agent_spawner5testsNtB2_16RecordingBackend6events
FN:1099,_RNvMs_NtNtNtCs2XshHk0aCOj_9paperboat3app13agent_spawner5testsNtB4_8EnvGuard3set
FN:1115,_RNvNtNtNtCs2XshHk0aCOj_9paperboat3app13agent_spawner5tests17test_model_config
FN:1236,_RNvNtNtNtCs2XshHk0aCOj_9paperboat3app13agent_spawner5testss_58spawn_agent_async_marks_task_failed_and_logs_startup_error
FN:932,_RNvXs8_NtNtNtCs2XshHk0aCOj_9paperboat3app13agent_spawner5testsNtB5_18RecordingTransportNtNtNtBb_7backend9transport14AgentTransport10initialize
FN:962,_RNvXs8_NtNtNtCs2XshHk0aCOj_9paperboat3app13agent_spawner5testsNtB5_18RecordingTransportNtNtNtBb_7backend9transport14AgentTransport11send_prompt
FN:947,_RNvXs8_NtNtNtCs2XshHk0aCOj_9paperboat3app13agent_spawner5testsNtB5_18RecordingTransportNtNtNtBb_7backend9transport14AgentTransport14create_session
FN:975,_RNvXs8_NtNtNtCs2XshHk0aCOj_9paperboat3app13agent_spawner5testsNtB5_18RecordingTransportNtNtNtBb_7backend9transport14AgentTransport15respond_to_tool
FN:966,_RNvXs8_NtNtNtCs2XshHk0aCOj_9paperboat3app13agent_spawner5testsNtB5_18RecordingTransportNtNtNtBb_7backend9transport14AgentTransport18take_notifications
FN:979,_RNvXs8_NtNtNtCs2XshHk0aCOj_9paperboat3app13agent_spawner5testsNtB5_18RecordingTransportNtNtNtBb_7backend9transport14AgentTransport8shutdown
FN:1016,_RNvXsa_NtNtNtCs2XshHk0aCOj_9paperboat3app13agent_spawner5testsNtB5_16RecordingBackendNtNtNtBb_7backend5trait7Backend10check_auth
FN:1088,_RNvXsa_NtNtNtCs2XshHk0aCOj_9paperboat3app13agent_spawner5testsNtB5_16RecordingBackendNtNtNtBb_7backend5trait7Backend10login_hint
FN:1032,_RNvXsa_NtNtNtCs2XshHk0aCOj_9paperboat3app13agent_spawner5testsNtB5_16RecordingBackendNtNtNtBb_7backend5trait7Backend11cleanup_mcp
FN:1024,_RNvXsa_NtNtNtCs2XshHk0aCOj_9paperboat3app13agent_spawner5testsNtB5_16RecordingBackendNtNtNtBb_7backend5trait7Backend12resolve_tier
FN:1041,_RNvXsa_NtNtNtCs2XshHk0aCOj_9paperboat3app13agent_spawner5testsNtB5_16RecordingBackendNtNtNtBb_7backend5trait7Backend13create_client
FN:1020,_RNvXsa_NtNtNtCs2XshHk0aCOj_9paperboat3app13agent_spawner5testsNtB5_16RecordingBackendNtNtNtBb_7backend5trait7Backend15available_tiers
FN:1058,_RNvXsa_NtNtNtCs2XshHk0aCOj_9paperboat3app13agent_spawner5testsNtB5_16RecordingBackendNtNtNtBb_7backend5trait7Backend16create_transport
FN:1045,_RNvXsa_NtNtNtCs2XshHk0aCOj_9paperboat3app13agent_spawner5testsNtB5_16RecordingBackendNtNtNtBb_7backend5trait7Backend17setup_agent_cache
FN:1012,_RNvXsa_NtNtNtCs2XshHk0aCOj_9paperboat3app13agent_spawner5testsNtB5_16RecordingBackendNtNtNtBb_7backend5trait7Backend4name
FN:1028,_RNvXsa_NtNtNtCs2XshHk0aCOj_9paperboat3app13agent_spawner5testsNtB5_16RecordingBackendNtNtNtBb_7backend5trait7Backend9setup_mcp
FN:60,_RNvMNtNtCs2XshHk0aCOj_9paperboat3app13agent_spawnerNtB2_12AgentSession12take_tool_rx
FN:72,_RNvNtNtCs2XshHk0aCOj_9paperboat3app13agent_spawner26spawn_transport_with_retry
FN:1107,_RNvXs0_NtNtNtCs2XshHk0aCOj_9paperboat3app13agent_spawner5testsNtB5_8EnvGuardNtNtNtCskpTlHb4dJmc_4core3ops4drop4Drop4drop
FN:111,_RNCNCNCNCNvNtNtCs2XshHk0aCOj_9paperboat3app13agent_spawner26spawn_transport_with_retry0000Bd_
FN:129,_RNCNCNCNCNvNtNtCs2XshHk0aCOj_9paperboat3app13agent_spawner26spawn_transport_with_retry000s0_0Bd_
FN:116,_RNCNCNCNCNvNtNtCs2XshHk0aCOj_9paperboat3app13agent_spawner26spawn_transport_with_retry000s_0Bd_
FN:619,_RNCNCNCNvMs_NtNtCs2XshHk0aCOj_9paperboat3app13agent_spawnerNtBc_3App18resolve_agent_spec000Be_
FN:414,_RNCNCNCNvMs_NtNtCs2XshHk0aCOj_9paperboat3app13agent_spawnerNtBc_3App27spawn_agent_with_own_socket000Be_
FN:487,_RNCNCNCNvMs_NtNtCs2XshHk0aCOj_9paperboat3app13agent_spawnerNtBc_3App27spawn_agent_with_own_socket00s_0Be_
FN:205,_RNCNCNCNvMs_NtNtCs2XshHk0aCOj_9paperboat3app13agent_spawnerNtBc_3App30spawn_agent_with_resolved_spec000Be_
FN:106,_RNCNCNCNvNtNtCs2XshHk0aCOj_9paperboat3app13agent_spawner26spawn_transport_with_retry000Bb_
FN:615,_RNCNCNvMs_NtNtCs2XshHk0aCOj_9paperboat3app13agent_spawnerNtBa_3App18resolve_agent_spec00Bc_
FN:631,_RNCNCNvMs_NtNtCs2XshHk0aCOj_9paperboat3app13agent_spawnerNtBa_3App18resolve_agent_spec0s_0Bc_
FN:376,_RNCNCNvMs_NtNtCs2XshHk0aCOj_9paperboat3app13agent_spawnerNtBa_3App32create_worker_session_with_retry00Bc_
FN:101,_RNCNCNvNtNtCs2XshHk0aCOj_9paperboat3app13agent_spawner26spawn_transport_with_retry00B9_
FN:156,_RNCNCNvNtNtCs2XshHk0aCOj_9paperboat3app13agent_spawner26spawn_transport_with_retry0s_0B9_
FN:167,_RNCNvMs_NtNtCs2XshHk0aCOj_9paperboat3app13agent_spawnerNtB8_3App17spawn_implementer0Ba_
FN:589,_RNCNvMs_NtNtCs2XshHk0aCOj_9paperboat3app13agent_spawnerNtB8_3App18resolve_agent_spec0Ba_
FN:812,_RNCNvMs_NtNtCs2XshHk0aCOj_9paperboat3app13agent_spawnerNtB8_3App23spawn_agents_concurrent0Ba_
FN:533,_RNCNvMs_NtNtCs2XshHk0aCOj_9paperboat3app13agent_spawnerNtB8_3App24resolve_prompt_and_tools0Ba_
FN:545,_RNCNvMs_NtNtCs2XshHk0aCOj_9paperboat3app13agent_spawnerNtB8_3App24resolve_prompt_and_toolss_0Ba_
FN:404,_RNCNvMs_NtNtCs2XshHk0aCOj_9paperboat3app13agent_spawnerNtB8_3App27spawn_agent_with_own_socket0Ba_
FN:669,_RNCNvMs_NtNtCs2XshHk0aCOj_9paperboat3app13agent_spawnerNtB8_3App30spawn_agent_async_with_context0Ba_
FN:192,_RNCNvMs_NtNtCs2XshHk0aCOj_9paperboat3app13agent_spawnerNtB8_3App30spawn_agent_with_resolved_spec0Ba_
FN:293,_RNCNvMs_NtNtCs2XshHk0aCOj_9paperboat3app13agent_spawnerNtB8_3App32create_worker_session_with_retry0Ba_
FN:80,_RNCNvNtNtCs2XshHk0aCOj_9paperboat3app13agent_spawner26spawn_transport_with_retry0B7_
FN:1121,_RNCNCNvNtNtNtCs2XshHk0aCOj_9paperboat3app13agent_spawner5testss_67spawn_transport_retries_transient_session_creation_failure_in_order00Bb_
FN:1179,_RNCNCNvNtNtNtCs2XshHk0aCOj_9paperboat3app13agent_spawner5testss_68spawn_transport_falls_back_to_next_model_without_retrying_same_model00Bb_
FN:1236,_RNCNvNtNtNtCs2XshHk0aCOj_9paperboat3app13agent_spawner5testss_58spawn_agent_async_marks_task_failed_and_logs_startup_error0B9_
FN:1121,_RNCNvNtNtNtCs2XshHk0aCOj_9paperboat3app13agent_spawner5testss_67spawn_transport_retries_transient_session_creation_failure_in_order0B9_
FN:1179,_RNCNvNtNtNtCs2XshHk0aCOj_9paperboat3app13agent_spawner5testss_68spawn_transport_falls_back_to_next_model_without_retrying_same_model0B9_
FN:167,_RNvMs_NtNtCs2XshHk0aCOj_9paperboat3app13agent_spawnerNtB6_3App17spawn_implementer
FN:589,_RNvMs_NtNtCs2XshHk0aCOj_9paperboat3app13agent_spawnerNtB6_3App18resolve_agent_spec
FN:808,_RNvMs_NtNtCs2XshHk0aCOj_9paperboat3app13agent_spawnerNtB6_3App23spawn_agents_concurrent
FN:520,_RNvMs_NtNtCs2XshHk0aCOj_9paperboat3app13agent_spawnerNtB6_3App24resolve_prompt_and_tools
FN:856,_RNvMs_NtNtCs2XshHk0aCOj_9paperboat3app13agent_spawnerNtB6_3App25resolve_implementer_model
FN:394,_RNvMs_NtNtCs2XshHk0aCOj_9paperboat3app13agent_spawnerNtB6_3App27spawn_agent_with_own_socket
FN:665,_RNvMs_NtNtCs2XshHk0aCOj_9paperboat3app13agent_spawnerNtB6_3App30spawn_agent_async_with_context
FN:189,_RNvMs_NtNtCs2XshHk0aCOj_9paperboat3app13agent_spawnerNtB6_3App30spawn_agent_with_resolved_spec
FN:288,_RNvMs_NtNtCs2XshHk0aCOj_9paperboat3app13agent_spawnerNtB6_3App32create_worker_session_with_retry
FNDA:1,_RNvMNtNtNtCs2XshHk0aCOj_9paperboat3app13agent_spawner5testsNtB2_16RecordingBackend19with_fallback_chain
FNDA:3,_RNvMNtNtNtCs2XshHk0aCOj_9paperboat3app13agent_spawner5testsNtB2_16RecordingBackend3new
FNDA:2,_RNvMNtNtNtCs2XshHk0aCOj_9paperboat3app13agent_spawner5testsNtB2_16RecordingBackend6events
FNDA:4,_RNvMs_NtNtNtCs2XshHk0aCOj_9paperboat3app13agent_spawner5testsNtB4_8EnvGuard3set
FNDA:1,_RNvNtNtNtCs2XshHk0aCOj_9paperboat3app13agent_spawner5tests17test_model_config
FNDA:1,_RNvNtNtNtCs2XshHk0aCOj_9paperboat3app13agent_spawner5testss_58spawn_agent_async_marks_task_failed_and_logs_startup_error
FNDA:4,_RNvXs8_NtNtNtCs2XshHk0aCOj_9paperboat3app13agent_spawner5testsNtB5_18RecordingTransportNtNtNtBb_7backend9transport14AgentTransport10initialize
FNDA:0,_RNvXs8_NtNtNtCs2XshHk0aCOj_9paperboat3app13agent_spawner5testsNtB5_18RecordingTransportNtNtNtBb_7backend9transport14AgentTransport11send_prompt
FNDA:4,_RNvXs8_NtNtNtCs2XshHk0aCOj_9paperboat3app13agent_spawner5testsNtB5_18RecordingTransportNtNtNtBb_7backend9transport14AgentTransport14create_session
FNDA:0,_RNvXs8_NtNtNtCs2XshHk0aCOj_9paperboat3app13agent_spawner5testsNtB5_18RecordingTransportNtNtNtBb_7backend9transport14AgentTransport15respond_to_tool
FNDA:0,_RNvXs8_NtNtNtCs2XshHk0aCOj_9paperboat3app13agent_spawner5testsNtB5_18RecordingTransportNtNtNtBb_7backend9transport14AgentTransport18take_notifications
FNDA:0,_RNvXs8_NtNtNtCs2XshHk0aCOj_9paperboat3app13agent_spawner5testsNtB5_18RecordingTransportNtNtNtBb_7backend9transport14AgentTransport8shutdown
FNDA:0,_RNvXsa_NtNtNtCs2XshHk0aCOj_9paperboat3app13agent_spawner5testsNtB5_16RecordingBackendNtNtNtBb_7backend5trait7Backend10check_auth
FNDA:0,_RNvXsa_NtNtNtCs2XshHk0aCOj_9paperboat3app13agent_spawner5testsNtB5_16RecordingBackendNtNtNtBb_7backend5trait7Backend10login_hint
FNDA:0,_RNvXsa_NtNtNtCs2XshHk0aCOj_9paperboat3app13agent_spawner5testsNtB5_16RecordingBackendNtNtNtBb_7backend5trait7Backend11cleanup_mcp
FNDA:1,_RNvXsa_NtNtNtCs2XshHk0aCOj_9paperboat3app13agent_spawner5testsNtB5_16RecordingBackendNtNtNtBb_7backend5trait7Backend12resolve_tier
FNDA:0,_RNvXsa_NtNtNtCs2XshHk0aCOj_9paperboat3app13agent_spawner5testsNtB5_16RecordingBackendNtNtNtBb_7backend5trait7Backend13create_client
FNDA:0,_RNvXsa_NtNtNtCs2XshHk0aCOj_9paperboat3app13agent_spawner5testsNtB5_16RecordingBackendNtNtNtBb_7backend5trait7Backend15available_tiers
FNDA:5,_RNvXsa_NtNtNtCs2XshHk0aCOj_9paperboat3app13agent_spawner5testsNtB5_16RecordingBackendNtNtNtBb_7backend5trait7Backend16create_transport
FNDA:0,_RNvXsa_NtNtNtCs2XshHk0aCOj_9paperboat3app13agent_spawner5testsNtB5_16RecordingBackendNtNtNtBb_7backend5trait7Backend17setup_agent_cache
FNDA:0,_RNvXsa_NtNtNtCs2XshHk0aCOj_9paperboat3app13agent_spawner5testsNtB5_16RecordingBackendNtNtNtBb_7backend5trait7Backend4name
FNDA:0,_RNvXsa_NtNtNtCs2XshHk0aCOj_9paperboat3app13agent_spawner5testsNtB5_16RecordingBackendNtNtNtBb_7backend5trait7Backend9setup_mcp
FNDA:65,_RNvMNtNtCs2XshHk0aCOj_9paperboat3app13agent_spawnerNtB2_12AgentSession12take_tool_rx
FNDA:3,_RNvNtNtCs2XshHk0aCOj_9paperboat3app13agent_spawner26spawn_transport_with_retry
FNDA:4,_RNvXs0_NtNtNtCs2XshHk0aCOj_9paperboat3app13agent_spawner5testsNtB5_8EnvGuardNtNtNtCskpTlHb4dJmc_4core3ops4drop4Drop4drop
FNDA:1,_RNCNCNCNCNvNtNtCs2XshHk0aCOj_9paperboat3app13agent_spawner26spawn_transport_with_retry0000Bd_
FNDA:2,_RNCNCNCNCNvNtNtCs2XshHk0aCOj_9paperboat3app13agent_spawner26spawn_transport_with_retry000s0_0Bd_
FNDA:0,_RNCNCNCNCNvNtNtCs2XshHk0aCOj_9paperboat3app13agent_spawner26spawn_transport_with_retry000s_0Bd_
FNDA:1,_RNCNCNCNvMs_NtNtCs2XshHk0aCOj_9paperboat3app13agent_spawnerNtBc_3App18resolve_agent_spec000Be_
FNDA:0,_RNCNCNCNvMs_NtNtCs2XshHk0aCOj_9paperboat3app13agent_spawnerNtBc_3App27spawn_agent_with_own_socket000Be_
FNDA:0,_RNCNCNCNvMs_NtNtCs2XshHk0aCOj_9paperboat3app13agent_spawnerNtBc_3App27spawn_agent_with_own_socket00s_0Be_
FNDA:0,_RNCNCNCNvMs_NtNtCs2XshHk0aCOj_9paperboat3app13agent_spawnerNtBc_3App30spawn_agent_with_resolved_spec000Be_
FNDA:5,_RNCNCNCNvNtNtCs2XshHk0aCOj_9paperboat3app13agent_spawner26spawn_transport_with_retry000Bb_
FNDA:1,_RNCNCNvMs_NtNtCs2XshHk0aCOj_9paperboat3app13agent_spawnerNtBa_3App18resolve_agent_spec00Bc_
FNDA:0,_RNCNCNvMs_NtNtCs2XshHk0aCOj_9paperboat3app13agent_spawnerNtBa_3App18resolve_agent_spec0s_0Bc_
FNDA:0,_RNCNCNvMs_NtNtCs2XshHk0aCOj_9paperboat3app13agent_spawnerNtBa_3App32create_worker_session_with_retry00Bc_
FNDA:5,_RNCNCNvNtNtCs2XshHk0aCOj_9paperboat3app13agent_spawner26spawn_transport_with_retry00B9_
FNDA:0,_RNCNCNvNtNtCs2XshHk0aCOj_9paperboat3app13agent_spawner26spawn_transport_with_retry0s_0B9_
FNDA:65,_RNCNvMs_NtNtCs2XshHk0aCOj_9paperboat3app13agent_spawnerNtB8_3App17spawn_implementer0Ba_
FNDA:1,_RNCNvMs_NtNtCs2XshHk0aCOj_9paperboat3app13agent_spawnerNtB8_3App18resolve_agent_spec0Ba_
FNDA:0,_RNCNvMs_NtNtCs2XshHk0aCOj_9paperboat3app13agent_spawnerNtB8_3App23spawn_agents_concurrent0Ba_
FNDA:0,_RNCNvMs_NtNtCs2XshHk0aCOj_9paperboat3app13agent_spawnerNtB8_3App24resolve_prompt_and_tools0Ba_
FNDA:0,_RNCNvMs_NtNtCs2XshHk0aCOj_9paperboat3app13agent_spawnerNtB8_3App24resolve_prompt_and_toolss_0Ba_
FNDA:1,_RNCNvMs_NtNtCs2XshHk0aCOj_9paperboat3app13agent_spawnerNtB8_3App27spawn_agent_with_own_socket0Ba_
FNDA:1,_RNCNvMs_NtNtCs2XshHk0aCOj_9paperboat3app13agent_spawnerNtB8_3App30spawn_agent_async_with_context0Ba_
FNDA:65,_RNCNvMs_NtNtCs2XshHk0aCOj_9paperboat3app13agent_spawnerNtB8_3App30spawn_agent_with_resolved_spec0Ba_
FNDA:65,_RNCNvMs_NtNtCs2XshHk0aCOj_9paperboat3app13agent_spawnerNtB8_3App32create_worker_session_with_retry0Ba_
FNDA:3,_RNCNvNtNtCs2XshHk0aCOj_9paperboat3app13agent_spawner26spawn_transport_with_retry0B7_
FNDA:1,_RNCNCNvNtNtNtCs2XshHk0aCOj_9paperboat3app13agent_spawner5testss_67spawn_transport_retries_transient_session_creation_failure_in_order00Bb_
FNDA:1,_RNCNCNvNtNtNtCs2XshHk0aCOj_9paperboat3app13agent_spawner5testss_68spawn_transport_falls_back_to_next_model_without_retrying_same_model00Bb_
FNDA:1,_RNCNvNtNtNtCs2XshHk0aCOj_9paperboat3app13agent_spawner5testss_58spawn_agent_async_marks_task_failed_and_logs_startup_error0B9_
FNDA:1,_RNCNvNtNtNtCs2XshHk0aCOj_9paperboat3app13agent_spawner5testss_67spawn_transport_retries_transient_session_creation_failure_in_order0B9_
FNDA:1,_RNCNvNtNtNtCs2XshHk0aCOj_9paperboat3app13agent_spawner5testss_68spawn_transport_falls_back_to_next_model_without_retrying_same_model0B9_
FNDA:65,_RNvMs_NtNtCs2XshHk0aCOj_9paperboat3app13agent_spawnerNtB6_3App17spawn_implementer
FNDA:1,_RNvMs_NtNtCs2XshHk0aCOj_9paperboat3app13agent_spawnerNtB6_3App18resolve_agent_spec
FNDA:0,_RNvMs_NtNtCs2XshHk0aCOj_9paperboat3app13agent_spawnerNtB6_3App23spawn_agents_concurrent
FNDA:66,_RNvMs_NtNtCs2XshHk0aCOj_9paperboat3app13agent_spawnerNtB6_3App24resolve_prompt_and_tools
FNDA:66,_RNvMs_NtNtCs2XshHk0aCOj_9paperboat3app13agent_spawnerNtB6_3App25resolve_implementer_model
FNDA:1,_RNvMs_NtNtCs2XshHk0aCOj_9paperboat3app13agent_spawnerNtB6_3App27spawn_agent_with_own_socket
FNDA:1,_RNvMs_NtNtCs2XshHk0aCOj_9paperboat3app13agent_spawnerNtB6_3App30spawn_agent_async_with_context
FNDA:65,_RNvMs_NtNtCs2XshHk0aCOj_9paperboat3app13agent_spawnerNtB6_3App30spawn_agent_with_resolved_spec
FNDA:65,_RNvMs_NtNtCs2XshHk0aCOj_9paperboat3app13agent_spawnerNtB6_3App32create_worker_session_with_retry
FNF:60
FNH:37
DA:60,65
DA:61,65
DA:62,65
DA:72,3
DA:73,3
DA:74,3
DA:75,3
DA:76,3
DA:77,3
DA:78,3
DA:79,3
DA:80,3
DA:83,3
DA:86,3
DA:88,4
DA:89,4
DA:91,4
DA:95,4
DA:96,4
DA:97,4
DA:98,4
DA:101,5
DA:102,5
DA:103,5
DA:104,5
DA:106,5
DA:108,5
DA:109,5
DA:110,5
DA:111,5
DA:112,1
DA:113,1
DA:116,4
DA:117,0
DA:118,0
DA:121,4
DA:122,4
DA:123,4
DA:124,4
DA:126,4
DA:127,4
DA:128,4
DA:129,4
DA:131,2
DA:132,5
DA:133,5
DA:134,4
DA:136,4
DA:137,2
DA:138,2
DA:139,2
DA:140,1
DA:145,1
DA:146,1
DA:147,1
DA:149,1
DA:155,0
DA:156,0
DA:157,0
DA:161,3
DA:167,65
DA:177,65
DA:189,65
DA:190,65
DA:191,65
DA:192,65
DA:205,0
DA:206,0
DA:207,0
DA:279,65
DA:288,65
DA:289,65
DA:290,65
DA:291,65
DA:292,65
DA:293,65
DA:296,65
DA:299,65
DA:301,65
DA:302,65
DA:303,65
DA:306,65
DA:309,65
DA:310,65
DA:311,65
DA:313,65
DA:314,65
DA:315,65
DA:316,0
DA:319,0
DA:322,65
DA:323,65
DA:325,0
DA:327,0
DA:328,0
DA:332,0
DA:333,0
DA:334,0
DA:336,0
DA:337,0
DA:339,0
DA:340,0
DA:343,0
DA:348,0
DA:351,0
DA:352,0
DA:353,0
DA:354,0
DA:357,0
DA:358,0
DA:360,0
DA:362,0
DA:365,0
DA:375,0
DA:376,0
DA:377,0
DA:381,65
DA:394,1
DA:395,1
DA:396,1
DA:397,1
DA:398,1
DA:399,1
DA:400,1
DA:401,1
DA:402,1
DA:403,1
DA:404,1
DA:414,0
DA:415,0
DA:417,0
DA:419,0
DA:487,0
DA:488,0
DA:490,0
DA:493,0
DA:503,1
DA:520,66
DA:521,66
DA:522,66
DA:523,66
DA:524,66
DA:527,66
DA:530,0
DA:531,0
DA:532,0
DA:533,0
DA:535,0
DA:536,0
DA:538,0
DA:540,66
DA:542,66
DA:543,66
DA:544,66
DA:545,66
DA:547,66
DA:548,66
DA:549,66
DA:550,66
DA:551,66
DA:553,66
DA:554,66
DA:555,66
DA:556,66
DA:557,66
DA:559,66
DA:563,0
DA:567,0
DA:568,0
DA:570,0
DA:571,0
DA:572,0
DA:573,0
DA:574,0
DA:576,0
DA:579,66
DA:589,1
DA:590,1
DA:591,1
DA:594,1
DA:595,0
DA:597,0
DA:598,0
DA:601,0
DA:603,0
DA:605,0
DA:608,0
DA:611,1
DA:614,1
DA:615,1
DA:617,1
DA:618,1
DA:619,1
DA:622,1
DA:623,0
DA:628,1
DA:629,1
DA:630,1
DA:631,1
DA:634,1
DA:635,0
DA:636,0
DA:637,0
DA:638,1
DA:640,1
DA:641,1
DA:665,1
DA:666,1
DA:667,1
DA:668,1
DA:669,1
DA:789,1
DA:808,0
DA:809,0
DA:810,0
DA:811,0
DA:812,0
DA:841,0
DA:846,0
DA:856,66
DA:857,66
DA:858,66
DA:859,66
DA:861,66
DA:862,66
DA:863,66
DA:864,66
DA:867,66
DA:868,0
DA:869,0
DA:874,0
DA:876,66
DA:880,66
DA:881,66
DA:882,66
DA:932,4
DA:945,4
DA:947,4
DA:960,4
DA:962,0
DA:964,0
DA:966,0
DA:967,0
DA:968,0
DA:975,0
DA:977,0
DA:979,0
DA:981,0
DA:992,3
DA:993,3
DA:994,3
DA:995,3
DA:996,3
DA:997,3
DA:998,3
DA:1000,1
DA:1001,1
DA:1002,1
DA:1003,1
DA:1005,2
DA:1006,2
DA:1007,2
DA:1012,0
DA:1013,0
DA:1014,0
DA:1016,0
DA:1017,0
DA:1018,0
DA:1020,0
DA:1022,0
DA:1024,1
DA:1025,1
DA:1026,1
DA:1028,0
DA:1030,0
DA:1032,0
DA:1033,0
DA:1034,0
DA:1041,0
DA:1043,0
DA:1045,0
DA:1046,0
DA:1047,0
DA:1048,0
DA:1049,0
DA:1050,0
DA:1051,0
DA:1058,5
DA:1086,5
DA:1088,0
DA:1089,0
DA:1090,0
DA:1099,4
DA:1100,4
DA:1101,4
DA:1102,4
DA:1103,4
DA:1107,4
DA:1108,4
DA:1109,0
DA:1110,4
DA:1112,4
DA:1115,1
DA:1116,1
DA:1117,1
DA:1121,2
DA:1122,1
DA:1123,1
DA:1125,1
DA:1126,1
DA:1127,1
DA:1128,1
DA:1129,1
DA:1130,1
DA:1131,1
DA:1132,1
DA:1133,1
DA:1134,1
DA:1135,1
DA:1138,1
DA:1139,1
DA:1140,1
DA:1141,1
DA:1142,1
DA:1143,1
DA:1144,1
DA:1145,1
DA:1146,1
DA:1147,1
DA:1148,1
DA:1150,1
DA:1151,1
DA:1152,1
DA:1153,1
DA:1154,1
DA:1155,1
DA:1156,1
DA:1157,1
DA:1158,1
DA:1159,1
DA:1160,1
DA:1161,1
DA:1162,1
DA:1163,1
DA:1164,1
DA:1165,1
DA:1166,1
DA:1167,1
DA:1168,1
DA:1169,1
DA:1170,1
DA:1171,1
DA:1172,1
DA:1173,1
DA:1174,1
DA:1179,2
DA:1180,1
DA:1181,1
DA:1183,1
DA:1184,1
DA:1185,1
DA:1186,1
DA:1187,1
DA:1188,1
DA:1189,1
DA:1190,1
DA:1191,1
DA:1192,1
DA:1193,1
DA:1196,1
DA:1197,1
DA:1198,1
DA:1199,1
DA:1200,1
DA:1201,1
DA:1202,1
DA:1203,1
DA:1204,1
DA:1205,1
DA:1206,1
DA:1208,1
DA:1209,1
DA:1210,1
DA:1211,1
DA:1212,1
DA:1213,1
DA:1214,1
DA:1215,1
DA:1216,1
DA:1217,1
DA:1218,1
DA:1219,1
DA:1220,1
DA:1221,1
DA:1222,1
DA:1223,1
DA:1224,1
DA:1225,1
DA:1226,1
DA:1227,1
DA:1228,1
DA:1229,1
DA:1230,1
DA:1231,1
DA:1232,1
DA:1236,1
DA:1237,1
DA:1238,1
DA:1239,1
DA:1240,1
DA:1242,1
DA:1243,1
DA:1244,1
DA:1245,1
DA:1247,1
DA:1248,1
DA:1249,1
DA:1250,1
DA:1251,1
DA:1252,1
DA:1253,1
DA:1256,1
DA:1257,1
DA:1258,1
DA:1261,1
DA:1262,1
DA:1263,1
DA:1264,1
DA:1265,1
DA:1266,1
DA:1267,1
DA:1268,1
DA:1270,1
DA:1271,1
DA:1272,1
DA:1273,1
DA:1276,1
DA:1277,1
DA:1278,1
DA:1282,1
DA:1283,1
DA:1284,1
DA:1285,1
DA:1286,1
DA:1287,1
DA:1288,1
DA:1290,1
DA:1291,1
DA:1292,1
DA:1293,1
DA:1295,0
DA:1298,1
DA:1299,1
DA:1300,1
DA:1301,1
DA:1302,1
DA:1303,1
DA:1304,1
BRF:0
BRH:0
LF:477
LH:354
end_of_record
SF:/Users/dbmrq/Documents/Programação/Misc/paperboat/src/app/concurrent_spawner.rs
FN:180,_RNvNtNtNtCs2XshHk0aCOj_9paperboat3app18concurrent_spawner5tests12agent_result
FN:191,_RNvNtNtNtCs2XshHk0aCOj_9paperboat3app18concurrent_spawner5testss_60test_wait_for_all_collects_mixed_success_and_failure_results
FN:257,_RNvNtNtNtCs2XshHk0aCOj_9paperboat3app18concurrent_spawner5testss_61test_wait_for_any_returns_first_completion_even_when_it_fails
FN:195,_RNCNCNvNtNtNtCs2XshHk0aCOj_9paperboat3app18concurrent_spawner5testss_60test_wait_for_all_collects_mixed_success_and_failure_results00Bb_
FN:239,_RNCNCNvNtNtNtCs2XshHk0aCOj_9paperboat3app18concurrent_spawner5testss_60test_wait_for_all_collects_mixed_success_and_failure_results0s1_0Bb_
FN:245,_RNCNCNvNtNtNtCs2XshHk0aCOj_9paperboat3app18concurrent_spawner5testss_60test_wait_for_all_collects_mixed_success_and_failure_results0s2_0Bb_
FN:251,_RNCNCNvNtNtNtCs2XshHk0aCOj_9paperboat3app18concurrent_spawner5testss_60test_wait_for_all_collects_mixed_success_and_failure_results0s3_0Bb_
FN:205,_RNCNCNvNtNtNtCs2XshHk0aCOj_9paperboat3app18concurrent_spawner5testss_60test_wait_for_all_collects_mixed_success_and_failure_results0s_0Bb_
FN:261,_RNCNCNvNtNtNtCs2XshHk0aCOj_9paperboat3app18concurrent_spawner5testss_61test_wait_for_any_returns_first_completion_even_when_it_fails00Bb_
FN:271,_RNCNCNvNtNtNtCs2XshHk0aCOj_9paperboat3app18concurrent_spawner5testss_61test_wait_for_any_returns_first_completion_even_when_it_fails0s_0Bb_
FN:191,_RNCNvNtNtNtCs2XshHk0aCOj_9paperboat3app18concurrent_spawner5testss_60test_wait_for_all_collects_mixed_success_and_failure_results0B9_
FN:257,_RNCNvNtNtNtCs2XshHk0aCOj_9paperboat3app18concurrent_spawner5testss_61test_wait_for_any_returns_first_completion_even_when_it_fails0B9_
FN:84,_RNvNtNtCs2XshHk0aCOj_9paperboat3app18concurrent_spawner12wait_for_all
FN:119,_RNvNtNtCs2XshHk0aCOj_9paperboat3app18concurrent_spawner12wait_for_any
FN:14,_RNvNtNtCs2XshHk0aCOj_9paperboat3app18concurrent_spawner18create_spawn_error
FN:70,_RNvNtNtCs2XshHk0aCOj_9paperboat3app18concurrent_spawner21extract_role_and_task
FN:167,_RNvNtNtCs2XshHk0aCOj_9paperboat3app18concurrent_spawner22handle_fire_and_forget
FN:131,_RNCNCNvNtNtCs2XshHk0aCOj_9paperboat3app18concurrent_spawner12wait_for_any00B9_
FN:87,_RNCNvNtNtCs2XshHk0aCOj_9paperboat3app18concurrent_spawner12wait_for_all0B7_
FN:122,_RNCNvNtNtCs2XshHk0aCOj_9paperboat3app18concurrent_spawner12wait_for_any0B7_
FN:18,_RNCNvNtNtCs2XshHk0aCOj_9paperboat3app18concurrent_spawner18create_spawn_error0B7_
FN:23,_RNCNvNtNtCs2XshHk0aCOj_9paperboat3app18concurrent_spawner18create_spawn_errors0_0B7_
FN:56,_RNCNvNtNtCs2XshHk0aCOj_9paperboat3app18concurrent_spawner18create_spawn_errors2_0B7_
FN:22,_RNCNvNtNtCs2XshHk0aCOj_9paperboat3app18concurrent_spawner18create_spawn_errors_0B7_
FN:74,_RNCNvNtNtCs2XshHk0aCOj_9paperboat3app18concurrent_spawner21extract_role_and_task0B7_
FN:79,_RNCNvNtNtCs2XshHk0aCOj_9paperboat3app18concurrent_spawner21extract_role_and_tasks0_0B7_
FN:78,_RNCNvNtNtCs2XshHk0aCOj_9paperboat3app18concurrent_spawner21extract_role_and_tasks_0B7_
FNDA:5,_RNvNtNtNtCs2XshHk0aCOj_9paperboat3app18concurrent_spawner5tests12agent_result
FNDA:1,_RNvNtNtNtCs2XshHk0aCOj_9paperboat3app18concurrent_spawner5testss_60test_wait_for_all_collects_mixed_success_and_failure_results
FNDA:1,_RNvNtNtNtCs2XshHk0aCOj_9paperboat3app18concurrent_spawner5testss_61test_wait_for_any_returns_first_completion_even_when_it_fails
FNDA:1,_RNCNCNvNtNtNtCs2XshHk0aCOj_9paperboat3app18concurrent_spawner5testss_60test_wait_for_all_collects_mixed_success_and_failure_results00Bb_
FNDA:3,_RNCNCNvNtNtNtCs2XshHk0aCOj_9paperboat3app18concurrent_spawner5testss_60test_wait_for_all_collects_mixed_success_and_failure_results0s1_0Bb_
FNDA:2,_RNCNCNvNtNtNtCs2XshHk0aCOj_9paperboat3app18concurrent_spawner5testss_60test_wait_for_all_collects_mixed_success_and_failure_results0s2_0Bb_
FNDA:3,_RNCNCNvNtNtNtCs2XshHk0aCOj_9paperboat3app18concurrent_spawner5testss_60test_wait_for_all_collects_mixed_success_and_failure_results0s3_0Bb_
FNDA:1,_RNCNCNvNtNtNtCs2XshHk0aCOj_9paperboat3app18concurrent_spawner5testss_60test_wait_for_all_collects_mixed_success_and_failure_results0s_0Bb_
FNDA:1,_RNCNCNvNtNtNtCs2XshHk0aCOj_9paperboat3app18concurrent_spawner5testss_61test_wait_for_any_returns_first_completion_even_when_it_fails00Bb_
FNDA:1,_RNCNCNvNtNtNtCs2XshHk0aCOj_9paperboat3app18concurrent_spawner5testss_61test_wait_for_any_returns_first_completion_even_when_it_fails0s_0Bb_
FNDA:1,_RNCNvNtNtNtCs2XshHk0aCOj_9paperboat3app18concurrent_spawner5testss_60test_wait_for_all_collects_mixed_success_and_failure_results0B9_
FNDA:1,_RNCNvNtNtNtCs2XshHk0aCOj_9paperboat3app18concurrent_spawner5testss_61test_wait_for_any_returns_first_completion_even_when_it_fails0B9_
FNDA:1,_RNvNtNtCs2XshHk0aCOj_9paperboat3app18concurrent_spawner12wait_for_all
FNDA:1,_RNvNtNtCs2XshHk0aCOj_9paperboat3app18concurrent_spawner12wait_for_any
FNDA:0,_RNvNtNtCs2XshHk0aCOj_9paperboat3app18concurrent_spawner18create_spawn_error
FNDA:0,_RNvNtNtCs2XshHk0aCOj_9paperboat3app18concurrent_spawner21extract_role_and_task
FNDA:0,_RNvNtNtCs2XshHk0aCOj_9paperboat3app18concurrent_spawner22handle_fire_and_forget
FNDA:2,_RNCNCNvNtNtCs2XshHk0aCOj_9paperboat3app18concurrent_spawner12wait_for_any00B9_
FNDA:1,_RNCNvNtNtCs2XshHk0aCOj_9paperboat3app18concurrent_spawner12wait_for_all0B7_
FNDA:1,_RNCNvNtNtCs2XshHk0aCOj_9paperboat3app18concurrent_spawner12wait_for_any0B7_
FNDA:0,_RNCNvNtNtCs2XshHk0aCOj_9paperboat3app18concurrent_spawner18create_spawn_error0B7_
FNDA:0,_RNCNvNtNtCs2XshHk0aCOj_9paperboat3app18concurrent_spawner18create_spawn_errors0_0B7_
FNDA:0,_RNCNvNtNtCs2XshHk0aCOj_9paperboat3app18concurrent_spawner18create_spawn_errors2_0B7_
FNDA:0,_RNCNvNtNtCs2XshHk0aCOj_9paperboat3app18concurrent_spawner18create_spawn_errors_0B7_
FNDA:0,_RNCNvNtNtCs2XshHk0aCOj_9paperboat3app18concurrent_spawner21extract_role_and_task0B7_
FNDA:0,_RNCNvNtNtCs2XshHk0aCOj_9paperboat3app18concurrent_spawner21extract_role_and_tasks0_0B7_
FNDA:0,_RNCNvNtNtCs2XshHk0aCOj_9paperboat3app18concurrent_spawner21extract_role_and_tasks_0B7_
FNF:27
FNH:17
DA:14,0
DA:15,0
DA:16,0
DA:17,0
DA:18,0
DA:19,0
DA:20,0
DA:21,0
DA:22,0
DA:23,0
DA:24,0
DA:26,0
DA:29,0
DA:30,0
DA:31,0
DA:32,0
DA:33,0
DA:34,0
DA:35,0
DA:36,0
DA:37,0
DA:38,0
DA:39,0
DA:40,0
DA:41,0
DA:42,0
DA:43,0
DA:45,0
DA:46,0
DA:49,0
DA:54,0
DA:55,0
DA:56,0
DA:57,0
DA:60,0
DA:61,0
DA:62,0
DA:63,0
DA:64,0
DA:65,0
DA:66,0
DA:67,0
DA:70,0
DA:71,0
DA:72,0
DA:73,0
DA:74,0
DA:75,0
DA:76,0
DA:77,0
DA:78,0
DA:79,0
DA:80,0
DA:81,0
DA:84,1
DA:85,1
DA:86,1
DA:87,1
DA:88,1
DA:90,2
DA:91,2
DA:92,2
DA:93,2
DA:94,2
DA:95,0
DA:96,0
DA:97,0
DA:98,0
DA:99,0
DA:100,0
DA:101,0
DA:102,0
DA:103,0
DA:107,1
DA:108,1
DA:110,0
DA:112,0
DA:115,1
DA:116,1
DA:119,1
DA:120,1
DA:121,1
DA:122,1
DA:123,1
DA:124,0
DA:125,1
DA:127,1
DA:129,2
DA:130,2
DA:131,2
DA:132,2
DA:133,1
DA:134,1
DA:137,0
DA:138,0
DA:139,0
DA:140,0
DA:141,0
DA:142,0
DA:143,0
DA:144,0
DA:145,0
DA:148,1
DA:150,1
DA:152,1
DA:153,1
DA:158,1
DA:159,1
DA:160,1
DA:162,0
DA:164,1
DA:167,0
DA:168,0
DA:169,0
DA:170,0
DA:171,0
DA:172,0
DA:173,0
DA:180,5
DA:181,5
DA:182,5
DA:183,5
DA:184,5
DA:185,5
DA:186,5
DA:187,5
DA:188,5
DA:191,1
DA:192,1
DA:193,1
DA:195,1
DA:196,1
DA:197,1
DA:198,1
DA:199,1
DA:200,1
DA:201,1
DA:202,1
DA:203,1
DA:205,1
DA:206,1
DA:207,1
DA:208,1
DA:209,1
DA:210,1
DA:211,1
DA:212,1
DA:213,1
DA:215,1
DA:216,1
DA:217,1
DA:219,1
DA:221,1
DA:222,1
DA:223,1
DA:224,1
DA:225,1
DA:226,1
DA:227,1
DA:228,1
DA:229,1
DA:230,1
DA:231,1
DA:232,1
DA:234,1
DA:235,1
DA:236,1
DA:238,1
DA:239,3
DA:240,1
DA:241,1
DA:242,1
DA:243,1
DA:244,1
DA:245,2
DA:248,1
DA:249,1
DA:250,1
DA:251,3
DA:252,1
DA:253,1
DA:254,1
DA:257,1
DA:258,1
DA:259,1
DA:261,1
DA:262,1
DA:263,0
DA:264,0
DA:265,0
DA:266,0
DA:267,0
DA:268,0
DA:269,0
DA:271,1
DA:272,1
DA:273,1
DA:274,1
DA:275,1
DA:276,1
DA:277,1
DA:278,1
DA:279,1
DA:281,1
DA:282,1
DA:283,1
DA:285,1
DA:287,1
DA:288,1
DA:289,1
DA:290,1
DA:291,1
DA:292,1
DA:293,1
DA:294,1
DA:295,1
DA:296,1
DA:297,1
DA:298,1
DA:300,1
DA:301,1
DA:302,1
DA:303,1
DA:304,1
DA:307,1
DA:308,1
DA:309,1
DA:310,1
DA:311,1
BRF:0
BRH:0
LF:254
LH:157
end_of_record
SF:/Users/dbmrq/Documents/Programação/Misc/paperboat/src/app/context_generator.rs
FN:12,_RNvMNtNtCs2XshHk0aCOj_9paperboat3app17context_generatorNtB4_3App21generate_task_context
FN:35,_RNCNCNvMNtNtCs2XshHk0aCOj_9paperboat3app17context_generatorNtB8_3App21generate_task_context00Ba_
FN:76,_RNCNCNvMNtNtCs2XshHk0aCOj_9paperboat3app17context_generatorNtB8_3App21generate_task_context0s0_0Ba_
FN:59,_RNCNCNvMNtNtCs2XshHk0aCOj_9paperboat3app17context_generatorNtB8_3App21generate_task_context0s_0Ba_
FN:17,_RNCNvMNtNtCs2XshHk0aCOj_9paperboat3app17context_generatorNtB6_3App21generate_task_context0B8_
FNDA:0,_RNvMNtNtCs2XshHk0aCOj_9paperboat3app17context_generatorNtB4_3App21generate_task_context
FNDA:0,_RNCNCNvMNtNtCs2XshHk0aCOj_9paperboat3app17context_generatorNtB8_3App21generate_task_context00Ba_
FNDA:0,_RNCNCNvMNtNtCs2XshHk0aCOj_9paperboat3app17context_generatorNtB8_3App21generate_task_context0s0_0Ba_
FNDA:0,_RNCNCNvMNtNtCs2XshHk0aCOj_9paperboat3app17context_generatorNtB8_3App21generate_task_context0s_0Ba_
FNDA:0,_RNCNvMNtNtCs2XshHk0aCOj_9paperboat3app17context_generatorNtB6_3App21generate_task_context0B8_
FNF:5
FNH:0
DA:12,0
DA:13,0
DA:14,0
DA:15,0
DA:16,0
DA:17,0
DA:18,0
DA:21,0
DA:24,0
DA:25,0
DA:26,0
DA:27,0
DA:28,0
DA:31,0
DA:32,0
DA:35,0
DA:36,0
DA:38,0
DA:40,0
DA:42,0
DA:44,0
DA:46,0
DA:48,0
DA:51,0
DA:52,0
DA:53,0
DA:54,0
DA:56,0
DA:57,0
DA:58,0
DA:59,0
DA:60,0
DA:62,0
DA:65,0
DA:68,0
DA:69,0
DA:70,0
DA:71,0
DA:73,0
DA:74,0
DA:75,0
DA:76,0
DA:77,0
DA:79,0
DA:82,0
DA:84,0
DA:85,0
DA:86,0
DA:87,0
DA:89,0
DA:90,0
BRF:0
BRH:0
LF:55
LH:0
end_of_record
SF:/Users/dbmrq/Documents/Programação/Misc/paperboat/src/app/decompose.rs
FN:97,_RNCNvMNtNtCs2XshHk0aCOj_9paperboat3app9decomposeNtB6_3App22handle_decompose_inner0B8_
FN:83,_RNCNvMNtNtCs2XshHk0aCOj_9paperboat3app9decomposeNtB6_3App24get_decompose_task_state0B8_
FN:67,_RNCNvMNtNtCs2XshHk0aCOj_9paperboat3app9decomposeNtB6_3App30handle_decompose_with_response0B8_
FN:45,_RNCNvNtNtCs2XshHk0aCOj_9paperboat3app9decompose20finalize_child_tasks0B7_
FN:46,_RNCNvNtNtCs2XshHk0aCOj_9paperboat3app9decompose20finalize_child_taskss_0B7_
FN:97,_RNvMNtNtCs2XshHk0aCOj_9paperboat3app9decomposeNtB4_3App22handle_decompose_inner
FN:83,_RNvMNtNtCs2XshHk0aCOj_9paperboat3app9decomposeNtB4_3App24get_decompose_task_state
FN:63,_RNvMNtNtCs2XshHk0aCOj_9paperboat3app9decomposeNtB4_3App30handle_decompose_with_response
FN:40,_RNvNtNtCs2XshHk0aCOj_9paperboat3app9decompose20finalize_child_tasks
FNDA:4,_RNCNvMNtNtCs2XshHk0aCOj_9paperboat3app9decomposeNtB6_3App22handle_decompose_inner0B8_
FNDA:4,_RNCNvMNtNtCs2XshHk0aCOj_9paperboat3app9decomposeNtB6_3App24get_decompose_task_state0B8_
FNDA:4,_RNCNvMNtNtCs2XshHk0aCOj_9paperboat3app9decomposeNtB6_3App30handle_decompose_with_response0B8_
FNDA:8,_RNCNvNtNtCs2XshHk0aCOj_9paperboat3app9decompose20finalize_child_tasks0B7_
FNDA:0,_RNCNvNtNtCs2XshHk0aCOj_9paperboat3app9decompose20finalize_child_taskss_0B7_
FNDA:4,_RNvMNtNtCs2XshHk0aCOj_9paperboat3app9decomposeNtB4_3App22handle_decompose_inner
FNDA:4,_RNvMNtNtCs2XshHk0aCOj_9paperboat3app9decomposeNtB4_3App24get_decompose_task_state
FNDA:4,_RNvMNtNtCs2XshHk0aCOj_9paperboat3app9decomposeNtB4_3App30handle_decompose_with_response
FNDA:4,_RNvNtNtCs2XshHk0aCOj_9paperboat3app9decompose20finalize_child_tasks
FNF:9
FNH:8
DA:40,4
DA:42,4
DA:43,4
DA:44,4
DA:45,8
DA:46,4
DA:47,4
DA:49,4
DA:50,4
DA:51,0
DA:52,0
DA:53,0
DA:54,0
DA:55,0
DA:56,0
DA:57,0
DA:58,4
DA:59,4
DA:63,4
DA:64,4
DA:65,4
DA:66,4
DA:67,4
DA:68,4
DA:71,4
DA:73,4
DA:74,4
DA:75,4
DA:77,0
DA:78,0
DA:80,4
DA:83,4
DA:84,4
DA:85,4
DA:86,4
DA:87,4
DA:89,4
DA:90,4
DA:91,4
DA:92,4
DA:93,4
DA:94,4
DA:97,4
DA:98,4
DA:99,4
DA:100,4
DA:103,0
DA:107,4
DA:108,4
DA:109,4
DA:110,4
DA:111,4
DA:113,4
DA:114,4
DA:115,4
DA:120,4
DA:124,4
DA:125,4
DA:126,4
DA:127,4
DA:128,4
DA:132,4
DA:133,4
DA:134,4
DA:135,4
DA:136,4
DA:139,4
DA:140,4
DA:141,0
DA:143,0
DA:148,0
DA:149,0
DA:150,0
DA:151,0
DA:152,0
DA:156,0
DA:158,0
DA:159,0
DA:164,4
DA:165,4
DA:166,4
DA:167,4
DA:171,4
DA:173,4
DA:174,4
DA:175,4
DA:176,4
DA:177,4
DA:179,0
DA:180,4
DA:182,4
DA:186,4
DA:191,4
DA:192,4
DA:193,4
DA:194,4
DA:195,4
DA:197,4
DA:199,4
DA:200,4
DA:201,4
DA:203,0
DA:204,0
DA:206,0
DA:211,0
DA:212,0
DA:216,0
DA:218,0
DA:219,0
DA:224,4
DA:225,0
DA:226,4
DA:230,4
DA:231,4
DA:235,4
DA:236,4
DA:237,4
DA:240,4
DA:241,4
DA:242,4
DA:243,0
DA:244,0
DA:245,0
DA:247,0
DA:248,0
DA:249,0
DA:250,0
DA:254,4
DA:255,4
DA:256,4
DA:257,4
DA:258,4
DA:261,4
DA:262,4
DA:263,4
DA:264,4
DA:266,4
DA:267,4
DA:268,4
DA:270,0
DA:271,0
DA:273,0
DA:274,0
DA:275,0
DA:279,0
DA:282,0
DA:283,0
DA:284,0
DA:285,0
DA:286,0
DA:291,0
DA:292,0
DA:295,0
DA:296,0
DA:301,4
DA:302,0
DA:303,4
DA:307,4
DA:308,4
DA:309,4
DA:310,0
DA:315,4
DA:316,4
DA:320,4
DA:322,4
DA:323,4
DA:324,4
DA:326,4
DA:327,4
DA:331,0
DA:334,0
DA:338,0
DA:342,4
DA:344,4
DA:346,4
BRF:0
BRH:0
LF:180
LH:122
end_of_record
SF:/Users/dbmrq/Documents/Programação/Misc/paperboat/src/app/mod.rs
FN:173,_RNCNCNvMNtCs2XshHk0aCOj_9paperboat3appNtB6_3App28with_log_manager_and_timeout00B8_
FN:324,_RNCNvMNtCs2XshHk0aCOj_9paperboat3appNtB4_3App12setup_socket0B6_
FN:117,_RNCNvMNtCs2XshHk0aCOj_9paperboat3appNtB4_3App16with_log_manager0B6_
FN:549,_RNCNvMNtCs2XshHk0aCOj_9paperboat3appNtB4_3App24build_summary_with_notes0B6_
FN:143,_RNCNvMNtCs2XshHk0aCOj_9paperboat3appNtB4_3App28with_log_manager_and_timeout0B6_
FN:421,_RNvMNtCs2XshHk0aCOj_9paperboat3appNtB2_3App12model_config
FN:324,_RNvMNtCs2XshHk0aCOj_9paperboat3appNtB2_3App12setup_socket
FN:500,_RNvMNtCs2XshHk0aCOj_9paperboat3appNtB2_3App12task_manager
FN:112,_RNvMNtCs2XshHk0aCOj_9paperboat3appNtB2_3App16with_log_manager
FN:478,_RNvMNtCs2XshHk0aCOj_9paperboat3appNtB2_3App19poll_config_updates
FN:549,_RNvMNtCs2XshHk0aCOj_9paperboat3appNtB2_3App24build_summary_with_notes
FN:431,_RNvMNtCs2XshHk0aCOj_9paperboat3appNtB2_3App25set_config_update_channel
FN:137,_RNvMNtCs2XshHk0aCOj_9paperboat3appNtB2_3App28with_log_manager_and_timeout
FN:347,_RNCNvMNtCs2XshHk0aCOj_9paperboat3appNtB4_3App19start_worker_router0B6_
FN:377,_RNCNvMNtCs2XshHk0aCOj_9paperboat3appNtB4_3App19start_worker_routers_0B6_
FN:563,_RNCNvMNtCs2XshHk0aCOj_9paperboat3appNtB4_3App44build_summary_with_notes_and_suggested_tasks0B6_
FN:508,_RNCNvMNtCs2XshHk0aCOj_9paperboat3appNtB4_3App8shutdown0B6_
FN:411,_RNvMNtCs2XshHk0aCOj_9paperboat3appNtB2_3App14cleanup_socket
FN:341,_RNvMNtCs2XshHk0aCOj_9paperboat3appNtB2_3App19start_worker_router
FN:242,_RNvMNtCs2XshHk0aCOj_9paperboat3appNtB2_3App20with_mock_transports
FN:445,_RNvMNtCs2XshHk0aCOj_9paperboat3appNtB2_3App25apply_model_config_update
FN:284,_RNvMNtCs2XshHk0aCOj_9paperboat3appNtB2_3App32with_mock_transports_and_tool_rx
FN:559,_RNvMNtCs2XshHk0aCOj_9paperboat3appNtB2_3App44build_summary_with_notes_and_suggested_tasks
FN:508,_RNvMNtCs2XshHk0aCOj_9paperboat3appNtB2_3App8shutdown
FNDA:0,_RNCNCNvMNtCs2XshHk0aCOj_9paperboat3appNtB6_3App28with_log_manager_and_timeout00B8_
FNDA:0,_RNCNvMNtCs2XshHk0aCOj_9paperboat3appNtB4_3App12setup_socket0B6_
FNDA:0,_RNCNvMNtCs2XshHk0aCOj_9paperboat3appNtB4_3App16with_log_manager0B6_
FNDA:0,_RNCNvMNtCs2XshHk0aCOj_9paperboat3appNtB4_3App24build_summary_with_notes0B6_
FNDA:0,_RNCNvMNtCs2XshHk0aCOj_9paperboat3appNtB4_3App28with_log_manager_and_timeout0B6_
FNDA:0,_RNvMNtCs2XshHk0aCOj_9paperboat3appNtB2_3App12model_config
FNDA:0,_RNvMNtCs2XshHk0aCOj_9paperboat3appNtB2_3App12setup_socket
FNDA:0,_RNvMNtCs2XshHk0aCOj_9paperboat3appNtB2_3App12task_manager
FNDA:0,_RNvMNtCs2XshHk0aCOj_9paperboat3appNtB2_3App16with_log_manager
FNDA:0,_RNvMNtCs2XshHk0aCOj_9paperboat3appNtB2_3App19poll_config_updates
FNDA:0,_RNvMNtCs2XshHk0aCOj_9paperboat3appNtB2_3App24build_summary_with_notes
FNDA:0,_RNvMNtCs2XshHk0aCOj_9paperboat3appNtB2_3App25set_config_update_channel
FNDA:0,_RNvMNtCs2XshHk0aCOj_9paperboat3appNtB2_3App28with_log_manager_and_timeout
FNDA:0,_RNCNvMNtCs2XshHk0aCOj_9paperboat3appNtB4_3App19start_worker_router0B6_
FNDA:0,_RNCNvMNtCs2XshHk0aCOj_9paperboat3appNtB4_3App19start_worker_routers_0B6_
FNDA:60,_RNCNvMNtCs2XshHk0aCOj_9paperboat3appNtB4_3App44build_summary_with_notes_and_suggested_tasks0B6_
FNDA:39,_RNCNvMNtCs2XshHk0aCOj_9paperboat3appNtB4_3App8shutdown0B6_
FNDA:40,_RNvMNtCs2XshHk0aCOj_9paperboat3appNtB2_3App14cleanup_socket
FNDA:43,_RNvMNtCs2XshHk0aCOj_9paperboat3appNtB2_3App19start_worker_router
FNDA:2,_RNvMNtCs2XshHk0aCOj_9paperboat3appNtB2_3App20with_mock_transports
FNDA:0,_RNvMNtCs2XshHk0aCOj_9paperboat3appNtB2_3App25apply_model_config_update
FNDA:45,_RNvMNtCs2XshHk0aCOj_9paperboat3appNtB2_3App32with_mock_transports_and_tool_rx
FNDA:60,_RNvMNtCs2XshHk0aCOj_9paperboat3appNtB2_3App44build_summary_with_notes_and_suggested_tasks
FNDA:39,_RNvMNtCs2XshHk0aCOj_9paperboat3appNtB2_3App8shutdown
FNF:24
FNH:8
DA:112,0
DA:113,0
DA:114,0
DA:115,0
DA:116,0
DA:117,0
DA:118,0
DA:119,0
DA:120,0
DA:121,0
DA:122,0
DA:123,0
DA:124,0
DA:125,0
DA:126,0
DA:137,0
DA:138,0
DA:139,0
DA:140,0
DA:141,0
DA:142,0
DA:143,0
DA:145,0
DA:147,0
DA:149,0
DA:154,0
DA:155,0
DA:160,0
DA:163,0
DA:164,0
DA:165,0
DA:166,0
DA:169,0
DA:170,0
DA:173,0
DA:176,0
DA:177,0
DA:178,0
DA:179,0
DA:180,0
DA:181,0
DA:184,0
DA:185,0
DA:186,0
DA:187,0
DA:188,0
DA:189,0
DA:192,0
DA:193,0
DA:194,0
DA:195,0
DA:196,0
DA:197,0
DA:199,0
DA:202,0
DA:203,0
DA:205,0
DA:207,0
DA:208,0
DA:209,0
DA:212,0
DA:213,0
DA:214,0
DA:215,0
DA:216,0
DA:217,0
DA:218,0
DA:219,0
DA:220,0
DA:221,0
DA:222,0
DA:223,0
DA:224,0
DA:225,0
DA:226,0
DA:227,0
DA:228,0
DA:229,0
DA:230,0
DA:231,0
DA:232,0
DA:233,0
DA:234,0
DA:242,2
DA:243,2
DA:244,2
DA:245,2
DA:246,2
DA:247,2
DA:248,2
DA:249,2
DA:250,2
DA:252,2
DA:253,2
DA:254,2
DA:255,2
DA:256,2
DA:257,2
DA:258,2
DA:259,2
DA:260,2
DA:261,2
DA:262,2
DA:263,2
DA:264,2
DA:265,2
DA:266,2
DA:267,2
DA:268,2
DA:269,2
DA:270,2
DA:271,2
DA:272,2
DA:273,2
DA:274,2
DA:275,2
DA:276,2
DA:277,2
DA:284,45
DA:285,45
DA:286,45
DA:287,45
DA:288,45
DA:289,45
DA:290,45
DA:291,45
DA:292,45
DA:293,45
DA:295,45
DA:296,45
DA:297,45
DA:298,45
DA:299,45
DA:300,45
DA:301,45
DA:302,45
DA:303,45
DA:304,45
DA:305,45
DA:306,45
DA:307,45
DA:308,45
DA:309,45
DA:310,45
DA:311,45
DA:312,45
DA:313,45
DA:314,45
DA:315,45
DA:316,45
DA:317,45
DA:318,45
DA:319,45
DA:320,45
DA:324,0
DA:325,0
DA:327,0
DA:328,0
DA:329,0
DA:332,0
DA:334,0
DA:335,0
DA:341,43
DA:342,43
DA:345,43
DA:346,0
DA:347,0
DA:348,0
DA:349,0
DA:350,0
DA:351,0
DA:352,0
DA:354,0
DA:355,0
DA:356,0
DA:359,0
DA:361,0
DA:362,0
DA:364,0
DA:365,0
DA:366,0
DA:367,0
DA:368,0
DA:371,43
DA:375,43
DA:376,0
DA:377,0
DA:378,0
DA:379,0
DA:380,0
DA:381,0
DA:382,0
DA:384,0
DA:385,0
DA:386,0
DA:389,0
DA:391,0
DA:392,0
DA:394,0
DA:395,0
DA:396,0
DA:397,0
DA:400,43
DA:407,43
DA:408,43
DA:411,40
DA:412,40
DA:413,40
DA:414,40
DA:421,0
DA:422,0
DA:423,0
DA:431,0
DA:432,0
DA:433,0
DA:434,0
DA:435,0
DA:436,0
DA:445,0
DA:449,0
DA:450,0
DA:451,0
DA:452,0
DA:453,0
DA:454,0
DA:455,0
DA:456,0
DA:457,0
DA:458,0
DA:459,0
DA:460,0
DA:461,0
DA:462,0
DA:463,0
DA:464,0
DA:465,0
DA:466,0
DA:467,0
DA:468,0
DA:469,0
DA:470,0
DA:478,0
DA:480,0
DA:481,0
DA:482,0
DA:483,0
DA:484,0
DA:485,0
DA:487,0
DA:491,0
DA:492,0
DA:493,0
DA:494,0
DA:500,0
DA:501,0
DA:502,0
DA:508,39
DA:509,39
DA:512,39
DA:513,0
DA:514,39
DA:517,39
DA:518,0
DA:519,0
DA:520,39
DA:524,39
DA:525,39
DA:526,39
DA:527,39
DA:530,39
DA:531,0
DA:532,39
DA:533,39
DA:534,0
DA:535,39
DA:536,39
DA:537,0
DA:538,39
DA:540,39
DA:541,39
DA:542,39
DA:549,0
DA:550,0
DA:551,0
DA:552,0
DA:559,60
DA:560,60
DA:561,60
DA:562,60
DA:563,60
DA:564,60
DA:565,60
DA:568,60
DA:569,0
DA:570,0
DA:571,60
DA:574,60
DA:575,0
DA:576,0
DA:577,0
DA:580,0
DA:581,0
DA:582,0
DA:583,0
DA:584,0
DA:585,0
DA:586,0
DA:587,0
DA:588,0
DA:589,0
DA:591,60
DA:593,60
DA:594,60
BRF:0
BRH:0
LF:322
LH:117
end_of_record
SF:/Users/dbmrq/Documents/Programação/Misc/paperboat/src/app/orchestrator.rs
FN:84,_RNCNCNCNvMs_NtNtCs2XshHk0aCOj_9paperboat3app12orchestratorNtBc_3App18spawn_orchestrator000Be_
FN:343,_RNCNCNCNvMs_NtNtCs2XshHk0aCOj_9paperboat3app12orchestratorNtBc_3App33run_orchestrator_with_writer_impl000Be_
FN:591,_RNCNCNCNvMs_NtNtCs2XshHk0aCOj_9paperboat3app12orchestratorNtBc_3App33run_orchestrator_with_writer_impl00s4_0Be_
FN:625,_RNCNCNCNvMs_NtNtCs2XshHk0aCOj_9paperboat3app12orchestratorNtBc_3App33run_orchestrator_with_writer_impl00s5_0Be_
FN:868,_RNCNCNvMs_NtNtCs2XshHk0aCOj_9paperboat3app12orchestratorNtBa_3App17handle_list_tasks00Bc_
FN:990,_RNCNCNvMs_NtNtCs2XshHk0aCOj_9paperboat3app12orchestratorNtBa_3App17handle_skip_tasks00Bc_
FN:746,_RNCNCNvMs_NtNtCs2XshHk0aCOj_9paperboat3app12orchestratorNtBa_3App24resolve_task_description00Bc_
FN:757,_RNCNCNvMs_NtNtCs2XshHk0aCOj_9paperboat3app12orchestratorNtBa_3App24resolve_task_description0s0_0Bc_
FN:754,_RNCNCNvMs_NtNtCs2XshHk0aCOj_9paperboat3app12orchestratorNtBa_3App24resolve_task_description0s_0Bc_
FN:1090,_RNCNCNvMs_NtNtCs2XshHk0aCOj_9paperboat3app12orchestratorNtBa_3App25check_completion_blockers00Bc_
FN:1106,_RNCNCNvMs_NtNtCs2XshHk0aCOj_9paperboat3app12orchestratorNtBa_3App25check_completion_blockers0s0_0Bc_
FN:1091,_RNCNCNvMs_NtNtCs2XshHk0aCOj_9paperboat3app12orchestratorNtBa_3App25check_completion_blockers0s_0Bc_
FN:1191,_RNCNCNvMs_NtNtCs2XshHk0aCOj_9paperboat3app12orchestratorNtBa_3App26process_sequential_results00Bc_
FN:1215,_RNCNCNvMs_NtNtCs2XshHk0aCOj_9paperboat3app12orchestratorNtBa_3App26process_sequential_results0s0_0Bc_
FN:1192,_RNCNCNvMs_NtNtCs2XshHk0aCOj_9paperboat3app12orchestratorNtBa_3App26process_sequential_results0s_0Bc_
FN:262,_RNCNCNvMs_NtNtCs2XshHk0aCOj_9paperboat3app12orchestratorNtBa_3App38create_orchestrator_session_with_retry00Bc_
FN:722,_RNCNvMs_NtNtCs2XshHk0aCOj_9paperboat3app12orchestratorNtB8_3App14get_task_state0Ba_
FN:851,_RNCNvMs_NtNtCs2XshHk0aCOj_9paperboat3app12orchestratorNtB8_3App17handle_list_tasks0Ba_
FN:957,_RNCNvMs_NtNtCs2XshHk0aCOj_9paperboat3app12orchestratorNtB8_3App17handle_skip_tasks0Ba_
FN:809,_RNCNvMs_NtNtCs2XshHk0aCOj_9paperboat3app12orchestratorNtB8_3App18handle_create_task0Ba_
FN:72,_RNCNvMs_NtNtCs2XshHk0aCOj_9paperboat3app12orchestratorNtB8_3App18spawn_orchestrator0Ba_
FN:742,_RNCNvMs_NtNtCs2XshHk0aCOj_9paperboat3app12orchestratorNtB8_3App24resolve_task_description0Ba_
FN:1083,_RNCNvMs_NtNtCs2XshHk0aCOj_9paperboat3app12orchestratorNtB8_3App25check_completion_blockers0Ba_
FN:768,_RNCNvMs_NtNtCs2XshHk0aCOj_9paperboat3app12orchestratorNtB8_3App25resolve_task_id_for_agent0Ba_
FN:922,_RNCNvMs_NtNtCs2XshHk0aCOj_9paperboat3app12orchestratorNtB8_3App26handle_report_human_action0Ba_
FN:1141,_RNCNvMs_NtNtCs2XshHk0aCOj_9paperboat3app12orchestratorNtB8_3App26process_concurrent_results0Ba_
FN:1190,_RNCNvMs_NtNtCs2XshHk0aCOj_9paperboat3app12orchestratorNtB8_3App26process_sequential_results0Ba_
FN:275,_RNCNvMs_NtNtCs2XshHk0aCOj_9paperboat3app12orchestratorNtB8_3App28run_orchestrator_with_writer0Ba_
FN:284,_RNCNvMs_NtNtCs2XshHk0aCOj_9paperboat3app12orchestratorNtB8_3App33run_orchestrator_with_writer_impl0Ba_
FN:177,_RNCNvMs_NtNtCs2XshHk0aCOj_9paperboat3app12orchestratorNtB8_3App38create_orchestrator_session_with_retry0Ba_
FN:62,_RNvMNtNtCs2XshHk0aCOj_9paperboat3app12orchestratorNtB2_19OrchestratorSession12take_tool_rx
FN:722,_RNvMs_NtNtCs2XshHk0aCOj_9paperboat3app12orchestratorNtB6_3App14get_task_state
FN:846,_RNvMs_NtNtCs2XshHk0aCOj_9paperboat3app12orchestratorNtB6_3App17handle_list_tasks
FN:951,_RNvMs_NtNtCs2XshHk0aCOj_9paperboat3app12orchestratorNtB6_3App17handle_skip_tasks
FN:802,_RNvMs_NtNtCs2XshHk0aCOj_9paperboat3app12orchestratorNtB6_3App18handle_create_task
FN:72,_RNvMs_NtNtCs2XshHk0aCOj_9paperboat3app12orchestratorNtB6_3App18spawn_orchestrator
FN:1122,_RNvMs_NtNtCs2XshHk0aCOj_9paperboat3app12orchestratorNtB6_3App20validate_agent_specs
FN:738,_RNvMs_NtNtCs2XshHk0aCOj_9paperboat3app12orchestratorNtB6_3App24resolve_task_description
FN:1083,_RNvMs_NtNtCs2XshHk0aCOj_9paperboat3app12orchestratorNtB6_3App25check_completion_blockers
FN:768,_RNvMs_NtNtCs2XshHk0aCOj_9paperboat3app12orchestratorNtB6_3App25resolve_task_id_for_agent
FN:916,_RNvMs_NtNtCs2XshHk0aCOj_9paperboat3app12orchestratorNtB6_3App26handle_report_human_action
FN:1138,_RNvMs_NtNtCs2XshHk0aCOj_9paperboat3app12orchestratorNtB6_3App26process_concurrent_results
FN:1186,_RNvMs_NtNtCs2XshHk0aCOj_9paperboat3app12orchestratorNtB6_3App26process_sequential_results
FN:1229,_RNvMs_NtNtCs2XshHk0aCOj_9paperboat3app12orchestratorNtB6_3App26resolve_orchestrator_model
FN:270,_RNvMs_NtNtCs2XshHk0aCOj_9paperboat3app12orchestratorNtB6_3App28run_orchestrator_with_writer
FN:280,_RNvMs_NtNtCs2XshHk0aCOj_9paperboat3app12orchestratorNtB6_3App33run_orchestrator_with_writer_impl
FN:173,_RNvMs_NtNtCs2XshHk0aCOj_9paperboat3app12orchestratorNtB6_3App38create_orchestrator_session_with_retry
FNDA:0,_RNCNCNCNvMs_NtNtCs2XshHk0aCOj_9paperboat3app12orchestratorNtBc_3App18spawn_orchestrator000Be_
FNDA:329,_RNCNCNCNvMs_NtNtCs2XshHk0aCOj_9paperboat3app12orchestratorNtBc_3App33run_orchestrator_with_writer_impl000Be_
FNDA:45,_RNCNCNCNvMs_NtNtCs2XshHk0aCOj_9paperboat3app12orchestratorNtBc_3App33run_orchestrator_with_writer_impl00s4_0Be_
FNDA:0,_RNCNCNCNvMs_NtNtCs2XshHk0aCOj_9paperboat3app12orchestratorNtBc_3App33run_orchestrator_with_writer_impl00s5_0Be_
FNDA:0,_RNCNCNvMs_NtNtCs2XshHk0aCOj_9paperboat3app12orchestratorNtBa_3App17handle_list_tasks00Bc_
FNDA:1,_RNCNCNvMs_NtNtCs2XshHk0aCOj_9paperboat3app12orchestratorNtBa_3App17handle_skip_tasks00Bc_
FNDA:0,_RNCNCNvMs_NtNtCs2XshHk0aCOj_9paperboat3app12orchestratorNtBa_3App24resolve_task_description00Bc_
FNDA:0,_RNCNCNvMs_NtNtCs2XshHk0aCOj_9paperboat3app12orchestratorNtBa_3App24resolve_task_description0s0_0Bc_
FNDA:6,_RNCNCNvMs_NtNtCs2XshHk0aCOj_9paperboat3app12orchestratorNtBa_3App24resolve_task_description0s_0Bc_
FNDA:83,_RNCNCNvMs_NtNtCs2XshHk0aCOj_9paperboat3app12orchestratorNtBa_3App25check_completion_blockers00Bc_
FNDA:3,_RNCNCNvMs_NtNtCs2XshHk0aCOj_9paperboat3app12orchestratorNtBa_3App25check_completion_blockers0s0_0Bc_
FNDA:3,_RNCNCNvMs_NtNtCs2XshHk0aCOj_9paperboat3app12orchestratorNtBa_3App25check_completion_blockers0s_0Bc_
FNDA:65,_RNCNCNvMs_NtNtCs2XshHk0aCOj_9paperboat3app12orchestratorNtBa_3App26process_sequential_results00Bc_
FNDA:120,_RNCNCNvMs_NtNtCs2XshHk0aCOj_9paperboat3app12orchestratorNtBa_3App26process_sequential_results0s0_0Bc_
FNDA:65,_RNCNCNvMs_NtNtCs2XshHk0aCOj_9paperboat3app12orchestratorNtBa_3App26process_sequential_results0s_0Bc_
FNDA:0,_RNCNCNvMs_NtNtCs2XshHk0aCOj_9paperboat3app12orchestratorNtBa_3App38create_orchestrator_session_with_retry00Bc_
FNDA:95,_RNCNvMs_NtNtCs2XshHk0aCOj_9paperboat3app12orchestratorNtB8_3App14get_task_state0Ba_
FNDA:0,_RNCNvMs_NtNtCs2XshHk0aCOj_9paperboat3app12orchestratorNtB8_3App17handle_list_tasks0Ba_
FNDA:35,_RNCNvMs_NtNtCs2XshHk0aCOj_9paperboat3app12orchestratorNtB8_3App17handle_skip_tasks0Ba_
FNDA:0,_RNCNvMs_NtNtCs2XshHk0aCOj_9paperboat3app12orchestratorNtB8_3App18handle_create_task0Ba_
FNDA:46,_RNCNvMs_NtNtCs2XshHk0aCOj_9paperboat3app12orchestratorNtB8_3App18spawn_orchestrator0Ba_
FNDA:69,_RNCNvMs_NtNtCs2XshHk0aCOj_9paperboat3app12orchestratorNtB8_3App24resolve_task_description0Ba_
FNDA:44,_RNCNvMs_NtNtCs2XshHk0aCOj_9paperboat3app12orchestratorNtB8_3App25check_completion_blockers0Ba_
FNDA:65,_RNCNvMs_NtNtCs2XshHk0aCOj_9paperboat3app12orchestratorNtB8_3App25resolve_task_id_for_agent0Ba_
FNDA:0,_RNCNvMs_NtNtCs2XshHk0aCOj_9paperboat3app12orchestratorNtB8_3App26handle_report_human_action0Ba_
FNDA:0,_RNCNvMs_NtNtCs2XshHk0aCOj_9paperboat3app12orchestratorNtB8_3App26process_concurrent_results0Ba_
FNDA:60,_RNCNvMs_NtNtCs2XshHk0aCOj_9paperboat3app12orchestratorNtB8_3App26process_sequential_results0Ba_
FNDA:46,_RNCNvMs_NtNtCs2XshHk0aCOj_9paperboat3app12orchestratorNtB8_3App28run_orchestrator_with_writer0Ba_
FNDA:46,_RNCNvMs_NtNtCs2XshHk0aCOj_9paperboat3app12orchestratorNtB8_3App33run_orchestrator_with_writer_impl0Ba_
FNDA:46,_RNCNvMs_NtNtCs2XshHk0aCOj_9paperboat3app12orchestratorNtB8_3App38create_orchestrator_session_with_retry0Ba_
FNDA:46,_RNvMNtNtCs2XshHk0aCOj_9paperboat3app12orchestratorNtB2_19OrchestratorSession12take_tool_rx
FNDA:95,_RNvMs_NtNtCs2XshHk0aCOj_9paperboat3app12orchestratorNtB6_3App14get_task_state
FNDA:0,_RNvMs_NtNtCs2XshHk0aCOj_9paperboat3app12orchestratorNtB6_3App17handle_list_tasks
FNDA:35,_RNvMs_NtNtCs2XshHk0aCOj_9paperboat3app12orchestratorNtB6_3App17handle_skip_tasks
FNDA:0,_RNvMs_NtNtCs2XshHk0aCOj_9paperboat3app12orchestratorNtB6_3App18handle_create_task
FNDA:46,_RNvMs_NtNtCs2XshHk0aCOj_9paperboat3app12orchestratorNtB6_3App18spawn_orchestrator
FNDA:60,_RNvMs_NtNtCs2XshHk0aCOj_9paperboat3app12orchestratorNtB6_3App20validate_agent_specs
FNDA:69,_RNvMs_NtNtCs2XshHk0aCOj_9paperboat3app12orchestratorNtB6_3App24resolve_task_description
FNDA:44,_RNvMs_NtNtCs2XshHk0aCOj_9paperboat3app12orchestratorNtB6_3App25check_completion_blockers
FNDA:65,_RNvMs_NtNtCs2XshHk0aCOj_9paperboat3app12orchestratorNtB6_3App25resolve_task_id_for_agent
FNDA:0,_RNvMs_NtNtCs2XshHk0aCOj_9paperboat3app12orchestratorNtB6_3App26handle_report_human_action
FNDA:0,_RNvMs_NtNtCs2XshHk0aCOj_9paperboat3app12orchestratorNtB6_3App26process_concurrent_results
FNDA:60,_RNvMs_NtNtCs2XshHk0aCOj_9paperboat3app12orchestratorNtB6_3App26process_sequential_results
FNDA:46,_RNvMs_NtNtCs2XshHk0aCOj_9paperboat3app12orchestratorNtB6_3App26resolve_orchestrator_model
FNDA:46,_RNvMs_NtNtCs2XshHk0aCOj_9paperboat3app12orchestratorNtB6_3App28run_orchestrator_with_writer
FNDA:46,_RNvMs_NtNtCs2XshHk0aCOj_9paperboat3app12orchestratorNtB6_3App33run_orchestrator_with_writer_impl
FNDA:46,_RNvMs_NtNtCs2XshHk0aCOj_9paperboat3app12orchestratorNtB6_3App38create_orchestrator_session_with_retry
FNF:47
FNH:33
DA:62,46
DA:63,46
DA:64,46
DA:72,46
DA:84,0
DA:85,0
DA:86,0
DA:164,46
DA:173,46
DA:174,46
DA:175,46
DA:176,46
DA:177,46
DA:180,46
DA:181,46
DA:184,46
DA:186,46
DA:187,46
DA:188,46
DA:191,46
DA:195,46
DA:196,46
DA:197,46
DA:199,46
DA:200,46
DA:201,46
DA:202,0
DA:205,0
DA:208,46
DA:209,46
DA:211,0
DA:213,0
DA:214,0
DA:218,0
DA:219,0
DA:220,0
DA:222,0
DA:223,0
DA:225,0
DA:226,0
DA:229,0
DA:234,0
DA:237,0
DA:238,0
DA:239,0
DA:240,0
DA:243,0
DA:244,0
DA:246,0
DA:248,0
DA:251,0
DA:261,0
DA:262,0
DA:263,0
DA:267,46
DA:270,46
DA:271,46
DA:272,46
DA:273,46
DA:274,46
DA:275,46
DA:276,46
DA:280,46
DA:281,46
DA:282,46
DA:283,46
DA:284,46
DA:343,329
DA:344,329
DA:345,0
DA:346,329
DA:348,0
DA:591,45
DA:625,0
DA:715,43
DA:722,95
DA:723,95
DA:724,95
DA:725,95
DA:726,95
DA:728,95
DA:729,95
DA:730,95
DA:731,95
DA:732,95
DA:733,95
DA:738,69
DA:739,69
DA:740,69
DA:741,69
DA:742,69
DA:743,69
DA:744,6
DA:745,6
DA:746,0
DA:747,0
DA:750,0
DA:752,0
DA:753,0
DA:754,6
DA:757,63
DA:759,69
DA:768,65
DA:770,65
DA:771,6
DA:772,6
DA:773,6
DA:774,0
DA:775,0
DA:778,0
DA:780,0
DA:781,59
DA:784,59
DA:785,59
DA:786,59
DA:787,18
DA:790,0
DA:792,18
DA:793,41
DA:794,0
DA:796,41
DA:797,65
DA:802,0
DA:803,0
DA:804,0
DA:805,0
DA:806,0
DA:807,0
DA:808,0
DA:809,0
DA:810,0
DA:811,0
DA:813,0
DA:814,0
DA:815,0
DA:818,0
DA:825,0
DA:827,0
DA:828,0
DA:829,0
DA:834,0
DA:836,0
DA:837,0
DA:838,0
DA:840,0
DA:841,0
DA:846,0
DA:847,0
DA:848,0
DA:849,0
DA:850,0
DA:851,0
DA:854,0
DA:855,0
DA:856,0
DA:857,0
DA:858,0
DA:859,0
DA:861,0
DA:862,0
DA:863,0
DA:866,0
DA:867,0
DA:868,0
DA:869,0
DA:870,0
DA:871,0
DA:872,0
DA:873,0
DA:874,0
DA:875,0
DA:876,0
DA:879,0
DA:880,0
DA:882,0
DA:885,0
DA:886,0
DA:887,0
DA:888,0
DA:889,0
DA:890,0
DA:891,0
DA:893,0
DA:898,0
DA:901,0
DA:902,0
DA:903,0
DA:904,0
DA:906,0
DA:908,0
DA:910,0
DA:911,0
DA:916,0
DA:917,0
DA:918,0
DA:919,0
DA:920,0
DA:921,0
DA:922,0
DA:923,0
DA:924,0
DA:925,0
DA:926,0
DA:927,0
DA:928,0
DA:932,0
DA:933,0
DA:936,0
DA:937,0
DA:938,0
DA:939,0
DA:941,0
DA:942,0
DA:943,0
DA:945,0
DA:946,0
DA:951,35
DA:952,35
DA:953,35
DA:954,35
DA:955,35
DA:956,35
DA:957,35
DA:960,35
DA:961,35
DA:962,35
DA:963,35
DA:964,35
DA:965,35
DA:966,35
DA:974,35
DA:975,35
DA:979,35
DA:980,62
DA:981,62
DA:982,62
DA:983,62
DA:985,62
DA:987,55
DA:988,55
DA:989,55
DA:990,55
DA:992,55
DA:993,55
DA:998,55
DA:1001,0
DA:1004,0
DA:1005,0
DA:1008,7
DA:1011,7
DA:1012,7
DA:1017,0
DA:1025,0
DA:1026,0
DA:1027,0
DA:1031,0
DA:1032,0
DA:1033,0
DA:1038,35
DA:1039,35
DA:1041,35
DA:1042,29
DA:1045,29
DA:1047,29
DA:1048,29
DA:1049,29
DA:1050,29
DA:1051,29
DA:1052,6
DA:1053,0
DA:1056,0
DA:1057,0
DA:1059,0
DA:1060,0
DA:1061,0
DA:1062,0
DA:1063,0
DA:1065,6
DA:1066,6
DA:1067,6
DA:1068,6
DA:1069,6
DA:1070,6
DA:1073,35
DA:1074,35
DA:1075,35
DA:1077,35
DA:1078,35
DA:1083,44
DA:1086,44
DA:1087,44
DA:1088,44
DA:1089,44
DA:1090,83
DA:1091,44
DA:1092,44
DA:1095,44
DA:1096,42
DA:1097,2
DA:1099,2
DA:1101,0
DA:1104,2
DA:1105,2
DA:1106,3
DA:1107,2
DA:1109,2
DA:1110,2
DA:1111,2
DA:1112,2
DA:1113,2
DA:1114,2
DA:1115,2
DA:1116,2
DA:1117,44
DA:1122,60
DA:1123,65
DA:1124,65
DA:1125,65
DA:1126,0
DA:1127,65
DA:1128,65
DA:1129,0
DA:1130,65
DA:1132,60
DA:1133,60
DA:1138,0
DA:1139,0
DA:1140,0
DA:1141,0
DA:1142,0
DA:1143,0
DA:1144,0
DA:1146,0
DA:1147,0
DA:1148,0
DA:1149,0
DA:1150,0
DA:1151,0
DA:1153,0
DA:1154,0
DA:1155,0
DA:1157,0
DA:1160,0
DA:1161,0
DA:1162,0
DA:1165,0
DA:1168,0
DA:1171,0
DA:1172,0
DA:1176,0
DA:1177,0
DA:1178,0
DA:1180,0
DA:1181,0
DA:1186,60
DA:1187,60
DA:1188,60
DA:1189,60
DA:1190,60
DA:1191,65
DA:1192,65
DA:1193,60
DA:1195,60
DA:1196,59
DA:1202,1
DA:1206,0
DA:1211,60
DA:1212,60
DA:1213,60
DA:1214,60
DA:1215,120
DA:1216,60
DA:1219,60
DA:1220,60
DA:1221,60
DA:1223,60
DA:1224,60
DA:1229,46
DA:1231,46
DA:1232,46
DA:1233,46
DA:1234,46
DA:1238,46
DA:1239,46
DA:1240,46
BRF:0
BRH:0
LF:409
LH:214
end_of_record
SF:/Users/dbmrq/Documents/Programação/Misc/paperboat/src/app/orchestrator_acp.rs
FN:266,_RNCNCNvXs_NtNtNtCs2XshHk0aCOj_9paperboat3app16orchestrator_acp5testsNtB8_14QueueTransportNtNtNtBe_7backend9transport14AgentTransport4recv00Be_
FN:275,_RNCNvNtNtNtCs2XshHk0aCOj_9paperboat3app16orchestrator_acp5testss_61drain_orchestrator_messages_stops_after_cross_session_message0B9_
FN:127,_RNCNCNvMNtNtCs2XshHk0aCOj_9paperboat3app16orchestrator_acpNtB8_3App27drain_orchestrator_messages00Ba_
FN:143,_RNCNCNvMNtNtCs2XshHk0aCOj_9paperboat3app16orchestrator_acpNtB8_3App27drain_orchestrator_messages0s0_0Ba_
FN:168,_RNCNCNvMNtNtCs2XshHk0aCOj_9paperboat3app16orchestrator_acpNtB8_3App27drain_orchestrator_messages0s1_0Ba_
FN:169,_RNCNCNvMNtNtCs2XshHk0aCOj_9paperboat3app16orchestrator_acpNtB8_3App27drain_orchestrator_messages0s2_0Ba_
FN:184,_RNCNCNvMNtNtCs2XshHk0aCOj_9paperboat3app16orchestrator_acpNtB8_3App27drain_orchestrator_messages0s3_0Ba_
FN:185,_RNCNCNvMNtNtCs2XshHk0aCOj_9paperboat3app16orchestrator_acpNtB8_3App27drain_orchestrator_messages0s4_0Ba_
FN:142,_RNCNCNvMNtNtCs2XshHk0aCOj_9paperboat3app16orchestrator_acpNtB8_3App27drain_orchestrator_messages0s_0Ba_
FN:13,_RNCNCNvMNtNtCs2XshHk0aCOj_9paperboat3app16orchestrator_acpNtB8_3App30handle_acp_message_with_writer00Ba_
FN:34,_RNCNCNvMNtNtCs2XshHk0aCOj_9paperboat3app16orchestrator_acpNtB8_3App30handle_acp_message_with_writer0s0_0Ba_
FN:44,_RNCNCNvMNtNtCs2XshHk0aCOj_9paperboat3app16orchestrator_acpNtB8_3App30handle_acp_message_with_writer0s1_0Ba_
FN:45,_RNCNCNvMNtNtCs2XshHk0aCOj_9paperboat3app16orchestrator_acpNtB8_3App30handle_acp_message_with_writer0s2_0Ba_
FN:55,_RNCNCNvMNtNtCs2XshHk0aCOj_9paperboat3app16orchestrator_acpNtB8_3App30handle_acp_message_with_writer0s3_0Ba_
FN:63,_RNCNCNvMNtNtCs2XshHk0aCOj_9paperboat3app16orchestrator_acpNtB8_3App30handle_acp_message_with_writer0s4_0Ba_
FN:71,_RNCNCNvMNtNtCs2XshHk0aCOj_9paperboat3app16orchestrator_acpNtB8_3App30handle_acp_message_with_writer0s5_0Ba_
FN:72,_RNCNCNvMNtNtCs2XshHk0aCOj_9paperboat3app16orchestrator_acpNtB8_3App30handle_acp_message_with_writer0s6_0Ba_
FN:86,_RNCNCNvMNtNtCs2XshHk0aCOj_9paperboat3app16orchestrator_acpNtB8_3App30handle_acp_message_with_writer0s7_0Ba_
FN:90,_RNCNCNvMNtNtCs2XshHk0aCOj_9paperboat3app16orchestrator_acpNtB8_3App30handle_acp_message_with_writer0s8_0Ba_
FN:91,_RNCNCNvMNtNtCs2XshHk0aCOj_9paperboat3app16orchestrator_acpNtB8_3App30handle_acp_message_with_writer0s9_0Ba_
FN:33,_RNCNCNvMNtNtCs2XshHk0aCOj_9paperboat3app16orchestrator_acpNtB8_3App30handle_acp_message_with_writer0s_0Ba_
FN:123,_RNCNvMNtNtCs2XshHk0aCOj_9paperboat3app16orchestrator_acpNtB6_3App27drain_orchestrator_messages0B8_
FN:12,_RNCNvMNtNtCs2XshHk0aCOj_9paperboat3app16orchestrator_acpNtB6_3App30handle_acp_message_with_writer0B8_
FN:223,_RNvMNtNtNtCs2XshHk0aCOj_9paperboat3app16orchestrator_acp5testsNtB2_14QueueTransport3new
FN:270,_RNvNtNtNtCs2XshHk0aCOj_9paperboat3app16orchestrator_acp5tests17test_model_config
FN:275,_RNvNtNtNtCs2XshHk0aCOj_9paperboat3app16orchestrator_acp5testss_61drain_orchestrator_messages_stops_after_cross_session_message
FN:232,_RNvXs_NtNtNtCs2XshHk0aCOj_9paperboat3app16orchestrator_acp5testsNtB4_14QueueTransportNtNtNtBa_7backend9transport14AgentTransport10initialize
FN:240,_RNvXs_NtNtNtCs2XshHk0aCOj_9paperboat3app16orchestrator_acp5testsNtB4_14QueueTransportNtNtNtBa_7backend9transport14AgentTransport11send_prompt
FN:236,_RNvXs_NtNtNtCs2XshHk0aCOj_9paperboat3app16orchestrator_acp5testsNtB4_14QueueTransportNtNtNtBa_7backend9transport14AgentTransport14create_session
FN:253,_RNvXs_NtNtNtCs2XshHk0aCOj_9paperboat3app16orchestrator_acp5testsNtB4_14QueueTransportNtNtNtBa_7backend9transport14AgentTransport15respond_to_tool
FN:244,_RNvXs_NtNtNtCs2XshHk0aCOj_9paperboat3app16orchestrator_acp5testsNtB4_14QueueTransportNtNtNtBa_7backend9transport14AgentTransport18take_notifications
FN:261,_RNvXs_NtNtNtCs2XshHk0aCOj_9paperboat3app16orchestrator_acp5testsNtB4_14QueueTransportNtNtNtBa_7backend9transport14AgentTransport4recv
FN:257,_RNvXs_NtNtNtCs2XshHk0aCOj_9paperboat3app16orchestrator_acp5testsNtB4_14QueueTransportNtNtNtBa_7backend9transport14AgentTransport8shutdown
FN:119,_RNvMNtNtCs2XshHk0aCOj_9paperboat3app16orchestrator_acpNtB4_3App27drain_orchestrator_messages
FN:8,_RNvMNtNtCs2XshHk0aCOj_9paperboat3app16orchestrator_acpNtB4_3App30handle_acp_message_with_writer
FNDA:0,_RNCNCNvXs_NtNtNtCs2XshHk0aCOj_9paperboat3app16orchestrator_acp5testsNtB8_14QueueTransportNtNtNtBe_7backend9transport14AgentTransport4recv00Be_
FNDA:1,_RNCNvNtNtNtCs2XshHk0aCOj_9paperboat3app16orchestrator_acp5testss_61drain_orchestrator_messages_stops_after_cross_session_message0B9_
FNDA:45,_RNCNCNvMNtNtCs2XshHk0aCOj_9paperboat3app16orchestrator_acpNtB8_3App27drain_orchestrator_messages00Ba_
FNDA:45,_RNCNCNvMNtNtCs2XshHk0aCOj_9paperboat3app16orchestrator_acpNtB8_3App27drain_orchestrator_messages0s0_0Ba_
FNDA:0,_RNCNCNvMNtNtCs2XshHk0aCOj_9paperboat3app16orchestrator_acpNtB8_3App27drain_orchestrator_messages0s1_0Ba_
FNDA:44,_RNCNCNvMNtNtCs2XshHk0aCOj_9paperboat3app16orchestrator_acpNtB8_3App27drain_orchestrator_messages0s2_0Ba_
FNDA:1,_RNCNCNvMNtNtCs2XshHk0aCOj_9paperboat3app16orchestrator_acpNtB8_3App27drain_orchestrator_messages0s3_0Ba_
FNDA:1,_RNCNCNvMNtNtCs2XshHk0aCOj_9paperboat3app16orchestrator_acpNtB8_3App27drain_orchestrator_messages0s4_0Ba_
FNDA:0,_RNCNCNvMNtNtCs2XshHk0aCOj_9paperboat3app16orchestrator_acpNtB8_3App27drain_orchestrator_messages0s_0Ba_
FNDA:182,_RNCNCNvMNtNtCs2XshHk0aCOj_9paperboat3app16orchestrator_acpNtB8_3App30handle_acp_message_with_writer00Ba_
FNDA:182,_RNCNCNvMNtNtCs2XshHk0aCOj_9paperboat3app16orchestrator_acpNtB8_3App30handle_acp_message_with_writer0s0_0Ba_
FNDA:182,_RNCNCNvMNtNtCs2XshHk0aCOj_9paperboat3app16orchestrator_acpNtB8_3App30handle_acp_message_with_writer0s1_0Ba_
FNDA:182,_RNCNCNvMNtNtCs2XshHk0aCOj_9paperboat3app16orchestrator_acpNtB8_3App30handle_acp_message_with_writer0s2_0Ba_
FNDA:0,_RNCNCNvMNtNtCs2XshHk0aCOj_9paperboat3app16orchestrator_acpNtB8_3App30handle_acp_message_with_writer0s3_0Ba_
FNDA:0,_RNCNCNvMNtNtCs2XshHk0aCOj_9paperboat3app16orchestrator_acpNtB8_3App30handle_acp_message_with_writer0s4_0Ba_
FNDA:0,_RNCNCNvMNtNtCs2XshHk0aCOj_9paperboat3app16orchestrator_acpNtB8_3App30handle_acp_message_with_writer0s5_0Ba_
FNDA:0,_RNCNCNvMNtNtCs2XshHk0aCOj_9paperboat3app16orchestrator_acpNtB8_3App30handle_acp_message_with_writer0s6_0Ba_
FNDA:0,_RNCNCNvMNtNtCs2XshHk0aCOj_9paperboat3app16orchestrator_acpNtB8_3App30handle_acp_message_with_writer0s7_0Ba_
FNDA:0,_RNCNCNvMNtNtCs2XshHk0aCOj_9paperboat3app16orchestrator_acpNtB8_3App30handle_acp_message_with_writer0s8_0Ba_
FNDA:0,_RNCNCNvMNtNtCs2XshHk0aCOj_9paperboat3app16orchestrator_acpNtB8_3App30handle_acp_message_with_writer0s9_0Ba_
FNDA:0,_RNCNCNvMNtNtCs2XshHk0aCOj_9paperboat3app16orchestrator_acpNtB8_3App30handle_acp_message_with_writer0s_0Ba_
FNDA:44,_RNCNvMNtNtCs2XshHk0aCOj_9paperboat3app16orchestrator_acpNtB6_3App27drain_orchestrator_messages0B8_
FNDA:182,_RNCNvMNtNtCs2XshHk0aCOj_9paperboat3app16orchestrator_acpNtB6_3App30handle_acp_message_with_writer0B8_
FNDA:1,_RNvMNtNtNtCs2XshHk0aCOj_9paperboat3app16orchestrator_acp5testsNtB2_14QueueTransport3new
FNDA:1,_RNvNtNtNtCs2XshHk0aCOj_9paperboat3app16orchestrator_acp5tests17test_model_config
FNDA:1,_RNvNtNtNtCs2XshHk0aCOj_9paperboat3app16orchestrator_acp5testss_61drain_orchestrator_messages_stops_after_cross_session_message
FNDA:0,_RNvXs_NtNtNtCs2XshHk0aCOj_9paperboat3app16orchestrator_acp5testsNtB4_14QueueTransportNtNtNtBa_7backend9transport14AgentTransport10initialize
FNDA:0,_RNvXs_NtNtNtCs2XshHk0aCOj_9paperboat3app16orchestrator_acp5testsNtB4_14QueueTransportNtNtNtBa_7backend9transport14AgentTransport11send_prompt
FNDA:0,_RNvXs_NtNtNtCs2XshHk0aCOj_9paperboat3app16orchestrator_acp5testsNtB4_14QueueTransportNtNtNtBa_7backend9transport14AgentTransport14create_session
FNDA:0,_RNvXs_NtNtNtCs2XshHk0aCOj_9paperboat3app16orchestrator_acp5testsNtB4_14QueueTransportNtNtNtBa_7backend9transport14AgentTransport15respond_to_tool
FNDA:0,_RNvXs_NtNtNtCs2XshHk0aCOj_9paperboat3app16orchestrator_acp5testsNtB4_14QueueTransportNtNtNtBa_7backend9transport14AgentTransport18take_notifications
FNDA:2,_RNvXs_NtNtNtCs2XshHk0aCOj_9paperboat3app16orchestrator_acp5testsNtB4_14QueueTransportNtNtNtBa_7backend9transport14AgentTransport4recv
FNDA:0,_RNvXs_NtNtNtCs2XshHk0aCOj_9paperboat3app16orchestrator_acp5testsNtB4_14QueueTransportNtNtNtBa_7backend9transport14AgentTransport8shutdown
FNDA:44,_RNvMNtNtCs2XshHk0aCOj_9paperboat3app16orchestrator_acpNtB4_3App27drain_orchestrator_messages
FNDA:182,_RNvMNtNtCs2XshHk0aCOj_9paperboat3app16orchestrator_acpNtB4_3App30handle_acp_message_with_writer
FNF:35
FNH:18
DA:8,182
DA:9,182
DA:10,182
DA:11,182
DA:12,182
DA:13,182
DA:15,182
DA:16,0
DA:17,0
DA:18,182
DA:20,182
DA:21,0
DA:22,0
DA:25,182
DA:26,0
DA:27,0
DA:31,182
DA:32,182
DA:33,182
DA:34,182
DA:36,0
DA:37,0
DA:40,182
DA:41,182
DA:42,182
DA:43,182
DA:44,182
DA:45,182
DA:47,182
DA:49,0
DA:51,182
DA:52,0
DA:54,0
DA:55,0
DA:56,0
DA:57,0
DA:58,0
DA:60,0
DA:61,0
DA:62,0
DA:63,0
DA:64,0
DA:65,0
DA:66,0
DA:67,0
DA:68,0
DA:69,0
DA:70,0
DA:71,0
DA:72,0
DA:73,0
DA:74,0
DA:75,0
DA:76,0
DA:77,0
DA:79,0
DA:80,0
DA:83,0
DA:84,0
DA:85,0
DA:86,0
DA:87,0
DA:88,0
DA:89,0
DA:90,0
DA:91,0
DA:93,0
DA:94,0
DA:97,0
DA:99,0
DA:102,0
DA:104,0
DA:110,182
DA:119,44
DA:120,44
DA:121,44
DA:122,44
DA:123,44
DA:125,45
DA:126,45
DA:127,45
DA:128,45
DA:130,0
DA:131,0
DA:132,45
DA:134,45
DA:135,0
DA:136,0
DA:140,45
DA:141,45
DA:142,45
DA:143,45
DA:146,45
DA:151,1
DA:153,0
DA:156,1
DA:157,44
DA:160,44
DA:161,0
DA:162,0
DA:166,44
DA:167,44
DA:168,44
DA:169,44
DA:171,44
DA:173,44
DA:174,43
DA:178,43
DA:180,1
DA:182,1
DA:183,1
DA:184,1
DA:185,1
DA:187,1
DA:188,0
DA:190,0
DA:191,0
DA:192,0
DA:195,0
DA:196,0
DA:197,0
DA:201,44
DA:223,1
DA:224,1
DA:225,1
DA:226,1
DA:227,1
DA:232,0
DA:234,0
DA:236,0
DA:238,0
DA:240,0
DA:242,0
DA:244,0
DA:245,0
DA:246,0
DA:253,0
DA:255,0
DA:257,0
DA:259,0
DA:261,2
DA:266,0
DA:267,2
DA:270,1
DA:271,1
DA:272,1
DA:275,1
DA:276,1
DA:277,1
DA:278,1
DA:279,1
DA:280,1
DA:282,1
DA:283,1
DA:284,1
DA:285,1
DA:286,1
DA:287,1
DA:288,1
DA:289,1
DA:293,1
DA:294,1
DA:295,1
DA:296,1
DA:297,1
DA:298,1
DA:299,1
DA:305,1
DA:306,1
DA:307,1
DA:308,1
DA:309,1
DA:310,1
DA:311,1
DA:314,1
DA:315,1
DA:316,1
DA:317,1
DA:319,1
DA:320,1
DA:321,1
DA:323,1
DA:324,1
DA:325,1
DA:326,1
DA:327,1
DA:328,1
DA:329,1
DA:330,1
BRF:0
BRH:0
LF:213
LH:125
end_of_record
SF:/Users/dbmrq/Documents/Programação/Misc/paperboat/src/app/planner.rs
FN:36,_RNvMNtNtCs2XshHk0aCOj_9paperboat3app7plannerNtB2_14PlannerSession7cleanup
FN:30,_RNvMNtNtCs2XshHk0aCOj_9paperboat3app7plannerNtB2_14PlannerSession12take_tool_rx
FN:59,_RNCNCNCNvMs_NtNtCs2XshHk0aCOj_9paperboat3app7plannerNtBc_3App13spawn_planner000Be_
FN:226,_RNCNCNvMs_NtNtCs2XshHk0aCOj_9paperboat3app7plannerNtBa_3App33create_planner_session_with_retry00Bc_
FN:48,_RNCNvMs_NtNtCs2XshHk0aCOj_9paperboat3app7plannerNtB8_3App13spawn_planner0Ba_
FN:141,_RNCNvMs_NtNtCs2XshHk0aCOj_9paperboat3app7plannerNtB8_3App33create_planner_session_with_retry0Ba_
FN:48,_RNvMs_NtNtCs2XshHk0aCOj_9paperboat3app7plannerNtB6_3App13spawn_planner
FN:236,_RNvMs_NtNtCs2XshHk0aCOj_9paperboat3app7plannerNtB6_3App21resolve_planner_model
FN:137,_RNvMs_NtNtCs2XshHk0aCOj_9paperboat3app7plannerNtB6_3App33create_planner_session_with_retry
FNDA:0,_RNvMNtNtCs2XshHk0aCOj_9paperboat3app7plannerNtB2_14PlannerSession7cleanup
FNDA:47,_RNvMNtNtCs2XshHk0aCOj_9paperboat3app7plannerNtB2_14PlannerSession12take_tool_rx
FNDA:0,_RNCNCNCNvMs_NtNtCs2XshHk0aCOj_9paperboat3app7plannerNtBc_3App13spawn_planner000Be_
FNDA:0,_RNCNCNvMs_NtNtCs2XshHk0aCOj_9paperboat3app7plannerNtBa_3App33create_planner_session_with_retry00Bc_
FNDA:47,_RNCNvMs_NtNtCs2XshHk0aCOj_9paperboat3app7plannerNtB8_3App13spawn_planner0Ba_
FNDA:47,_RNCNvMs_NtNtCs2XshHk0aCOj_9paperboat3app7plannerNtB8_3App33create_planner_session_with_retry0Ba_
FNDA:47,_RNvMs_NtNtCs2XshHk0aCOj_9paperboat3app7plannerNtB6_3App13spawn_planner
FNDA:47,_RNvMs_NtNtCs2XshHk0aCOj_9paperboat3app7plannerNtB6_3App21resolve_planner_model
FNDA:47,_RNvMs_NtNtCs2XshHk0aCOj_9paperboat3app7plannerNtB6_3App33create_planner_session_with_retry
FNF:9
FNH:6
DA:30,47
DA:31,47
DA:32,47
DA:36,0
DA:37,0
DA:38,0
DA:39,0
DA:40,0
DA:48,47
DA:59,0
DA:60,0
DA:61,0
DA:128,47
DA:137,47
DA:138,47
DA:139,47
DA:140,47
DA:141,47
DA:144,47
DA:145,47
DA:148,47
DA:150,47
DA:151,47
DA:152,47
DA:155,47
DA:159,47
DA:160,47
DA:161,47
DA:163,47
DA:164,47
DA:165,47
DA:166,0
DA:169,0
DA:172,47
DA:173,47
DA:175,0
DA:177,0
DA:178,0
DA:182,0
DA:183,0
DA:184,0
DA:186,0
DA:187,0
DA:189,0
DA:190,0
DA:193,0
DA:198,0
DA:201,0
DA:202,0
DA:203,0
DA:204,0
DA:207,0
DA:208,0
DA:210,0
DA:212,0
DA:215,0
DA:225,0
DA:226,0
DA:227,0
DA:231,47
DA:236,47
DA:238,47
DA:239,47
DA:240,47
DA:241,47
DA:245,47
DA:246,47
DA:247,47
BRF:0
BRH:0
LF:71
LH:36
end_of_record
SF:/Users/dbmrq/Documents/Programação/Misc/paperboat/src/app/retry.rs
FN:120,_RINvNtNtCs2XshHk0aCOj_9paperboat3app5retry11retry_asyncTINtNtCs9z9vVV76Yx7_5alloc5boxed3BoxDNtNtNtB6_7backend9transport14AgentTransportEL_ENtB1u_11SessionInfoENCNCNvNtB4_13agent_spawner26spawn_transport_with_retry00NCNCB2z_00EB6_
FN:120,_RINvNtNtCs2XshHk0aCOj_9paperboat3app5retry11retry_asyncTNtNtB6_3acp9AcpClientNtBU_18SessionNewResponseENCNCNvNtNtB6_12self_improve6runner19spawn_and_run_agent00NCNCB1F_00EB6_
FN:120,_RINvNtNtCs2XshHk0aCOj_9paperboat3app5retry11retry_asynclNCNCNvNtB2_5testss_20test_retry_exhausted00NCNCBU_00EB6_
FN:120,_RINvNtNtCs2XshHk0aCOj_9paperboat3app5retry11retry_asynclNCNCNvNtB2_5testss_31test_retry_succeeds_immediately00NCNCBU_00EB6_
FN:120,_RINvNtNtCs2XshHk0aCOj_9paperboat3app5retry11retry_asynclNCNCNvNtB2_5testss_33test_non_transient_error_no_retry00NCNCBU_00EB6_
FN:120,_RINvNtNtCs2XshHk0aCOj_9paperboat3app5retry11retry_asynclNCNCNvNtB2_5testss_34test_retry_succeeds_after_failures00NCNCBU_00EB6_
FN:128,_RNCINvNtNtCs2XshHk0aCOj_9paperboat3app5retry11retry_asyncTINtNtCs9z9vVV76Yx7_5alloc5boxed3BoxDNtNtNtB8_7backend9transport14AgentTransportEL_ENtB1w_11SessionInfoENCNCNvNtB6_13agent_spawner26spawn_transport_with_retry00NCNCB2B_00E0B8_
FN:128,_RNCINvNtNtCs2XshHk0aCOj_9paperboat3app5retry11retry_asyncTNtNtB8_3acp9AcpClientNtBW_18SessionNewResponseENCNCNvNtNtB8_12self_improve6runner19spawn_and_run_agent00NCNCB1H_00E0B8_
FN:128,_RNCINvNtNtCs2XshHk0aCOj_9paperboat3app5retry11retry_asynclNCNCNvNtB4_5testss_20test_retry_exhausted00NCNCBW_00E0B8_
FN:128,_RNCINvNtNtCs2XshHk0aCOj_9paperboat3app5retry11retry_asynclNCNCNvNtB4_5testss_31test_retry_succeeds_immediately00NCNCBW_00E0B8_
FN:128,_RNCINvNtNtCs2XshHk0aCOj_9paperboat3app5retry11retry_asynclNCNCNvNtB4_5testss_33test_non_transient_error_no_retry00NCNCBW_00E0B8_
FN:128,_RNCINvNtNtCs2XshHk0aCOj_9paperboat3app5retry11retry_asynclNCNCNvNtB4_5testss_34test_retry_succeeds_after_failures00NCNCBW_00E0B8_
FN:177,_RNCNCINvNtNtCs2XshHk0aCOj_9paperboat3app5retry11retry_asyncTINtNtCs9z9vVV76Yx7_5alloc5boxed3BoxDNtNtNtBa_7backend9transport14AgentTransportEL_ENtB1y_11SessionInfoENCNCNvNtB8_13agent_spawner26spawn_transport_with_retry00NCNCB2D_00E00Ba_
FN:177,_RNCNCINvNtNtCs2XshHk0aCOj_9paperboat3app5retry11retry_asyncTNtNtBa_3acp9AcpClientNtBY_18SessionNewResponseENCNCNvNtNtBa_12self_improve6runner19spawn_and_run_agent00NCNCB1J_00E00Ba_
FN:177,_RNCNCINvNtNtCs2XshHk0aCOj_9paperboat3app5retry11retry_asynclNCNCNvNtB6_5testss_20test_retry_exhausted00NCNCBY_00E00Ba_
FN:177,_RNCNCINvNtNtCs2XshHk0aCOj_9paperboat3app5retry11retry_asynclNCNCNvNtB6_5testss_31test_retry_succeeds_immediately00NCNCBY_00E00Ba_
FN:177,_RNCNCINvNtNtCs2XshHk0aCOj_9paperboat3app5retry11retry_asynclNCNCNvNtB6_5testss_33test_non_transient_error_no_retry00NCNCBY_00E00Ba_
FN:177,_RNCNCINvNtNtCs2XshHk0aCOj_9paperboat3app5retry11retry_asynclNCNCNvNtB6_5testss_34test_retry_succeeds_after_failures00NCNCBY_00E00Ba_
FN:43,_RNCNvMs_NtNtCs2XshHk0aCOj_9paperboat3app5retryNtB6_11RetryConfig8from_env0Ba_
FN:48,_RNCNvMs_NtNtCs2XshHk0aCOj_9paperboat3app5retryNtB6_11RetryConfig8from_envs_0Ba_
FN:60,_RNvMs_NtNtCs2XshHk0aCOj_9paperboat3app5retryNtB4_11RetryConfig8no_retry
FN:251,_RNvNtNtNtCs2XshHk0aCOj_9paperboat3app5retry5testss_20test_retry_exhausted
FN:200,_RNvNtNtNtCs2XshHk0aCOj_9paperboat3app5retry5testss_23test_is_transient_error
FN:193,_RNvNtNtNtCs2XshHk0aCOj_9paperboat3app5retry5testss_25test_retry_config_default
FN:215,_RNvNtNtNtCs2XshHk0aCOj_9paperboat3app5retry5testss_31test_retry_succeeds_immediately
FN:277,_RNvNtNtNtCs2XshHk0aCOj_9paperboat3app5retry5testss_33test_non_transient_error_no_retry
FN:222,_RNvNtNtNtCs2XshHk0aCOj_9paperboat3app5retry5testss_34test_retry_succeeds_after_failures
FN:40,_RNvMs_NtNtCs2XshHk0aCOj_9paperboat3app5retryNtB4_11RetryConfig8from_env
FN:76,_RNvNtNtCs2XshHk0aCOj_9paperboat3app5retry18is_transient_error
FN:100,_RNvNtNtCs2XshHk0aCOj_9paperboat3app5retry28is_model_not_available_error
FN:24,_RNvXNtNtCs2XshHk0aCOj_9paperboat3app5retryNtB2_11RetryConfigNtNtCskpTlHb4dJmc_4core7default7Default7default
FN:264,_RNCNCNCNvNtNtNtCs2XshHk0aCOj_9paperboat3app5retry5testss_20test_retry_exhausted000Bd_
FN:217,_RNCNCNCNvNtNtNtCs2XshHk0aCOj_9paperboat3app5retry5testss_31test_retry_succeeds_immediately000Bd_
FN:290,_RNCNCNCNvNtNtNtCs2XshHk0aCOj_9paperboat3app5retry5testss_33test_non_transient_error_no_retry000Bd_
FN:235,_RNCNCNCNvNtNtNtCs2XshHk0aCOj_9paperboat3app5retry5testss_34test_retry_succeeds_after_failures000Bd_
FN:262,_RNCNCNvNtNtNtCs2XshHk0aCOj_9paperboat3app5retry5testss_20test_retry_exhausted00Bb_
FN:217,_RNCNCNvNtNtNtCs2XshHk0aCOj_9paperboat3app5retry5testss_31test_retry_succeeds_immediately00Bb_
FN:288,_RNCNCNvNtNtNtCs2XshHk0aCOj_9paperboat3app5retry5testss_33test_non_transient_error_no_retry00Bb_
FN:233,_RNCNCNvNtNtNtCs2XshHk0aCOj_9paperboat3app5retry5testss_34test_retry_succeeds_after_failures00Bb_
FN:251,_RNCNvNtNtNtCs2XshHk0aCOj_9paperboat3app5retry5testss_20test_retry_exhausted0B9_
FN:215,_RNCNvNtNtNtCs2XshHk0aCOj_9paperboat3app5retry5testss_31test_retry_succeeds_immediately0B9_
FN:277,_RNCNvNtNtNtCs2XshHk0aCOj_9paperboat3app5retry5testss_33test_non_transient_error_no_retry0B9_
FN:222,_RNCNvNtNtNtCs2XshHk0aCOj_9paperboat3app5retry5testss_34test_retry_succeeds_after_failures0B9_
FNDA:4,_RINvNtNtCs2XshHk0aCOj_9paperboat3app5retry11retry_asyncTINtNtCs9z9vVV76Yx7_5alloc5boxed3BoxDNtNtNtB6_7backend9transport14AgentTransportEL_ENtB1u_11SessionInfoENCNCNvNtB4_13agent_spawner26spawn_transport_with_retry00NCNCB2z_00EB6_
FNDA:0,_RINvNtNtCs2XshHk0aCOj_9paperboat3app5retry11retry_asyncTNtNtB6_3acp9AcpClientNtBU_18SessionNewResponseENCNCNvNtNtB6_12self_improve6runner19spawn_and_run_agent00NCNCB1F_00EB6_
FNDA:1,_RINvNtNtCs2XshHk0aCOj_9paperboat3app5retry11retry_asynclNCNCNvNtB2_5testss_20test_retry_exhausted00NCNCBU_00EB6_
FNDA:1,_RINvNtNtCs2XshHk0aCOj_9paperboat3app5retry11retry_asynclNCNCNvNtB2_5testss_31test_retry_succeeds_immediately00NCNCBU_00EB6_
FNDA:1,_RINvNtNtCs2XshHk0aCOj_9paperboat3app5retry11retry_asynclNCNCNvNtB2_5testss_33test_non_transient_error_no_retry00NCNCBU_00EB6_
FNDA:1,_RINvNtNtCs2XshHk0aCOj_9paperboat3app5retry11retry_asynclNCNCNvNtB2_5testss_34test_retry_succeeds_after_failures00NCNCBU_00EB6_
FNDA:4,_RNCINvNtNtCs2XshHk0aCOj_9paperboat3app5retry11retry_asyncTINtNtCs9z9vVV76Yx7_5alloc5boxed3BoxDNtNtNtB8_7backend9transport14AgentTransportEL_ENtB1w_11SessionInfoENCNCNvNtB6_13agent_spawner26spawn_transport_with_retry00NCNCB2B_00E0B8_
FNDA:0,_RNCINvNtNtCs2XshHk0aCOj_9paperboat3app5retry11retry_asyncTNtNtB8_3acp9AcpClientNtBW_18SessionNewResponseENCNCNvNtNtB8_12self_improve6runner19spawn_and_run_agent00NCNCB1H_00E0B8_
FNDA:1,_RNCINvNtNtCs2XshHk0aCOj_9paperboat3app5retry11retry_asynclNCNCNvNtB4_5testss_20test_retry_exhausted00NCNCBW_00E0B8_
FNDA:1,_RNCINvNtNtCs2XshHk0aCOj_9paperboat3app5retry11retry_asynclNCNCNvNtB4_5testss_31test_retry_succeeds_immediately00NCNCBW_00E0B8_
FNDA:1,_RNCINvNtNtCs2XshHk0aCOj_9paperboat3app5retry11retry_asynclNCNCNvNtB4_5testss_33test_non_transient_error_no_retry00NCNCBW_00E0B8_
FNDA:1,_RNCINvNtNtCs2XshHk0aCOj_9paperboat3app5retry11retry_asynclNCNCNvNtB4_5testss_34test_retry_succeeds_after_failures00NCNCBW_00E0B8_
FNDA:2,_RNCNCINvNtNtCs2XshHk0aCOj_9paperboat3app5retry11retry_asyncTINtNtCs9z9vVV76Yx7_5alloc5boxed3BoxDNtNtNtBa_7backend9transport14AgentTransportEL_ENtB1y_11SessionInfoENCNCNvNtB8_13agent_spawner26spawn_transport_with_retry00NCNCB2D_00E00Ba_
FNDA:0,_RNCNCINvNtNtCs2XshHk0aCOj_9paperboat3app5retry11retry_asyncTNtNtBa_3acp9AcpClientNtBY_18SessionNewResponseENCNCNvNtNtBa_12self_improve6runner19spawn_and_run_agent00NCNCB1J_00E00Ba_
FNDA:1,_RNCNCINvNtNtCs2XshHk0aCOj_9paperboat3app5retry11retry_asynclNCNCNvNtB6_5testss_20test_retry_exhausted00NCNCBY_00E00Ba_
FNDA:0,_RNCNCINvNtNtCs2XshHk0aCOj_9paperboat3app5retry11retry_asynclNCNCNvNtB6_5testss_31test_retry_succeeds_immediately00NCNCBY_00E00Ba_
FNDA:1,_RNCNCINvNtNtCs2XshHk0aCOj_9paperboat3app5retry11retry_asynclNCNCNvNtB6_5testss_33test_non_transient_error_no_retry00NCNCBY_00E00Ba_
FNDA:0,_RNCNCINvNtNtCs2XshHk0aCOj_9paperboat3app5retry11retry_asynclNCNCNvNtB6_5testss_34test_retry_succeeds_after_failures00NCNCBY_00E00Ba_
FNDA:2,_RNCNvMs_NtNtCs2XshHk0aCOj_9paperboat3app5retryNtB6_11RetryConfig8from_env0Ba_
FNDA:2,_RNCNvMs_NtNtCs2XshHk0aCOj_9paperboat3app5retryNtB6_11RetryConfig8from_envs_0Ba_
FNDA:0,_RNvMs_NtNtCs2XshHk0aCOj_9paperboat3app5retryNtB4_11RetryConfig8no_retry
FNDA:1,_RNvNtNtNtCs2XshHk0aCOj_9paperboat3app5retry5testss_20test_retry_exhausted
FNDA:1,_RNvNtNtNtCs2XshHk0aCOj_9paperboat3app5retry5testss_23test_is_transient_error
FNDA:1,_RNvNtNtNtCs2XshHk0aCOj_9paperboat3app5retry5testss_25test_retry_config_default
FNDA:1,_RNvNtNtNtCs2XshHk0aCOj_9paperboat3app5retry5testss_31test_retry_succeeds_immediately
FNDA:1,_RNvNtNtNtCs2XshHk0aCOj_9paperboat3app5retry5testss_33test_non_transient_error_no_retry
FNDA:1,_RNvNtNtNtCs2XshHk0aCOj_9paperboat3app5retry5testss_34test_retry_succeeds_after_failures
FNDA:161,_RNvMs_NtNtCs2XshHk0aCOj_9paperboat3app5retryNtB4_11RetryConfig8from_env
FNDA:12,_RNvNtNtCs2XshHk0aCOj_9paperboat3app5retry18is_transient_error
FNDA:2,_RNvNtNtCs2XshHk0aCOj_9paperboat3app5retry28is_model_not_available_error
FNDA:163,_RNvXNtNtCs2XshHk0aCOj_9paperboat3app5retryNtB2_11RetryConfigNtNtCskpTlHb4dJmc_4core7default7Default7default
FNDA:3,_RNCNCNCNvNtNtNtCs2XshHk0aCOj_9paperboat3app5retry5testss_20test_retry_exhausted000Bd_
FNDA:1,_RNCNCNCNvNtNtNtCs2XshHk0aCOj_9paperboat3app5retry5testss_31test_retry_succeeds_immediately000Bd_
FNDA:1,_RNCNCNCNvNtNtNtCs2XshHk0aCOj_9paperboat3app5retry5testss_33test_non_transient_error_no_retry000Bd_
FNDA:3,_RNCNCNCNvNtNtNtCs2XshHk0aCOj_9paperboat3app5retry5testss_34test_retry_succeeds_after_failures000Bd_
FNDA:3,_RNCNCNvNtNtNtCs2XshHk0aCOj_9paperboat3app5retry5testss_20test_retry_exhausted00Bb_
FNDA:1,_RNCNCNvNtNtNtCs2XshHk0aCOj_9paperboat3app5retry5testss_31test_retry_succeeds_immediately00Bb_
FNDA:1,_RNCNCNvNtNtNtCs2XshHk0aCOj_9paperboat3app5retry5testss_33test_non_transient_error_no_retry00Bb_
FNDA:3,_RNCNCNvNtNtNtCs2XshHk0aCOj_9paperboat3app5retry5testss_34test_retry_succeeds_after_failures00Bb_
FNDA:1,_RNCNvNtNtNtCs2XshHk0aCOj_9paperboat3app5retry5testss_20test_retry_exhausted0B9_
FNDA:1,_RNCNvNtNtNtCs2XshHk0aCOj_9paperboat3app5retry5testss_31test_retry_succeeds_immediately0B9_
FNDA:1,_RNCNvNtNtNtCs2XshHk0aCOj_9paperboat3app5retry5testss_33test_non_transient_error_no_retry0B9_
FNDA:1,_RNCNvNtNtNtCs2XshHk0aCOj_9paperboat3app5retry5testss_34test_retry_succeeds_after_failures0B9_
FNF:28
FNH:27
DA:24,163
DA:25,163
DA:26,163
DA:27,163
DA:28,163
DA:29,163
DA:30,163
DA:31,163
DA:40,161
DA:41,161
DA:42,161
DA:43,161
DA:44,161
DA:46,161
DA:47,161
DA:48,161
DA:49,161
DA:51,161
DA:52,161
DA:53,161
DA:54,161
DA:55,161
DA:56,161
DA:60,0
DA:61,0
DA:62,0
DA:63,0
DA:64,0
DA:65,0
DA:66,0
DA:67,0
DA:76,12
DA:77,12
DA:80,12
DA:81,5
DA:82,5
DA:83,4
DA:84,4
DA:85,4
DA:86,4
DA:87,4
DA:88,4
DA:90,8
DA:91,4
DA:93,4
DA:94,12
DA:100,2
DA:101,2
DA:103,2
DA:104,1
DA:105,1
DA:106,1
DA:107,1
DA:108,1
DA:109,2
DA:120,8
DA:121,8
DA:122,8
DA:123,8
DA:124,8
DA:125,8
DA:126,8
DA:127,8
DA:128,8
DA:129,8
DA:130,8
DA:133,13
DA:135,13
DA:136,4
DA:137,4
DA:138,2
DA:142,0
DA:144,2
DA:145,4
DA:147,9
DA:148,9
DA:149,9
DA:151,9
DA:152,5
DA:156,0
DA:160,5
DA:163,5
DA:164,5
DA:165,5
DA:166,5
DA:169,4
DA:170,1
DA:172,3
DA:174,4
DA:177,4
DA:178,4
DA:179,4
DA:184,8
DA:193,1
DA:194,1
DA:195,1
DA:196,1
DA:197,1
DA:200,1
DA:202,1
DA:203,1
DA:206,1
DA:207,1
DA:210,1
DA:211,1
DA:212,1
DA:215,1
DA:216,1
DA:217,2
DA:218,1
DA:219,1
DA:222,1
DA:223,1
DA:224,1
DA:225,1
DA:226,1
DA:227,1
DA:228,1
DA:230,1
DA:231,1
DA:233,3
DA:234,3
DA:235,3
DA:236,3
DA:237,3
DA:238,2
DA:240,1
DA:242,3
DA:243,3
DA:244,1
DA:246,1
DA:247,1
DA:248,1
DA:251,1
DA:252,1
DA:253,1
DA:254,1
DA:255,1
DA:256,1
DA:257,1
DA:259,1
DA:260,1
DA:262,3
DA:263,3
DA:264,3
DA:265,3
DA:266,3
DA:267,3
DA:268,3
DA:269,1
DA:271,1
DA:273,1
DA:274,1
DA:277,1
DA:278,1
DA:279,1
DA:280,1
DA:281,1
DA:282,1
DA:283,1
DA:285,1
DA:286,1
DA:288,1
DA:289,1
DA:290,1
DA:291,1
DA:292,1
DA:293,1
DA:294,1
DA:295,1
DA:297,1
DA:299,1
DA:300,1
BRF:0
BRH:0
LF:189
LH:178
end_of_record
SF:/Users/dbmrq/Documents/Programação/Misc/paperboat/src/app/router.rs
FN:108,_RNvXs_NtNtCs2XshHk0aCOj_9paperboat3app6routerNtB4_13SessionRouterNtNtCskpTlHb4dJmc_4core7default7Default7default
FN:168,_RNCNvNtNtNtCs2XshHk0aCOj_9paperboat3app6router5testss_23test_extract_session_id0B9_
FN:192,_RNCNvNtNtNtCs2XshHk0aCOj_9paperboat3app6router5testss_29test_unregister_stops_routing0B9_
FN:181,_RNCNvNtNtNtCs2XshHk0aCOj_9paperboat3app6router5testss_31test_extract_session_id_missing0B9_
FN:119,_RNCNvNtNtNtCs2XshHk0aCOj_9paperboat3app6router5testss_32test_route_to_registered_session0B9_
FN:146,_RNCNvNtNtNtCs2XshHk0aCOj_9paperboat3app6router5testss_36test_unregistered_session_not_routed0B9_
FN:54,_RNvMNtNtCs2XshHk0aCOj_9paperboat3app6routerNtB2_13SessionRouter10unregister
FN:96,_RNvMNtNtCs2XshHk0aCOj_9paperboat3app6routerNtB2_13SessionRouter18extract_session_id
FN:23,_RNvMNtNtCs2XshHk0aCOj_9paperboat3app6routerNtB2_13SessionRouter3new
FN:72,_RNvMNtNtCs2XshHk0aCOj_9paperboat3app6routerNtB2_13SessionRouter5route
FN:41,_RNvMNtNtCs2XshHk0aCOj_9paperboat3app6routerNtB2_13SessionRouter8register
FN:168,_RNvNtNtNtCs2XshHk0aCOj_9paperboat3app6router5testss_23test_extract_session_id
FN:192,_RNvNtNtNtCs2XshHk0aCOj_9paperboat3app6router5testss_29test_unregister_stops_routing
FN:181,_RNvNtNtNtCs2XshHk0aCOj_9paperboat3app6router5testss_31test_extract_session_id_missing
FN:119,_RNvNtNtNtCs2XshHk0aCOj_9paperboat3app6router5testss_32test_route_to_registered_session
FN:146,_RNvNtNtNtCs2XshHk0aCOj_9paperboat3app6router5testss_36test_unregistered_session_not_routed
FN:101,_RNCNCNvMNtNtCs2XshHk0aCOj_9paperboat3app6routerNtB6_13SessionRouter18extract_session_id00Ba_
FN:102,_RNCNCNvMNtNtCs2XshHk0aCOj_9paperboat3app6routerNtB6_13SessionRouter18extract_session_id0s_0Ba_
FN:97,_RNCNvMNtNtCs2XshHk0aCOj_9paperboat3app6routerNtB4_13SessionRouter18extract_session_id0B8_
FNDA:0,_RNvXs_NtNtCs2XshHk0aCOj_9paperboat3app6routerNtB4_13SessionRouterNtNtCskpTlHb4dJmc_4core7default7Default7default
FNDA:1,_RNCNvNtNtNtCs2XshHk0aCOj_9paperboat3app6router5testss_23test_extract_session_id0B9_
FNDA:1,_RNCNvNtNtNtCs2XshHk0aCOj_9paperboat3app6router5testss_29test_unregister_stops_routing0B9_
FNDA:1,_RNCNvNtNtNtCs2XshHk0aCOj_9paperboat3app6router5testss_31test_extract_session_id_missing0B9_
FNDA:1,_RNCNvNtNtNtCs2XshHk0aCOj_9paperboat3app6router5testss_32test_route_to_registered_session0B9_
FNDA:1,_RNCNvNtNtNtCs2XshHk0aCOj_9paperboat3app6router5testss_36test_unregistered_session_not_routed0B9_
FNDA:3,_RNvMNtNtCs2XshHk0aCOj_9paperboat3app6routerNtB2_13SessionRouter10unregister
FNDA:11,_RNvMNtNtCs2XshHk0aCOj_9paperboat3app6routerNtB2_13SessionRouter18extract_session_id
FNDA:51,_RNvMNtNtCs2XshHk0aCOj_9paperboat3app6routerNtB2_13SessionRouter3new
FNDA:9,_RNvMNtNtCs2XshHk0aCOj_9paperboat3app6routerNtB2_13SessionRouter5route
FNDA:4,_RNvMNtNtCs2XshHk0aCOj_9paperboat3app6routerNtB2_13SessionRouter8register
FNDA:1,_RNvNtNtNtCs2XshHk0aCOj_9paperboat3app6router5testss_23test_extract_session_id
FNDA:1,_RNvNtNtNtCs2XshHk0aCOj_9paperboat3app6router5testss_29test_unregister_stops_routing
FNDA:1,_RNvNtNtNtCs2XshHk0aCOj_9paperboat3app6router5testss_31test_extract_session_id_missing
FNDA:1,_RNvNtNtNtCs2XshHk0aCOj_9paperboat3app6router5testss_32test_route_to_registered_session
FNDA:1,_RNvNtNtNtCs2XshHk0aCOj_9paperboat3app6router5testss_36test_unregistered_session_not_routed
FNDA:1,_RNCNCNvMNtNtCs2XshHk0aCOj_9paperboat3app6routerNtB6_13SessionRouter18extract_session_id00Ba_
FNDA:10,_RNCNCNvMNtNtCs2XshHk0aCOj_9paperboat3app6routerNtB6_13SessionRouter18extract_session_id0s_0Ba_
FNDA:11,_RNCNvMNtNtCs2XshHk0aCOj_9paperboat3app6routerNtB4_13SessionRouter18extract_session_id0B8_
FNF:19
FNH:18
DA:23,51
DA:24,51
DA:25,51
DA:26,51
DA:27,51
DA:41,4
DA:42,4
DA:43,4
DA:44,4
DA:45,4
DA:54,3
DA:55,3
DA:56,3
DA:72,9
DA:73,9
DA:74,0
DA:77,9
DA:78,5
DA:82,4
DA:83,9
DA:96,11
DA:97,11
DA:99,11
DA:100,11
DA:101,11
DA:102,11
DA:103,11
DA:104,11
DA:108,0
DA:109,0
DA:110,0
DA:119,1
DA:120,1
DA:121,1
DA:122,1
DA:124,1
DA:125,1
DA:126,1
DA:127,1
DA:128,1
DA:129,1
DA:130,1
DA:136,1
DA:137,1
DA:140,1
DA:141,1
DA:142,1
DA:143,1
DA:146,1
DA:147,1
DA:149,1
DA:150,1
DA:151,1
DA:152,1
DA:153,1
DA:154,1
DA:160,1
DA:161,1
DA:162,1
DA:163,1
DA:164,1
DA:165,1
DA:168,1
DA:169,1
DA:170,1
DA:171,1
DA:172,1
DA:176,1
DA:177,1
DA:178,1
DA:181,1
DA:182,1
DA:183,1
DA:184,1
DA:187,1
DA:188,1
DA:189,1
DA:192,1
DA:193,1
DA:194,1
DA:195,1
DA:198,1
DA:200,1
DA:201,1
DA:204,1
DA:205,1
DA:206,1
BRF:0
BRH:0
LF:101
LH:97
end_of_record
SF:/Users/dbmrq/Documents/Programação/Misc/paperboat/src/app/run.rs
FN:192,_RNCNvMNtNtCs2XshHk0aCOj_9paperboat3app3runNtB6_3App14save_task_list0B8_
FN:56,_RNCNvMNtNtCs2XshHk0aCOj_9paperboat3app3runNtB6_3App18run_planning_phase0B8_
FN:164,_RNCNvMNtNtCs2XshHk0aCOj_9paperboat3app3runNtB6_3App19run_execution_phase0B8_
FN:15,_RNCNvMNtNtCs2XshHk0aCOj_9paperboat3app3runNtB6_3App3run0B8_
FN:192,_RNvMNtNtCs2XshHk0aCOj_9paperboat3app3runNtB4_3App14save_task_list
FN:56,_RNvMNtNtCs2XshHk0aCOj_9paperboat3app3runNtB4_3App18run_planning_phase
FN:164,_RNvMNtNtCs2XshHk0aCOj_9paperboat3app3runNtB4_3App19run_execution_phase
FN:15,_RNvMNtNtCs2XshHk0aCOj_9paperboat3app3runNtB4_3App3run
FN:43,_RNvMNtNtCs2XshHk0aCOj_9paperboat3app3runNtB4_3App7cleanup
FNDA:39,_RNCNvMNtNtCs2XshHk0aCOj_9paperboat3app3runNtB6_3App14save_task_list0B8_
FNDA:43,_RNCNvMNtNtCs2XshHk0aCOj_9paperboat3app3runNtB6_3App18run_planning_phase0B8_
FNDA:42,_RNCNvMNtNtCs2XshHk0aCOj_9paperboat3app3runNtB6_3App19run_execution_phase0B8_
FNDA:43,_RNCNvMNtNtCs2XshHk0aCOj_9paperboat3app3runNtB6_3App3run0B8_
FNDA:39,_RNvMNtNtCs2XshHk0aCOj_9paperboat3app3runNtB4_3App14save_task_list
FNDA:43,_RNvMNtNtCs2XshHk0aCOj_9paperboat3app3runNtB4_3App18run_planning_phase
FNDA:42,_RNvMNtNtCs2XshHk0aCOj_9paperboat3app3runNtB4_3App19run_execution_phase
FNDA:43,_RNvMNtNtCs2XshHk0aCOj_9paperboat3app3runNtB4_3App3run
FNDA:40,_RNvMNtNtCs2XshHk0aCOj_9paperboat3app3runNtB4_3App7cleanup
FNF:9
FNH:9
DA:15,43
DA:40,40
DA:43,40
DA:45,40
DA:46,40
DA:47,40
DA:49,40
DA:50,0
DA:51,40
DA:52,40
DA:56,43
DA:160,43
DA:164,42
DA:189,39
DA:192,39
DA:193,39
DA:194,39
DA:196,39
DA:197,39
DA:198,39
DA:199,0
DA:201,39
DA:203,0
DA:208,0
DA:209,0
DA:212,39
BRF:0
BRH:0
LF:30
LH:25
end_of_record
SF:/Users/dbmrq/Documents/Programação/Misc/paperboat/src/app/sequential_impl.rs
FN:26,_RNCNvMNtNtCs2XshHk0aCOj_9paperboat3app15sequential_implNtB6_3App22handle_implement_inner0B8_
FN:18,_RNCNvMNtNtCs2XshHk0aCOj_9paperboat3app15sequential_implNtB6_3App30handle_implement_with_response0B8_
FN:26,_RNvMNtNtCs2XshHk0aCOj_9paperboat3app15sequential_implNtB4_3App22handle_implement_inner
FN:14,_RNvMNtNtCs2XshHk0aCOj_9paperboat3app15sequential_implNtB4_3App30handle_implement_with_response
FNDA:65,_RNCNvMNtNtCs2XshHk0aCOj_9paperboat3app15sequential_implNtB6_3App22handle_implement_inner0B8_
FNDA:65,_RNCNvMNtNtCs2XshHk0aCOj_9paperboat3app15sequential_implNtB6_3App30handle_implement_with_response0B8_
FNDA:65,_RNvMNtNtCs2XshHk0aCOj_9paperboat3app15sequential_implNtB4_3App22handle_implement_inner
FNDA:65,_RNvMNtNtCs2XshHk0aCOj_9paperboat3app15sequential_implNtB4_3App30handle_implement_with_response
FNF:4
FNH:4
DA:14,65
DA:15,65
DA:16,65
DA:17,65
DA:18,65
DA:19,65
DA:20,64
DA:21,1
DA:23,65
DA:26,65
DA:27,65
DA:28,65
DA:31,65
DA:32,65
DA:33,65
DA:34,65
DA:35,65
DA:38,65
DA:39,65
DA:43,0
DA:47,65
DA:48,65
DA:49,0
DA:51,0
DA:57,0
DA:58,0
DA:62,0
DA:63,0
DA:64,0
DA:68,0
DA:69,0
DA:74,65
DA:75,65
DA:76,65
DA:77,65
DA:81,65
DA:83,65
DA:84,65
DA:85,65
DA:86,65
DA:87,65
DA:89,0
DA:90,65
DA:92,65
DA:96,65
DA:97,65
DA:98,65
DA:100,65
DA:101,65
DA:102,65
DA:105,65
DA:106,0
DA:107,65
DA:109,65
DA:110,1
DA:114,0
DA:116,1
DA:117,64
DA:119,64
DA:123,0
DA:126,64
DA:127,65
BRF:0
BRH:0
LF:64
LH:50
end_of_record
SF:/Users/dbmrq/Documents/Programação/Misc/paperboat/src/app/session.rs
FN:98,_RNCNvMNtNtCs2XshHk0aCOj_9paperboat3app7sessionNtB6_3App23wait_for_session_output0B8_
FN:94,_RNvMNtNtCs2XshHk0aCOj_9paperboat3app7sessionNtB4_3App23wait_for_session_output
FN:569,_RNvMNtNtNtCs2XshHk0aCOj_9paperboat3app7session5testsNtB2_16ChannelTransport3new
FN:659,_RNvNtNtNtCs2XshHk0aCOj_9paperboat3app7session5tests13make_test_app
FN:622,_RNvNtNtNtCs2XshHk0aCOj_9paperboat3app7session5tests14session_update
FN:617,_RNvNtNtNtCs2XshHk0aCOj_9paperboat3app7session5tests17make_model_config
FN:641,_RNvNtNtNtCs2XshHk0aCOj_9paperboat3app7session5tests17send_tool_request
FN:777,_RNvNtNtNtCs2XshHk0aCOj_9paperboat3app7session5testss_77test_wait_for_session_output_direct_keeps_pre_complete_output_and_drains_tail
FN:683,_RNvNtNtNtCs2XshHk0aCOj_9paperboat3app7session5testss_82test_wait_for_session_output_routed_drains_target_messages_and_unregisters_session
FN:576,_RNvXs_NtNtNtCs2XshHk0aCOj_9paperboat3app7session5testsNtB4_16ChannelTransportNtNtNtBa_7backend9transport14AgentTransport10initialize
FN:584,_RNvXs_NtNtNtCs2XshHk0aCOj_9paperboat3app7session5testsNtB4_16ChannelTransportNtNtNtBa_7backend9transport14AgentTransport11send_prompt
FN:580,_RNvXs_NtNtNtCs2XshHk0aCOj_9paperboat3app7session5testsNtB4_16ChannelTransportNtNtNtBa_7backend9transport14AgentTransport14create_session
FN:597,_RNvXs_NtNtNtCs2XshHk0aCOj_9paperboat3app7session5testsNtB4_16ChannelTransportNtNtNtBa_7backend9transport14AgentTransport15respond_to_tool
FN:588,_RNvXs_NtNtNtCs2XshHk0aCOj_9paperboat3app7session5testsNtB4_16ChannelTransportNtNtNtBa_7backend9transport14AgentTransport18take_notifications
FN:605,_RNvXs_NtNtNtCs2XshHk0aCOj_9paperboat3app7session5testsNtB4_16ChannelTransportNtNtNtBa_7backend9transport14AgentTransport4recv
FN:601,_RNvXs_NtNtNtCs2XshHk0aCOj_9paperboat3app7session5testsNtB4_16ChannelTransportNtNtNtBa_7backend9transport14AgentTransport8shutdown
FN:47,_RNCNCNCNCNvMNtNtCs2XshHk0aCOj_9paperboat3app7sessionNtBc_3App18handle_acp_message00s3_00Be_
FN:17,_RNCNCNCNvMNtNtCs2XshHk0aCOj_9paperboat3app7sessionNtBa_3App18handle_acp_message000Bc_
FN:25,_RNCNCNCNvMNtNtCs2XshHk0aCOj_9paperboat3app7sessionNtBa_3App18handle_acp_message00s0_0Bc_
FN:30,_RNCNCNCNvMNtNtCs2XshHk0aCOj_9paperboat3app7sessionNtBa_3App18handle_acp_message00s1_0Bc_
FN:38,_RNCNCNCNvMNtNtCs2XshHk0aCOj_9paperboat3app7sessionNtBa_3App18handle_acp_message00s2_0Bc_
FN:47,_RNCNCNCNvMNtNtCs2XshHk0aCOj_9paperboat3app7sessionNtBa_3App18handle_acp_message00s3_0Bc_
FN:24,_RNCNCNCNvMNtNtCs2XshHk0aCOj_9paperboat3app7sessionNtBa_3App18handle_acp_message00s_0Bc_
FN:389,_RNCNCNCNvMNtNtCs2XshHk0aCOj_9paperboat3app7sessionNtBa_3App30wait_for_session_output_direct000Bc_
FN:430,_RNCNCNCNvMNtNtCs2XshHk0aCOj_9paperboat3app7sessionNtBa_3App30wait_for_session_output_direct00s1_0Bc_
FN:209,_RNCNCNCNvMNtNtCs2XshHk0aCOj_9paperboat3app7sessionNtBa_3App30wait_for_session_output_routed000Bc_
FN:249,_RNCNCNCNvMNtNtCs2XshHk0aCOj_9paperboat3app7sessionNtBa_3App30wait_for_session_output_routed00s1_0Bc_
FN:72,_RNCNvMNtNtCs2XshHk0aCOj_9paperboat3app7sessionNtB6_3App16register_session0B8_
FN:16,_RNCNvMNtNtCs2XshHk0aCOj_9paperboat3app7sessionNtB6_3App18handle_acp_message0B8_
FN:83,_RNCNvMNtNtCs2XshHk0aCOj_9paperboat3app7sessionNtB6_3App18unregister_session0B8_
FN:348,_RNCNvMNtNtCs2XshHk0aCOj_9paperboat3app7sessionNtB6_3App30wait_for_session_output_direct0B8_
FN:185,_RNCNvMNtNtCs2XshHk0aCOj_9paperboat3app7sessionNtB6_3App30wait_for_session_output_routed0B8_
FN:113,_RNCNvMNtNtCs2XshHk0aCOj_9paperboat3app7sessionNtB6_3App36wait_for_session_output_with_tool_rx0B8_
FN:790,_RNCNCNvNtNtNtCs2XshHk0aCOj_9paperboat3app7session5testss_77test_wait_for_session_output_direct_keeps_pre_complete_output_and_drains_tail00Bb_
FN:712,_RNCNCNvNtNtNtCs2XshHk0aCOj_9paperboat3app7session5testss_82test_wait_for_session_output_routed_drains_target_messages_and_unregisters_session00Bb_
FN:765,_RNCNCNvNtNtNtCs2XshHk0aCOj_9paperboat3app7session5testss_82test_wait_for_session_output_routed_drains_target_messages_and_unregisters_session0s_0Bb_
FN:609,_RNCNCNvXs_NtNtNtCs2XshHk0aCOj_9paperboat3app7session5testsNtB8_16ChannelTransportNtNtNtBe_7backend9transport14AgentTransport4recv00Be_
FN:613,_RNCNCNvXs_NtNtNtCs2XshHk0aCOj_9paperboat3app7session5testsNtB8_16ChannelTransportNtNtNtBe_7backend9transport14AgentTransport4recv0s_0Be_
FN:777,_RNCNvNtNtNtCs2XshHk0aCOj_9paperboat3app7session5testss_77test_wait_for_session_output_direct_keeps_pre_complete_output_and_drains_tail0B9_
FN:683,_RNCNvNtNtNtCs2XshHk0aCOj_9paperboat3app7session5testss_82test_wait_for_session_output_routed_drains_target_messages_and_unregisters_session0B9_
FN:72,_RNvMNtNtCs2XshHk0aCOj_9paperboat3app7sessionNtB4_3App16register_session
FN:16,_RNvMNtNtCs2XshHk0aCOj_9paperboat3app7sessionNtB4_3App18handle_acp_message
FN:83,_RNvMNtNtCs2XshHk0aCOj_9paperboat3app7sessionNtB4_3App18unregister_session
FN:343,_RNvMNtNtCs2XshHk0aCOj_9paperboat3app7sessionNtB4_3App30wait_for_session_output_direct
FN:179,_RNvMNtNtCs2XshHk0aCOj_9paperboat3app7sessionNtB4_3App30wait_for_session_output_routed
FN:108,_RNvMNtNtCs2XshHk0aCOj_9paperboat3app7sessionNtB4_3App36wait_for_session_output_with_tool_rx
FNDA:0,_RNCNvMNtNtCs2XshHk0aCOj_9paperboat3app7sessionNtB6_3App23wait_for_session_output0B8_
FNDA:0,_RNvMNtNtCs2XshHk0aCOj_9paperboat3app7sessionNtB4_3App23wait_for_session_output
FNDA:1,_RNvMNtNtNtCs2XshHk0aCOj_9paperboat3app7session5testsNtB2_16ChannelTransport3new
FNDA:2,_RNvNtNtNtCs2XshHk0aCOj_9paperboat3app7session5tests13make_test_app
FNDA:7,_RNvNtNtNtCs2XshHk0aCOj_9paperboat3app7session5tests14session_update
FNDA:2,_RNvNtNtNtCs2XshHk0aCOj_9paperboat3app7session5tests17make_model_config
FNDA:3,_RNvNtNtNtCs2XshHk0aCOj_9paperboat3app7session5tests17send_tool_request
FNDA:1,_RNvNtNtNtCs2XshHk0aCOj_9paperboat3app7session5testss_77test_wait_for_session_output_direct_keeps_pre_complete_output_and_drains_tail
FNDA:1,_RNvNtNtNtCs2XshHk0aCOj_9paperboat3app7session5testss_82test_wait_for_session_output_routed_drains_target_messages_and_unregisters_session
FNDA:0,_RNvXs_NtNtNtCs2XshHk0aCOj_9paperboat3app7session5testsNtB4_16ChannelTransportNtNtNtBa_7backend9transport14AgentTransport10initialize
FNDA:0,_RNvXs_NtNtNtCs2XshHk0aCOj_9paperboat3app7session5testsNtB4_16ChannelTransportNtNtNtBa_7backend9transport14AgentTransport11send_prompt
FNDA:0,_RNvXs_NtNtNtCs2XshHk0aCOj_9paperboat3app7session5testsNtB4_16ChannelTransportNtNtNtBa_7backend9transport14AgentTransport14create_session
FNDA:0,_RNvXs_NtNtNtCs2XshHk0aCOj_9paperboat3app7session5testsNtB4_16ChannelTransportNtNtNtBa_7backend9transport14AgentTransport15respond_to_tool
FNDA:0,_RNvXs_NtNtNtCs2XshHk0aCOj_9paperboat3app7session5testsNtB4_16ChannelTransportNtNtNtBa_7backend9transport14AgentTransport18take_notifications
FNDA:6,_RNvXs_NtNtNtCs2XshHk0aCOj_9paperboat3app7session5testsNtB4_16ChannelTransportNtNtNtBa_7backend9transport14AgentTransport4recv
FNDA:0,_RNvXs_NtNtNtCs2XshHk0aCOj_9paperboat3app7session5testsNtB4_16ChannelTransportNtNtNtBa_7backend9transport14AgentTransport8shutdown
FNDA:0,_RNCNCNCNCNvMNtNtCs2XshHk0aCOj_9paperboat3app7sessionNtBc_3App18handle_acp_message00s3_00Be_
FNDA:0,_RNCNCNCNvMNtNtCs2XshHk0aCOj_9paperboat3app7sessionNtBa_3App18handle_acp_message000Bc_
FNDA:0,_RNCNCNCNvMNtNtCs2XshHk0aCOj_9paperboat3app7sessionNtBa_3App18handle_acp_message00s0_0Bc_
FNDA:0,_RNCNCNCNvMNtNtCs2XshHk0aCOj_9paperboat3app7sessionNtBa_3App18handle_acp_message00s1_0Bc_
FNDA:0,_RNCNCNCNvMNtNtCs2XshHk0aCOj_9paperboat3app7sessionNtBa_3App18handle_acp_message00s2_0Bc_
FNDA:0,_RNCNCNCNvMNtNtCs2XshHk0aCOj_9paperboat3app7sessionNtBa_3App18handle_acp_message00s3_0Bc_
FNDA:0,_RNCNCNCNvMNtNtCs2XshHk0aCOj_9paperboat3app7sessionNtBa_3App18handle_acp_message00s_0Bc_
FNDA:619,_RNCNCNCNvMNtNtCs2XshHk0aCOj_9paperboat3app7sessionNtBa_3App30wait_for_session_output_direct000Bc_
FNDA:0,_RNCNCNCNvMNtNtCs2XshHk0aCOj_9paperboat3app7sessionNtBa_3App30wait_for_session_output_direct00s1_0Bc_
FNDA:2,_RNCNCNCNvMNtNtCs2XshHk0aCOj_9paperboat3app7sessionNtBa_3App30wait_for_session_output_routed000Bc_
FNDA:0,_RNCNCNCNvMNtNtCs2XshHk0aCOj_9paperboat3app7sessionNtBa_3App30wait_for_session_output_routed00s1_0Bc_
FNDA:1,_RNCNvMNtNtCs2XshHk0aCOj_9paperboat3app7sessionNtB6_3App16register_session0B8_
FNDA:0,_RNCNvMNtNtCs2XshHk0aCOj_9paperboat3app7sessionNtB6_3App18handle_acp_message0B8_
FNDA:1,_RNCNvMNtNtCs2XshHk0aCOj_9paperboat3app7sessionNtB6_3App18unregister_session0B8_
FNDA:113,_RNCNvMNtNtCs2XshHk0aCOj_9paperboat3app7sessionNtB6_3App30wait_for_session_output_direct0B8_
FNDA:1,_RNCNvMNtNtCs2XshHk0aCOj_9paperboat3app7sessionNtB6_3App30wait_for_session_output_routed0B8_
FNDA:114,_RNCNvMNtNtCs2XshHk0aCOj_9paperboat3app7sessionNtB6_3App36wait_for_session_output_with_tool_rx0B8_
FNDA:1,_RNCNCNvNtNtNtCs2XshHk0aCOj_9paperboat3app7session5testss_77test_wait_for_session_output_direct_keeps_pre_complete_output_and_drains_tail00Bb_
FNDA:1,_RNCNCNvNtNtNtCs2XshHk0aCOj_9paperboat3app7session5testss_82test_wait_for_session_output_routed_drains_target_messages_and_unregisters_session00Bb_
FNDA:1,_RNCNCNvNtNtNtCs2XshHk0aCOj_9paperboat3app7session5testss_82test_wait_for_session_output_routed_drains_target_messages_and_unregisters_session0s_0Bb_
FNDA:0,_RNCNCNvXs_NtNtNtCs2XshHk0aCOj_9paperboat3app7session5testsNtB8_16ChannelTransportNtNtNtBe_7backend9transport14AgentTransport4recv00Be_
FNDA:0,_RNCNCNvXs_NtNtNtCs2XshHk0aCOj_9paperboat3app7session5testsNtB8_16ChannelTransportNtNtNtBe_7backend9transport14AgentTransport4recv0s_0Be_
FNDA:1,_RNCNvNtNtNtCs2XshHk0aCOj_9paperboat3app7session5testss_77test_wait_for_session_output_direct_keeps_pre_complete_output_and_drains_tail0B9_
FNDA:1,_RNCNvNtNtNtCs2XshHk0aCOj_9paperboat3app7session5testss_82test_wait_for_session_output_routed_drains_target_messages_and_unregisters_session0B9_
FNDA:1,_RNvMNtNtCs2XshHk0aCOj_9paperboat3app7sessionNtB4_3App16register_session
FNDA:0,_RNvMNtNtCs2XshHk0aCOj_9paperboat3app7sessionNtB4_3App18handle_acp_message
FNDA:1,_RNvMNtNtCs2XshHk0aCOj_9paperboat3app7sessionNtB4_3App18unregister_session
FNDA:113,_RNvMNtNtCs2XshHk0aCOj_9paperboat3app7sessionNtB4_3App30wait_for_session_output_direct
FNDA:1,_RNvMNtNtCs2XshHk0aCOj_9paperboat3app7sessionNtB4_3App30wait_for_session_output_routed
FNDA:114,_RNvMNtNtCs2XshHk0aCOj_9paperboat3app7sessionNtB4_3App36wait_for_session_output_with_tool_rx
FNF:46
FNH:25
DA:16,0
DA:17,0
DA:24,0
DA:25,0
DA:30,0
DA:38,0
DA:47,0
DA:65,0
DA:72,1
DA:77,1
DA:83,1
DA:87,1
DA:94,0
DA:95,0
DA:96,0
DA:97,0
DA:98,0
DA:101,0
DA:108,114
DA:109,114
DA:110,114
DA:111,114
DA:112,114
DA:113,114
DA:114,114
DA:174,114
DA:179,1
DA:180,1
DA:181,1
DA:182,1
DA:183,1
DA:184,1
DA:185,1
DA:197,1
DA:209,2
DA:210,2
DA:211,0
DA:212,2
DA:214,0
DA:249,0
DA:336,1
DA:343,113
DA:344,113
DA:345,113
DA:346,113
DA:347,113
DA:348,113
DA:360,113
DA:389,619
DA:390,619
DA:391,0
DA:392,619
DA:394,0
DA:430,0
DA:544,113
DA:569,1
DA:570,1
DA:571,1
DA:576,0
DA:578,0
DA:580,0
DA:582,0
DA:584,0
DA:586,0
DA:588,0
DA:589,0
DA:590,0
DA:597,0
DA:599,0
DA:601,0
DA:603,0
DA:605,6
DA:609,0
DA:613,0
DA:614,6
DA:617,2
DA:618,2
DA:619,2
DA:620,2
DA:622,7
DA:623,7
DA:624,7
DA:625,7
DA:626,7
DA:627,7
DA:628,7
DA:629,7
DA:634,7
DA:635,5
DA:636,5
DA:638,7
DA:639,7
DA:641,3
DA:642,3
DA:643,3
DA:644,3
DA:645,3
DA:646,3
DA:647,3
DA:648,3
DA:649,3
DA:650,3
DA:651,3
DA:652,3
DA:653,3
DA:654,3
DA:655,3
DA:656,3
DA:657,3
DA:659,2
DA:660,2
DA:661,2
DA:662,2
DA:663,2
DA:664,2
DA:665,2
DA:666,2
DA:669,2
DA:670,2
DA:671,2
DA:672,2
DA:673,2
DA:674,2
DA:675,2
DA:676,2
DA:679,2
DA:680,2
DA:683,1
DA:684,1
DA:685,1
DA:686,1
DA:688,1
DA:689,1
DA:691,1
DA:692,1
DA:693,1
DA:694,1
DA:695,1
DA:696,1
DA:697,1
DA:698,1
DA:700,1
DA:701,1
DA:702,1
DA:703,1
DA:704,1
DA:705,1
DA:706,1
DA:707,1
DA:708,1
DA:711,1
DA:712,1
DA:713,1
DA:714,1
DA:715,1
DA:717,1
DA:718,1
DA:720,1
DA:721,1
DA:722,1
DA:723,1
DA:724,1
DA:725,1
DA:726,0
DA:728,0
DA:731,1
DA:732,1
DA:734,1
DA:735,1
DA:736,1
DA:737,1
DA:738,1
DA:739,1
DA:740,1
DA:742,1
DA:744,1
DA:745,1
DA:746,1
DA:747,1
DA:748,1
DA:749,1
DA:751,1
DA:752,1
DA:755,1
DA:757,1
DA:758,1
DA:759,1
DA:761,1
DA:762,1
DA:763,1
DA:764,1
DA:765,1
DA:766,1
DA:768,1
DA:769,1
DA:770,1
DA:771,1
DA:772,1
DA:773,1
DA:774,1
DA:777,1
DA:778,1
DA:779,1
DA:780,1
DA:782,1
DA:783,1
DA:784,1
DA:785,1
DA:786,1
DA:787,1
DA:789,1
DA:790,1
DA:791,1
DA:792,1
DA:793,1
DA:794,1
DA:795,1
DA:796,1
DA:797,1
DA:798,1
DA:800,1
DA:802,1
DA:803,1
DA:804,1
DA:805,1
DA:806,1
DA:807,1
DA:808,1
DA:809,1
DA:810,1
DA:813,1
DA:815,1
DA:816,1
DA:817,1
DA:818,1
DA:819,1
DA:820,1
DA:821,1
DA:822,1
DA:823,1
DA:824,1
DA:825,1
DA:826,1
DA:828,1
DA:829,1
DA:831,1
DA:832,1
DA:833,1
DA:834,1
DA:835,1
DA:836,1
DA:837,1
DA:839,1
DA:840,1
DA:841,1
DA:843,1
DA:844,1
DA:846,1
DA:847,1
DA:848,1
DA:849,1
DA:850,1
DA:851,1
DA:852,1
BRF:0
BRH:0
LF:281
LH:241
end_of_record
SF:/Users/dbmrq/Documents/Programação/Misc/paperboat/src/app/session_drain.rs
FN:548,_RNvNtNtNtCs2XshHk0aCOj_9paperboat3app13session_drain5testss_27test_tool_result_extraction
FN:585,_RNvNtNtNtCs2XshHk0aCOj_9paperboat3app13session_drain5testss_27test_tool_result_with_error
FN:616,_RNvNtNtNtCs2XshHk0aCOj_9paperboat3app13session_drain5testss_34test_session_id_mismatch_detection
FN:386,_RNvNtNtNtCs2XshHk0aCOj_9paperboat3app13session_drain5testss_34test_strip_mcp_prefix_empty_string
FN:372,_RNvNtNtNtCs2XshHk0aCOj_9paperboat3app13session_drain5testss_36test_strip_mcp_prefix_without_prefix
FN:523,_RNvNtNtNtCs2XshHk0aCOj_9paperboat3app13session_drain5testss_37test_message_chunk_content_extraction
FN:436,_RNvNtNtNtCs2XshHk0aCOj_9paperboat3app13session_drain5testss_37test_session_id_extraction_acp_format
FN:456,_RNvNtNtNtCs2XshHk0aCOj_9paperboat3app13session_drain5testss_37test_session_id_extraction_cli_format
FN:391,_RNvNtNtNtCs2XshHk0aCOj_9paperboat3app13session_drain5testss_37test_strip_mcp_prefix_just_underscore
FN:641,_RNvNtNtNtCs2XshHk0aCOj_9paperboat3app13session_drain5testss_38test_non_session_update_method_ignored
FN:403,_RNvNtNtNtCs2XshHk0aCOj_9paperboat3app13session_drain5testss_38test_session_finished_types_recognized
FN:476,_RNvNtNtNtCs2XshHk0aCOj_9paperboat3app13session_drain5testss_38test_update_type_extraction_acp_format
FN:498,_RNvNtNtNtCs2XshHk0aCOj_9paperboat3app13session_drain5testss_38test_update_type_extraction_cli_format
FN:379,_RNvNtNtNtCs2XshHk0aCOj_9paperboat3app13session_drain5testss_43test_strip_mcp_prefix_with_other_underscore
FN:339,_RNvNtNtNtCs2XshHk0aCOj_9paperboat3app13session_drain5testss_43test_strip_mcp_prefix_with_paperboat_prefix
FN:277,_RNCNCNvMNtNtCs2XshHk0aCOj_9paperboat3app13session_drainNtB8_3App20handle_drain_message00Ba_
FN:284,_RNCNCNvMNtNtCs2XshHk0aCOj_9paperboat3app13session_drainNtB8_3App20handle_drain_message0s0_0Ba_
FN:292,_RNCNCNvMNtNtCs2XshHk0aCOj_9paperboat3app13session_drainNtB8_3App20handle_drain_message0s1_0Ba_
FN:293,_RNCNCNvMNtNtCs2XshHk0aCOj_9paperboat3app13session_drainNtB8_3App20handle_drain_message0s2_0Ba_
FN:306,_RNCNCNvMNtNtCs2XshHk0aCOj_9paperboat3app13session_drainNtB8_3App20handle_drain_message0s3_0Ba_
FN:307,_RNCNCNvMNtNtCs2XshHk0aCOj_9paperboat3app13session_drainNtB8_3App20handle_drain_message0s4_0Ba_
FN:283,_RNCNCNvMNtNtCs2XshHk0aCOj_9paperboat3app13session_drainNtB8_3App20handle_drain_message0s_0Ba_
FN:42,_RNCNCNvMNtNtCs2XshHk0aCOj_9paperboat3app13session_drainNtB8_3App29handle_worker_session_message00Ba_
FN:56,_RNCNCNvMNtNtCs2XshHk0aCOj_9paperboat3app13session_drainNtB8_3App29handle_worker_session_message0s0_0Ba_
FN:70,_RNCNCNvMNtNtCs2XshHk0aCOj_9paperboat3app13session_drainNtB8_3App29handle_worker_session_message0s1_0Ba_
FN:71,_RNCNCNvMNtNtCs2XshHk0aCOj_9paperboat3app13session_drainNtB8_3App29handle_worker_session_message0s2_0Ba_
FN:82,_RNCNCNvMNtNtCs2XshHk0aCOj_9paperboat3app13session_drainNtB8_3App29handle_worker_session_message0s3_0Ba_
FN:83,_RNCNCNvMNtNtCs2XshHk0aCOj_9paperboat3app13session_drainNtB8_3App29handle_worker_session_message0s4_0Ba_
FN:90,_RNCNCNvMNtNtCs2XshHk0aCOj_9paperboat3app13session_drainNtB8_3App29handle_worker_session_message0s5_0Ba_
FN:99,_RNCNCNvMNtNtCs2XshHk0aCOj_9paperboat3app13session_drainNtB8_3App29handle_worker_session_message0s6_0Ba_
FN:108,_RNCNCNvMNtNtCs2XshHk0aCOj_9paperboat3app13session_drainNtB8_3App29handle_worker_session_message0s7_0Ba_
FN:109,_RNCNCNvMNtNtCs2XshHk0aCOj_9paperboat3app13session_drainNtB8_3App29handle_worker_session_message0s8_0Ba_
FN:127,_RNCNCNvMNtNtCs2XshHk0aCOj_9paperboat3app13session_drainNtB8_3App29handle_worker_session_message0s9_0Ba_
FN:55,_RNCNCNvMNtNtCs2XshHk0aCOj_9paperboat3app13session_drainNtB8_3App29handle_worker_session_message0s_0Ba_
FN:132,_RNCNCNvMNtNtCs2XshHk0aCOj_9paperboat3app13session_drainNtB8_3App29handle_worker_session_message0sa_0Ba_
FN:133,_RNCNCNvMNtNtCs2XshHk0aCOj_9paperboat3app13session_drainNtB8_3App29handle_worker_session_message0sb_0Ba_
FN:165,_RNCNCNvMNtNtCs2XshHk0aCOj_9paperboat3app13session_drainNtB8_3App30drain_session_messages_from_rx00Ba_
FN:172,_RNCNCNvMNtNtCs2XshHk0aCOj_9paperboat3app13session_drainNtB8_3App30drain_session_messages_from_rx0s0_0Ba_
FN:181,_RNCNCNvMNtNtCs2XshHk0aCOj_9paperboat3app13session_drainNtB8_3App30drain_session_messages_from_rx0s1_0Ba_
FN:182,_RNCNCNvMNtNtCs2XshHk0aCOj_9paperboat3app13session_drainNtB8_3App30drain_session_messages_from_rx0s2_0Ba_
FN:199,_RNCNCNvMNtNtCs2XshHk0aCOj_9paperboat3app13session_drainNtB8_3App30drain_session_messages_from_rx0s3_0Ba_
FN:200,_RNCNCNvMNtNtCs2XshHk0aCOj_9paperboat3app13session_drainNtB8_3App30drain_session_messages_from_rx0s4_0Ba_
FN:171,_RNCNCNvMNtNtCs2XshHk0aCOj_9paperboat3app13session_drainNtB8_3App30drain_session_messages_from_rx0s_0Ba_
FN:276,_RNCNvMNtNtCs2XshHk0aCOj_9paperboat3app13session_drainNtB6_3App20handle_drain_message0B8_
FN:226,_RNCNvMNtNtCs2XshHk0aCOj_9paperboat3app13session_drainNtB6_3App29drain_session_messages_direct0B8_
FN:41,_RNCNvMNtNtCs2XshHk0aCOj_9paperboat3app13session_drainNtB6_3App29handle_worker_session_message0B8_
FN:163,_RNCNvMNtNtCs2XshHk0aCOj_9paperboat3app13session_drainNtB6_3App30drain_session_messages_from_rx0B8_
FN:449,_RNCNCNvNtNtNtCs2XshHk0aCOj_9paperboat3app13session_drain5testss_37test_session_id_extraction_acp_format00Bb_
FN:469,_RNCNCNvNtNtNtCs2XshHk0aCOj_9paperboat3app13session_drain5testss_37test_session_id_extraction_cli_format00Bb_
FN:491,_RNCNCNvNtNtNtCs2XshHk0aCOj_9paperboat3app13session_drain5testss_38test_update_type_extraction_acp_formats_00Bb_
FN:512,_RNCNCNvNtNtNtCs2XshHk0aCOj_9paperboat3app13session_drain5testss_38test_update_type_extraction_cli_formats_00Bb_
FN:566,_RNCNvNtNtNtCs2XshHk0aCOj_9paperboat3app13session_drain5testss_27test_tool_result_extraction0B9_
FN:576,_RNCNvNtNtNtCs2XshHk0aCOj_9paperboat3app13session_drain5testss_27test_tool_result_extractions0_0B9_
FN:577,_RNCNvNtNtNtCs2XshHk0aCOj_9paperboat3app13session_drain5testss_27test_tool_result_extractions1_0B9_
FN:569,_RNCNvNtNtNtCs2XshHk0aCOj_9paperboat3app13session_drain5testss_27test_tool_result_extractions_0B9_
FN:603,_RNCNvNtNtNtCs2XshHk0aCOj_9paperboat3app13session_drain5testss_27test_tool_result_with_error0B9_
FN:604,_RNCNvNtNtNtCs2XshHk0aCOj_9paperboat3app13session_drain5testss_27test_tool_result_with_errors_0B9_
FN:633,_RNCNvNtNtNtCs2XshHk0aCOj_9paperboat3app13session_drain5testss_34test_session_id_mismatch_detection0B9_
FN:634,_RNCNvNtNtNtCs2XshHk0aCOj_9paperboat3app13session_drain5testss_34test_session_id_mismatch_detections_0B9_
FN:539,_RNCNvNtNtNtCs2XshHk0aCOj_9paperboat3app13session_drain5testss_37test_message_chunk_content_extraction0B9_
FN:541,_RNCNvNtNtNtCs2XshHk0aCOj_9paperboat3app13session_drain5testss_37test_message_chunk_content_extractions0_0B9_
FN:542,_RNCNvNtNtNtCs2XshHk0aCOj_9paperboat3app13session_drain5testss_37test_message_chunk_content_extractions1_0B9_
FN:540,_RNCNvNtNtNtCs2XshHk0aCOj_9paperboat3app13session_drain5testss_37test_message_chunk_content_extractions_0B9_
FN:449,_RNCNvNtNtNtCs2XshHk0aCOj_9paperboat3app13session_drain5testss_37test_session_id_extraction_acp_format0B9_
FN:450,_RNCNvNtNtNtCs2XshHk0aCOj_9paperboat3app13session_drain5testss_37test_session_id_extraction_acp_formats_0B9_
FN:469,_RNCNvNtNtNtCs2XshHk0aCOj_9paperboat3app13session_drain5testss_37test_session_id_extraction_cli_format0B9_
FN:470,_RNCNvNtNtNtCs2XshHk0aCOj_9paperboat3app13session_drain5testss_37test_session_id_extraction_cli_formats_0B9_
FN:647,_RNCNvNtNtNtCs2XshHk0aCOj_9paperboat3app13session_drain5testss_38test_non_session_update_method_ignored0B9_
FN:422,_RNCNvNtNtNtCs2XshHk0aCOj_9paperboat3app13session_drain5testss_38test_session_finished_types_recognized0B9_
FN:428,_RNCNvNtNtNtCs2XshHk0aCOj_9paperboat3app13session_drain5testss_38test_session_finished_types_recognizeds0_0B9_
FN:429,_RNCNvNtNtNtCs2XshHk0aCOj_9paperboat3app13session_drain5testss_38test_session_finished_types_recognizeds1_0B9_
FN:427,_RNCNvNtNtNtCs2XshHk0aCOj_9paperboat3app13session_drain5testss_38test_session_finished_types_recognizeds_0B9_
FN:490,_RNCNvNtNtNtCs2XshHk0aCOj_9paperboat3app13session_drain5testss_38test_update_type_extraction_acp_format0B9_
FN:492,_RNCNvNtNtNtCs2XshHk0aCOj_9paperboat3app13session_drain5testss_38test_update_type_extraction_acp_formats0_0B9_
FN:491,_RNCNvNtNtNtCs2XshHk0aCOj_9paperboat3app13session_drain5testss_38test_update_type_extraction_acp_formats_0B9_
FN:511,_RNCNvNtNtNtCs2XshHk0aCOj_9paperboat3app13session_drain5testss_38test_update_type_extraction_cli_format0B9_
FN:513,_RNCNvNtNtNtCs2XshHk0aCOj_9paperboat3app13session_drain5testss_38test_update_type_extraction_cli_formats0_0B9_
FN:512,_RNCNvNtNtNtCs2XshHk0aCOj_9paperboat3app13session_drain5testss_38test_update_type_extraction_cli_formats_0B9_
FN:17,_RNvNtNtCs2XshHk0aCOj_9paperboat3app13session_drain16strip_mcp_prefix
FN:271,_RNvMNtNtCs2XshHk0aCOj_9paperboat3app13session_drainNtB4_3App20handle_drain_message
FN:222,_RNvMNtNtCs2XshHk0aCOj_9paperboat3app13session_drainNtB4_3App29drain_session_messages_direct
FN:34,_RNvMNtNtCs2XshHk0aCOj_9paperboat3app13session_drainNtB4_3App29handle_worker_session_message
FN:159,_RNvMNtNtCs2XshHk0aCOj_9paperboat3app13session_drainNtB4_3App30drain_session_messages_from_rx
FNDA:1,_RNvNtNtNtCs2XshHk0aCOj_9paperboat3app13session_drain5testss_27test_tool_result_extraction
FNDA:1,_RNvNtNtNtCs2XshHk0aCOj_9paperboat3app13session_drain5testss_27test_tool_result_with_error
FNDA:1,_RNvNtNtNtCs2XshHk0aCOj_9paperboat3app13session_drain5testss_34test_session_id_mismatch_detection
FNDA:1,_RNvNtNtNtCs2XshHk0aCOj_9paperboat3app13session_drain5testss_34test_strip_mcp_prefix_empty_string
FNDA:1,_RNvNtNtNtCs2XshHk0aCOj_9paperboat3app13session_drain5testss_36test_strip_mcp_prefix_without_prefix
FNDA:1,_RNvNtNtNtCs2XshHk0aCOj_9paperboat3app13session_drain5testss_37test_message_chunk_content_extraction
FNDA:1,_RNvNtNtNtCs2XshHk0aCOj_9paperboat3app13session_drain5testss_37test_session_id_extraction_acp_format
FNDA:1,_RNvNtNtNtCs2XshHk0aCOj_9paperboat3app13session_drain5testss_37test_session_id_extraction_cli_format
FNDA:1,_RNvNtNtNtCs2XshHk0aCOj_9paperboat3app13session_drain5testss_37test_strip_mcp_prefix_just_underscore
FNDA:1,_RNvNtNtNtCs2XshHk0aCOj_9paperboat3app13session_drain5testss_38test_non_session_update_method_ignored
FNDA:1,_RNvNtNtNtCs2XshHk0aCOj_9paperboat3app13session_drain5testss_38test_session_finished_types_recognized
FNDA:1,_RNvNtNtNtCs2XshHk0aCOj_9paperboat3app13session_drain5testss_38test_update_type_extraction_acp_format
FNDA:1,_RNvNtNtNtCs2XshHk0aCOj_9paperboat3app13session_drain5testss_38test_update_type_extraction_cli_format
FNDA:1,_RNvNtNtNtCs2XshHk0aCOj_9paperboat3app13session_drain5testss_43test_strip_mcp_prefix_with_other_underscore
FNDA:1,_RNvNtNtNtCs2XshHk0aCOj_9paperboat3app13session_drain5testss_43test_strip_mcp_prefix_with_paperboat_prefix
FNDA:111,_RNCNCNvMNtNtCs2XshHk0aCOj_9paperboat3app13session_drainNtB8_3App20handle_drain_message00Ba_
FNDA:111,_RNCNCNvMNtNtCs2XshHk0aCOj_9paperboat3app13session_drainNtB8_3App20handle_drain_message0s0_0Ba_
FNDA:0,_RNCNCNvMNtNtCs2XshHk0aCOj_9paperboat3app13session_drainNtB8_3App20handle_drain_message0s1_0Ba_
FNDA:111,_RNCNCNvMNtNtCs2XshHk0aCOj_9paperboat3app13session_drainNtB8_3App20handle_drain_message0s2_0Ba_
FNDA:1,_RNCNCNvMNtNtCs2XshHk0aCOj_9paperboat3app13session_drainNtB8_3App20handle_drain_message0s3_0Ba_
FNDA:1,_RNCNCNvMNtNtCs2XshHk0aCOj_9paperboat3app13session_drainNtB8_3App20handle_drain_message0s4_0Ba_
FNDA:0,_RNCNCNvMNtNtCs2XshHk0aCOj_9paperboat3app13session_drainNtB8_3App20handle_drain_message0s_0Ba_
FNDA:379,_RNCNCNvMNtNtCs2XshHk0aCOj_9paperboat3app13session_drainNtB8_3App29handle_worker_session_message00Ba_
FNDA:379,_RNCNCNvMNtNtCs2XshHk0aCOj_9paperboat3app13session_drainNtB8_3App29handle_worker_session_message0s0_0Ba_
FNDA:0,_RNCNCNvMNtNtCs2XshHk0aCOj_9paperboat3app13session_drainNtB8_3App29handle_worker_session_message0s1_0Ba_
FNDA:379,_RNCNCNvMNtNtCs2XshHk0aCOj_9paperboat3app13session_drainNtB8_3App29handle_worker_session_message0s2_0Ba_
FNDA:294,_RNCNCNvMNtNtCs2XshHk0aCOj_9paperboat3app13session_drainNtB8_3App29handle_worker_session_message0s3_0Ba_
FNDA:294,_RNCNCNvMNtNtCs2XshHk0aCOj_9paperboat3app13session_drainNtB8_3App29handle_worker_session_message0s4_0Ba_
FNDA:41,_RNCNCNvMNtNtCs2XshHk0aCOj_9paperboat3app13session_drainNtB8_3App29handle_worker_session_message0s5_0Ba_
FNDA:41,_RNCNCNvMNtNtCs2XshHk0aCOj_9paperboat3app13session_drainNtB8_3App29handle_worker_session_message0s6_0Ba_
FNDA:41,_RNCNCNvMNtNtCs2XshHk0aCOj_9paperboat3app13session_drainNtB8_3App29handle_worker_session_message0s7_0Ba_
FNDA:0,_RNCNCNvMNtNtCs2XshHk0aCOj_9paperboat3app13session_drainNtB8_3App29handle_worker_session_message0s8_0Ba_
FNDA:0,_RNCNCNvMNtNtCs2XshHk0aCOj_9paperboat3app13session_drainNtB8_3App29handle_worker_session_message0s9_0Ba_
FNDA:0,_RNCNCNvMNtNtCs2XshHk0aCOj_9paperboat3app13session_drainNtB8_3App29handle_worker_session_message0s_0Ba_
FNDA:0,_RNCNCNvMNtNtCs2XshHk0aCOj_9paperboat3app13session_drainNtB8_3App29handle_worker_session_message0sa_0Ba_
FNDA:0,_RNCNCNvMNtNtCs2XshHk0aCOj_9paperboat3app13session_drainNtB8_3App29handle_worker_session_message0sb_0Ba_
FNDA:2,_RNCNCNvMNtNtCs2XshHk0aCOj_9paperboat3app13session_drainNtB8_3App30drain_session_messages_from_rx00Ba_
FNDA:2,_RNCNCNvMNtNtCs2XshHk0aCOj_9paperboat3app13session_drainNtB8_3App30drain_session_messages_from_rx0s0_0Ba_
FNDA:0,_RNCNCNvMNtNtCs2XshHk0aCOj_9paperboat3app13session_drainNtB8_3App30drain_session_messages_from_rx0s1_0Ba_
FNDA:2,_RNCNCNvMNtNtCs2XshHk0aCOj_9paperboat3app13session_drainNtB8_3App30drain_session_messages_from_rx0s2_0Ba_
FNDA:1,_RNCNCNvMNtNtCs2XshHk0aCOj_9paperboat3app13session_drainNtB8_3App30drain_session_messages_from_rx0s3_0Ba_
FNDA:1,_RNCNCNvMNtNtCs2XshHk0aCOj_9paperboat3app13session_drainNtB8_3App30drain_session_messages_from_rx0s4_0Ba_
FNDA:0,_RNCNCNvMNtNtCs2XshHk0aCOj_9paperboat3app13session_drainNtB8_3App30drain_session_messages_from_rx0s_0Ba_
FNDA:111,_RNCNvMNtNtCs2XshHk0aCOj_9paperboat3app13session_drainNtB6_3App20handle_drain_message0B8_
FNDA:110,_RNCNvMNtNtCs2XshHk0aCOj_9paperboat3app13session_drainNtB6_3App29drain_session_messages_direct0B8_
FNDA:379,_RNCNvMNtNtCs2XshHk0aCOj_9paperboat3app13session_drainNtB6_3App29handle_worker_session_message0B8_
FNDA:1,_RNCNvMNtNtCs2XshHk0aCOj_9paperboat3app13session_drainNtB6_3App30drain_session_messages_from_rx0B8_
FNDA:0,_RNCNCNvNtNtNtCs2XshHk0aCOj_9paperboat3app13session_drain5testss_37test_session_id_extraction_acp_format00Bb_
FNDA:1,_RNCNCNvNtNtNtCs2XshHk0aCOj_9paperboat3app13session_drain5testss_37test_session_id_extraction_cli_format00Bb_
FNDA:0,_RNCNCNvNtNtNtCs2XshHk0aCOj_9paperboat3app13session_drain5testss_38test_update_type_extraction_acp_formats_00Bb_
FNDA:1,_RNCNCNvNtNtNtCs2XshHk0aCOj_9paperboat3app13session_drain5testss_38test_update_type_extraction_cli_formats_00Bb_
FNDA:1,_RNCNvNtNtNtCs2XshHk0aCOj_9paperboat3app13session_drain5testss_27test_tool_result_extraction0B9_
FNDA:1,_RNCNvNtNtNtCs2XshHk0aCOj_9paperboat3app13session_drain5testss_27test_tool_result_extractions0_0B9_
FNDA:1,_RNCNvNtNtNtCs2XshHk0aCOj_9paperboat3app13session_drain5testss_27test_tool_result_extractions1_0B9_
FNDA:1,_RNCNvNtNtNtCs2XshHk0aCOj_9paperboat3app13session_drain5testss_27test_tool_result_extractions_0B9_
FNDA:1,_RNCNvNtNtNtCs2XshHk0aCOj_9paperboat3app13session_drain5testss_27test_tool_result_with_error0B9_
FNDA:1,_RNCNvNtNtNtCs2XshHk0aCOj_9paperboat3app13session_drain5testss_27test_tool_result_with_errors_0B9_
FNDA:1,_RNCNvNtNtNtCs2XshHk0aCOj_9paperboat3app13session_drain5testss_34test_session_id_mismatch_detection0B9_
FNDA:1,_RNCNvNtNtNtCs2XshHk0aCOj_9paperboat3app13session_drain5testss_34test_session_id_mismatch_detections_0B9_
FNDA:1,_RNCNvNtNtNtCs2XshHk0aCOj_9paperboat3app13session_drain5testss_37test_message_chunk_content_extraction0B9_
FNDA:1,_RNCNvNtNtNtCs2XshHk0aCOj_9paperboat3app13session_drain5testss_37test_message_chunk_content_extractions0_0B9_
FNDA:1,_RNCNvNtNtNtCs2XshHk0aCOj_9paperboat3app13session_drain5testss_37test_message_chunk_content_extractions1_0B9_
FNDA:1,_RNCNvNtNtNtCs2XshHk0aCOj_9paperboat3app13session_drain5testss_37test_message_chunk_content_extractions_0B9_
FNDA:1,_RNCNvNtNtNtCs2XshHk0aCOj_9paperboat3app13session_drain5testss_37test_session_id_extraction_acp_format0B9_
FNDA:1,_RNCNvNtNtNtCs2XshHk0aCOj_9paperboat3app13session_drain5testss_37test_session_id_extraction_acp_formats_0B9_
FNDA:1,_RNCNvNtNtNtCs2XshHk0aCOj_9paperboat3app13session_drain5testss_37test_session_id_extraction_cli_format0B9_
FNDA:1,_RNCNvNtNtNtCs2XshHk0aCOj_9paperboat3app13session_drain5testss_37test_session_id_extraction_cli_formats_0B9_
FNDA:1,_RNCNvNtNtNtCs2XshHk0aCOj_9paperboat3app13session_drain5testss_38test_non_session_update_method_ignored0B9_
FNDA:3,_RNCNvNtNtNtCs2XshHk0aCOj_9paperboat3app13session_drain5testss_38test_session_finished_types_recognized0B9_
FNDA:3,_RNCNvNtNtNtCs2XshHk0aCOj_9paperboat3app13session_drain5testss_38test_session_finished_types_recognizeds0_0B9_
FNDA:3,_RNCNvNtNtNtCs2XshHk0aCOj_9paperboat3app13session_drain5testss_38test_session_finished_types_recognizeds1_0B9_
FNDA:3,_RNCNvNtNtNtCs2XshHk0aCOj_9paperboat3app13session_drain5testss_38test_session_finished_types_recognizeds_0B9_
FNDA:1,_RNCNvNtNtNtCs2XshHk0aCOj_9paperboat3app13session_drain5testss_38test_update_type_extraction_acp_format0B9_
FNDA:1,_RNCNvNtNtNtCs2XshHk0aCOj_9paperboat3app13session_drain5testss_38test_update_type_extraction_acp_formats0_0B9_
FNDA:1,_RNCNvNtNtNtCs2XshHk0aCOj_9paperboat3app13session_drain5testss_38test_update_type_extraction_acp_formats_0B9_
FNDA:1,_RNCNvNtNtNtCs2XshHk0aCOj_9paperboat3app13session_drain5testss_38test_update_type_extraction_cli_format0B9_
FNDA:1,_RNCNvNtNtNtCs2XshHk0aCOj_9paperboat3app13session_drain5testss_38test_update_type_extraction_cli_formats0_0B9_
FNDA:1,_RNCNvNtNtNtCs2XshHk0aCOj_9paperboat3app13session_drain5testss_38test_update_type_extraction_cli_formats_0B9_
FNDA:92,_RNvNtNtCs2XshHk0aCOj_9paperboat3app13session_drain16strip_mcp_prefix
FNDA:111,_RNvMNtNtCs2XshHk0aCOj_9paperboat3app13session_drainNtB4_3App20handle_drain_message
FNDA:110,_RNvMNtNtCs2XshHk0aCOj_9paperboat3app13session_drainNtB4_3App29drain_session_messages_direct
FNDA:379,_RNvMNtNtCs2XshHk0aCOj_9paperboat3app13session_drainNtB4_3App29handle_worker_session_message
FNDA:1,_RNvMNtNtCs2XshHk0aCOj_9paperboat3app13session_drainNtB4_3App30drain_session_messages_from_rx
FNF:83
FNH:71
DA:17,92
DA:20,92
DA:21,7
DA:22,7
DA:24,7
DA:25,2
DA:26,5
DA:27,85
DA:28,90
DA:29,92
DA:34,379
DA:35,379
DA:36,379
DA:37,379
DA:38,379
DA:39,379
DA:40,379
DA:41,379
DA:42,379
DA:44,379
DA:45,0
DA:46,379
DA:48,379
DA:49,0
DA:53,379
DA:54,379
DA:55,379
DA:56,379
DA:59,379
DA:60,0
DA:61,379
DA:63,379
DA:64,0
DA:68,379
DA:69,379
DA:70,379
DA:71,379
DA:73,379
DA:74,0
DA:77,379
DA:79,379
DA:80,296
DA:81,296
DA:82,296
DA:83,296
DA:85,294
DA:86,294
DA:87,2
DA:89,83
DA:90,41
DA:91,41
DA:92,41
DA:93,41
DA:94,0
DA:96,42
DA:97,41
DA:98,41
DA:99,41
DA:100,41
DA:101,41
DA:102,41
DA:103,41
DA:104,41
DA:105,41
DA:106,41
DA:107,41
DA:108,41
DA:109,41
DA:110,41
DA:111,41
DA:112,41
DA:113,3
DA:114,38
DA:119,1
DA:120,1
DA:121,1
DA:124,0
DA:125,0
DA:126,0
DA:127,0
DA:128,0
DA:129,0
DA:130,0
DA:131,0
DA:132,0
DA:133,0
DA:136,0
DA:137,0
DA:138,0
DA:141,0
DA:143,0
DA:144,0
DA:145,0
DA:146,0
DA:150,378
DA:151,379
DA:159,1
DA:160,1
DA:161,1
DA:162,1
DA:163,1
DA:164,2
DA:165,2
DA:166,2
DA:167,2
DA:169,2
DA:170,2
DA:171,2
DA:172,2
DA:176,2
DA:177,2
DA:179,2
DA:180,2
DA:181,2
DA:182,2
DA:184,2
DA:185,2
DA:188,2
DA:189,1
DA:193,1
DA:195,1
DA:197,1
DA:198,1
DA:199,1
DA:200,1
DA:202,1
DA:203,0
DA:205,0
DA:206,0
DA:207,0
DA:209,0
DA:210,0
DA:211,0
DA:212,0
DA:213,0
DA:215,0
DA:216,1
DA:222,110
DA:223,110
DA:224,110
DA:225,110
DA:226,110
DA:228,110
DA:229,110
DA:233,162
DA:234,0
DA:235,0
DA:236,162
DA:239,162
DA:240,162
DA:241,83
DA:242,66
DA:243,66
DA:244,65
DA:245,1
DA:247,17
DA:248,17
DA:249,17
DA:253,162
DA:254,79
DA:255,45
DA:256,45
DA:257,45
DA:258,0
DA:260,34
DA:261,34
DA:262,34
DA:268,110
DA:271,111
DA:272,111
DA:273,111
DA:274,111
DA:275,111
DA:276,111
DA:277,111
DA:278,111
DA:279,111
DA:281,111
DA:282,111
DA:283,111
DA:284,111
DA:287,111
DA:288,111
DA:290,111
DA:291,111
DA:292,111
DA:293,111
DA:295,111
DA:296,111
DA:299,111
DA:300,110
DA:301,110
DA:303,1
DA:304,1
DA:305,1
DA:306,1
DA:307,1
DA:309,1
DA:310,0
DA:312,0
DA:313,0
DA:314,0
DA:316,0
DA:317,0
DA:318,0
DA:319,0
DA:320,0
DA:321,1
DA:322,111
DA:339,1
DA:347,1
DA:356,1
DA:357,1
DA:365,1
DA:366,1
DA:369,1
DA:372,1
DA:373,1
DA:374,1
DA:375,1
DA:376,1
DA:379,1
DA:381,1
DA:382,1
DA:383,1
DA:386,1
DA:387,1
DA:388,1
DA:391,1
DA:395,1
DA:396,1
DA:403,1
DA:405,1
DA:407,1
DA:408,1
DA:411,3
DA:412,3
DA:413,3
DA:414,3
DA:415,3
DA:416,3
DA:417,3
DA:422,3
DA:423,3
DA:425,3
DA:426,3
DA:427,3
DA:428,3
DA:429,3
DA:431,3
DA:433,1
DA:436,1
DA:437,1
DA:438,1
DA:439,1
DA:440,1
DA:441,1
DA:442,1
DA:447,1
DA:448,1
DA:449,1
DA:450,1
DA:452,1
DA:453,1
DA:456,1
DA:457,1
DA:458,1
DA:459,1
DA:460,1
DA:461,1
DA:462,1
DA:467,1
DA:468,1
DA:469,1
DA:470,1
DA:472,1
DA:473,1
DA:476,1
DA:477,1
DA:478,1
DA:479,1
DA:480,1
DA:481,1
DA:482,1
DA:483,1
DA:488,1
DA:489,1
DA:490,1
DA:491,1
DA:492,1
DA:494,1
DA:495,1
DA:498,1
DA:499,1
DA:500,1
DA:501,1
DA:502,1
DA:503,1
DA:504,1
DA:509,1
DA:510,1
DA:511,1
DA:512,1
DA:513,1
DA:515,1
DA:516,1
DA:523,1
DA:524,1
DA:525,1
DA:526,1
DA:527,1
DA:528,1
DA:529,1
DA:530,1
DA:531,1
DA:537,1
DA:538,1
DA:539,1
DA:540,1
DA:541,1
DA:542,1
DA:544,1
DA:545,1
DA:548,1
DA:549,1
DA:550,1
DA:551,1
DA:552,1
DA:553,1
DA:554,1
DA:555,1
DA:556,1
DA:557,1
DA:558,1
DA:564,1
DA:565,1
DA:566,1
DA:567,1
DA:569,1
DA:570,1
DA:571,1
DA:572,1
DA:573,1
DA:574,1
DA:575,1
DA:576,1
DA:577,1
DA:579,1
DA:580,1
DA:581,1
DA:582,1
DA:585,1
DA:586,1
DA:587,1
DA:588,1
DA:589,1
DA:590,1
DA:591,1
DA:592,1
DA:593,1
DA:594,1
DA:595,1
DA:601,1
DA:602,1
DA:603,1
DA:604,1
DA:605,1
DA:606,1
DA:608,1
DA:609,1
DA:616,1
DA:617,1
DA:618,1
DA:619,1
DA:620,1
DA:621,1
DA:622,1
DA:623,1
DA:624,1
DA:630,1
DA:631,1
DA:632,1
DA:633,1
DA:634,1
DA:637,1
DA:638,1
DA:641,1
DA:642,1
DA:643,1
DA:644,1
DA:647,1
DA:648,1
DA:649,1
BRF:0
BRH:0
LF:456
LH:398
end_of_record
SF:/Users/dbmrq/Documents/Programação/Misc/paperboat/src/app/socket.rs
FN:132,_RNvNtNtCs2XshHk0aCOj_9paperboat3app6socket12setup_socket
FN:27,_RNvMNtNtCs2XshHk0aCOj_9paperboat3app6socketNtB2_17AgentSocketHandle7cleanup
FN:170,_RNvNtNtCs2XshHk0aCOj_9paperboat3app6socket14cleanup_socket
FN:61,_RNvNtNtCs2XshHk0aCOj_9paperboat3app6socket18setup_agent_socket
FN:184,_RNvNtNtCs2XshHk0aCOj_9paperboat3app6socket21handle_mcp_connection
FN:151,_RNCNCNCNvNtNtCs2XshHk0aCOj_9paperboat3app6socket12setup_socket000Bb_
FN:96,_RNCNCNCNvNtNtCs2XshHk0aCOj_9paperboat3app6socket18setup_agent_socket0s_00Bb_
FN:146,_RNCNCNvNtNtCs2XshHk0aCOj_9paperboat3app6socket12setup_socket00B9_
FN:66,_RNCNCNvNtNtCs2XshHk0aCOj_9paperboat3app6socket18setup_agent_socket00B9_
FN:88,_RNCNCNvNtNtCs2XshHk0aCOj_9paperboat3app6socket18setup_agent_socket0s_0B9_
FN:132,_RNCNvNtNtCs2XshHk0aCOj_9paperboat3app6socket12setup_socket0B7_
FN:61,_RNCNvNtNtCs2XshHk0aCOj_9paperboat3app6socket18setup_agent_socket0B7_
FN:184,_RNCNvNtNtCs2XshHk0aCOj_9paperboat3app6socket21handle_mcp_connection0B7_
FN:37,_RNvXs_NtNtCs2XshHk0aCOj_9paperboat3app6socketNtB4_17AgentSocketHandleNtNtNtCskpTlHb4dJmc_4core3ops4drop4Drop4drop
FNDA:0,_RNvNtNtCs2XshHk0aCOj_9paperboat3app6socket12setup_socket
FNDA:2,_RNvMNtNtCs2XshHk0aCOj_9paperboat3app6socketNtB2_17AgentSocketHandle7cleanup
FNDA:40,_RNvNtNtCs2XshHk0aCOj_9paperboat3app6socket14cleanup_socket
FNDA:3,_RNvNtNtCs2XshHk0aCOj_9paperboat3app6socket18setup_agent_socket
FNDA:0,_RNvNtNtCs2XshHk0aCOj_9paperboat3app6socket21handle_mcp_connection
FNDA:0,_RNCNCNCNvNtNtCs2XshHk0aCOj_9paperboat3app6socket12setup_socket000Bb_
FNDA:0,_RNCNCNCNvNtNtCs2XshHk0aCOj_9paperboat3app6socket18setup_agent_socket0s_00Bb_
FNDA:0,_RNCNCNvNtNtCs2XshHk0aCOj_9paperboat3app6socket12setup_socket00B9_
FNDA:0,_RNCNCNvNtNtCs2XshHk0aCOj_9paperboat3app6socket18setup_agent_socket00B9_
FNDA:3,_RNCNCNvNtNtCs2XshHk0aCOj_9paperboat3app6socket18setup_agent_socket0s_0B9_
FNDA:0,_RNCNvNtNtCs2XshHk0aCOj_9paperboat3app6socket12setup_socket0B7_
FNDA:3,_RNCNvNtNtCs2XshHk0aCOj_9paperboat3app6socket18setup_agent_socket0B7_
FNDA:0,_RNCNvNtNtCs2XshHk0aCOj_9paperboat3app6socket21handle_mcp_connection0B7_
FNDA:3,_RNvXs_NtNtCs2XshHk0aCOj_9paperboat3app6socketNtB4_17AgentSocketHandleNtNtNtCskpTlHb4dJmc_4core3ops4drop4Drop4drop
FNF:14
FNH:6
DA:27,2
DA:29,2
DA:32,2
DA:33,2
DA:37,3
DA:39,3
DA:45,3
DA:48,3
DA:49,3
DA:61,3
DA:64,3
DA:66,3
DA:67,0
DA:68,0
DA:72,3
DA:73,0
DA:76,3
DA:78,3
DA:85,3
DA:87,3
DA:88,3
DA:89,3
DA:91,3
DA:92,0
DA:93,0
DA:94,0
DA:95,0
DA:96,0
DA:97,0
DA:98,0
DA:100,0
DA:105,0
DA:107,0
DA:109,0
DA:110,0
DA:114,0
DA:115,0
DA:120,3
DA:122,3
DA:123,3
DA:124,3
DA:125,3
DA:126,3
DA:127,3
DA:132,0
DA:135,0
DA:137,0
DA:138,0
DA:139,0
DA:141,0
DA:144,0
DA:146,0
DA:148,0
DA:149,0
DA:150,0
DA:151,0
DA:152,0
DA:153,0
DA:154,0
DA:155,0
DA:157,0
DA:159,0
DA:160,0
DA:164,0
DA:166,0
DA:167,0
DA:170,40
DA:172,40
DA:173,0
DA:174,40
DA:177,40
DA:178,40
DA:184,0
DA:185,0
DA:186,0
DA:187,0
DA:190,0
DA:191,0
DA:192,0
DA:193,0
DA:195,0
DA:196,0
DA:198,0
DA:200,0
DA:205,0
DA:208,0
DA:209,0
DA:210,0
DA:211,0
DA:212,0
DA:213,0
DA:214,0
DA:216,0
DA:221,0
DA:222,0
DA:223,0
DA:224,0
DA:225,0
DA:226,0
DA:232,0
DA:233,0
DA:234,0
DA:235,0
DA:240,0
DA:241,0
DA:242,0
DA:243,0
DA:247,0
DA:254,0
DA:255,0
DA:256,0
DA:257,0
DA:259,0
DA:261,0
DA:262,0
BRF:0
BRH:0
LF:124
LH:34
end_of_record
SF:/Users/dbmrq/Documents/Programação/Misc/paperboat/src/app/spawn_config.rs
FN:49,_RNCNvNtNtCs2XshHk0aCOj_9paperboat3app12spawn_config35validate_no_unreplaced_placeholders0B7_
FN:67,_RNvNtNtCs2XshHk0aCOj_9paperboat3app12spawn_config19build_custom_prompt
FN:46,_RNvNtNtCs2XshHk0aCOj_9paperboat3app12spawn_config35validate_no_unreplaced_placeholders
FN:103,_RNvNtNtNtCs2XshHk0aCOj_9paperboat3app12spawn_config5testss_24test_build_custom_prompt
FN:116,_RNvNtNtNtCs2XshHk0aCOj_9paperboat3app12spawn_config5testss_26test_agent_result_creation
FN:83,_RNvNtNtNtCs2XshHk0aCOj_9paperboat3app12spawn_config5testss_45test_validate_no_unreplaced_placeholders_task
FN:76,_RNvNtNtNtCs2XshHk0aCOj_9paperboat3app12spawn_config5testss_48test_validate_no_unreplaced_placeholders_success
FN:93,_RNvNtNtNtCs2XshHk0aCOj_9paperboat3app12spawn_config5testss_49test_validate_no_unreplaced_placeholders_multiple
FNDA:207,_RNCNvNtNtCs2XshHk0aCOj_9paperboat3app12spawn_config35validate_no_unreplaced_placeholders0B7_
FNDA:1,_RNvNtNtCs2XshHk0aCOj_9paperboat3app12spawn_config19build_custom_prompt
FNDA:69,_RNvNtNtCs2XshHk0aCOj_9paperboat3app12spawn_config35validate_no_unreplaced_placeholders
FNDA:1,_RNvNtNtNtCs2XshHk0aCOj_9paperboat3app12spawn_config5testss_24test_build_custom_prompt
FNDA:1,_RNvNtNtNtCs2XshHk0aCOj_9paperboat3app12spawn_config5testss_26test_agent_result_creation
FNDA:1,_RNvNtNtNtCs2XshHk0aCOj_9paperboat3app12spawn_config5testss_45test_validate_no_unreplaced_placeholders_task
FNDA:1,_RNvNtNtNtCs2XshHk0aCOj_9paperboat3app12spawn_config5testss_48test_validate_no_unreplaced_placeholders_success
FNDA:1,_RNvNtNtNtCs2XshHk0aCOj_9paperboat3app12spawn_config5testss_49test_validate_no_unreplaced_placeholders_multiple
FNF:8
FNH:8
DA:46,69
DA:47,69
DA:48,69
DA:49,207
DA:50,69
DA:51,69
DA:53,69
DA:54,2
DA:57,2
DA:59,67
DA:61,67
DA:62,69
DA:67,1
DA:68,1
DA:69,1
DA:76,1
DA:77,1
DA:78,1
DA:79,1
DA:80,1
DA:83,1
DA:84,1
DA:85,1
DA:86,1
DA:87,1
DA:88,1
DA:89,1
DA:90,1
DA:93,1
DA:94,1
DA:95,1
DA:96,1
DA:97,1
DA:98,1
DA:99,1
DA:100,1
DA:103,1
DA:104,1
DA:105,1
DA:107,1
DA:108,1
DA:109,1
DA:110,1
DA:111,1
DA:112,1
DA:113,1
DA:116,1
DA:117,1
DA:118,1
DA:119,1
DA:120,1
DA:121,1
DA:122,1
DA:123,1
DA:125,1
DA:126,1
DA:127,1
DA:128,1
DA:129,1
BRF:0
BRH:0
LF:60
LH:60
end_of_record
SF:/Users/dbmrq/Documents/Programação/Misc/paperboat/src/app/tool_filtering.rs
FN:92,_RNvNtNtNtCs2XshHk0aCOj_9paperboat3app14tool_filtering5testss_36test_compute_removed_tools_with_none
FN:119,_RNvNtNtNtCs2XshHk0aCOj_9paperboat3app14tool_filtering5testss_40test_build_mcp_env_vars_no_removed_tools
FN:98,_RNvNtNtNtCs2XshHk0aCOj_9paperboat3app14tool_filtering5testss_41test_compute_removed_tools_with_whitelist
FN:128,_RNvNtNtNtCs2XshHk0aCOj_9paperboat3app14tool_filtering5testss_42test_build_mcp_env_vars_with_removed_tools
FN:110,_RNvNtNtNtCs2XshHk0aCOj_9paperboat3app14tool_filtering5testss_42test_compute_removed_tools_empty_whitelist
FN:33,_RNCNvNtNtCs2XshHk0aCOj_9paperboat3app14tool_filtering21compute_removed_tools0B7_
FN:44,_RNvNtNtCs2XshHk0aCOj_9paperboat3app14tool_filtering18build_mcp_env_vars
FN:29,_RNvNtNtCs2XshHk0aCOj_9paperboat3app14tool_filtering21compute_removed_tools
FN:64,_RNvNtNtCs2XshHk0aCOj_9paperboat3app14tool_filtering23build_mcp_server_config
FNDA:1,_RNvNtNtNtCs2XshHk0aCOj_9paperboat3app14tool_filtering5testss_36test_compute_removed_tools_with_none
FNDA:1,_RNvNtNtNtCs2XshHk0aCOj_9paperboat3app14tool_filtering5testss_40test_build_mcp_env_vars_no_removed_tools
FNDA:1,_RNvNtNtNtCs2XshHk0aCOj_9paperboat3app14tool_filtering5testss_41test_compute_removed_tools_with_whitelist
FNDA:1,_RNvNtNtNtCs2XshHk0aCOj_9paperboat3app14tool_filtering5testss_42test_build_mcp_env_vars_with_removed_tools
FNDA:1,_RNvNtNtNtCs2XshHk0aCOj_9paperboat3app14tool_filtering5testss_42test_compute_removed_tools_empty_whitelist
FNDA:20,_RNCNvNtNtCs2XshHk0aCOj_9paperboat3app14tool_filtering21compute_removed_tools0B7_
FNDA:68,_RNvNtNtCs2XshHk0aCOj_9paperboat3app14tool_filtering18build_mcp_env_vars
FNDA:3,_RNvNtNtCs2XshHk0aCOj_9paperboat3app14tool_filtering21compute_removed_tools
FNDA:66,_RNvNtNtCs2XshHk0aCOj_9paperboat3app14tool_filtering23build_mcp_server_config
FNF:9
FNH:9
DA:29,3
DA:30,3
DA:31,2
DA:32,2
DA:33,20
DA:34,2
DA:35,2
DA:36,1
DA:38,3
DA:44,68
DA:45,68
DA:46,68
DA:47,68
DA:50,68
DA:51,67
DA:52,67
DA:53,67
DA:54,67
DA:55,67
DA:57,68
DA:58,68
DA:64,66
DA:65,66
DA:66,66
DA:67,66
DA:68,66
DA:69,66
DA:70,66
DA:71,66
DA:73,66
DA:74,1
DA:76,65
DA:79,66
DA:80,66
DA:81,66
DA:82,66
DA:83,66
DA:85,66
DA:92,1
DA:93,1
DA:94,1
DA:95,1
DA:98,1
DA:99,1
DA:100,1
DA:103,1
DA:104,1
DA:105,1
DA:106,1
DA:107,1
DA:110,1
DA:111,1
DA:112,1
DA:115,1
DA:116,1
DA:119,1
DA:120,1
DA:122,1
DA:123,1
DA:124,1
DA:125,1
DA:128,1
DA:129,1
DA:130,1
DA:132,1
DA:133,1
DA:134,1
DA:135,1
DA:136,1
DA:137,1
BRF:0
BRH:0
LF:71
LH:71
end_of_record
SF:/Users/dbmrq/Documents/Programação/Misc/paperboat/src/app/types.rs
FN:34,_RNvNtNtCs2XshHk0aCOj_9paperboat3app5types16truncate_for_log
FN:45,_RNvNtNtCs2XshHk0aCOj_9paperboat3app5types21format_duration_human
FNDA:178,_RNvNtNtCs2XshHk0aCOj_9paperboat3app5types16truncate_for_log
FNDA:70,_RNvNtNtCs2XshHk0aCOj_9paperboat3app5types21format_duration_human
FNF:2
FNH:2
DA:34,178
DA:36,178
DA:37,178
DA:38,135
DA:40,43
DA:42,178
DA:45,70
DA:46,70
DA:47,70
DA:48,0
DA:49,0
DA:50,0
DA:51,70
DA:52,0
DA:54,70
DA:56,70
BRF:0
BRH:0
LF:16
LH:12
end_of_record
SF:/Users/dbmrq/Documents/Programação/Misc/paperboat/src/backend/auggie/acp.rs
FN:559,_RINvNvNtNtNtNtCs2XshHk0aCOj_9paperboat7backend6auggie3acp5testss_38test_auggie_acp_transport_is_send_sync16assert_send_syncNtB6_18AuggieAcpTransportEBc_
FN:496,_RNvNtNtNtNtCs2XshHk0aCOj_9paperboat7backend6auggie3acp5testss_29test_convert_end_notification
FN:396,_RNvNtNtNtNtCs2XshHk0aCOj_9paperboat7backend6auggie3acp5testss_30test_convert_text_notification
FN:421,_RNvNtNtNtNtCs2XshHk0aCOj_9paperboat7backend6auggie3acp5testss_34test_convert_tool_use_notification
FN:468,_RNvNtNtNtNtCs2XshHk0aCOj_9paperboat7backend6auggie3acp5testss_36test_convert_completion_notification
FN:539,_RNvNtNtNtNtCs2XshHk0aCOj_9paperboat7backend6auggie3acp5testss_36test_convert_uses_default_session_id
FN:511,_RNvNtNtNtNtCs2XshHk0aCOj_9paperboat7backend6auggie3acp5testss_37test_convert_unknown_type_returns_raw
FN:558,_RNvNtNtNtNtCs2XshHk0aCOj_9paperboat7backend6auggie3acp5testss_38test_auggie_acp_transport_is_send_sync
FN:527,_RNvNtNtNtNtCs2XshHk0aCOj_9paperboat7backend6auggie3acp5testss_48test_convert_non_update_notification_returns_raw
FN:452,_RNvNtNtNtNtCs2XshHk0aCOj_9paperboat7backend6auggie3acp5testss_52test_session_update_to_json_uses_legacy_router_shape
FN:104,_RNvMNtNtNtCs2XshHk0aCOj_9paperboat7backend6auggie3acpNtB2_18AuggieAcpTransport22session_update_to_json
FN:79,_RNvMNtNtNtCs2XshHk0aCOj_9paperboat7backend6auggie3acpNtB2_18AuggieAcpTransport28start_notification_converter
FN:65,_RNvMNtNtNtCs2XshHk0aCOj_9paperboat7backend6auggie3acpNtB2_18AuggieAcpTransport3new
FN:188,_RNvNtNtNtCs2XshHk0aCOj_9paperboat7backend6auggie3acp30convert_notification_to_update
FN:272,_RNvXs0_NtNtNtCs2XshHk0aCOj_9paperboat7backend6auggie3acpNtB5_18AuggieAcpTransportNtNtB9_9transport14AgentTransport10initialize
FN:302,_RNvXs0_NtNtNtCs2XshHk0aCOj_9paperboat7backend6auggie3acpNtB5_18AuggieAcpTransportNtNtB9_9transport14AgentTransport11send_prompt
FN:280,_RNvXs0_NtNtNtCs2XshHk0aCOj_9paperboat7backend6auggie3acpNtB5_18AuggieAcpTransportNtNtB9_9transport14AgentTransport14create_session
FN:324,_RNvXs0_NtNtNtCs2XshHk0aCOj_9paperboat7backend6auggie3acpNtB5_18AuggieAcpTransportNtNtB9_9transport14AgentTransport15respond_to_tool
FN:310,_RNvXs0_NtNtNtCs2XshHk0aCOj_9paperboat7backend6auggie3acpNtB5_18AuggieAcpTransportNtNtB9_9transport14AgentTransport18take_notifications
FN:358,_RNvXs0_NtNtNtCs2XshHk0aCOj_9paperboat7backend6auggie3acpNtB5_18AuggieAcpTransportNtNtB9_9transport14AgentTransport20take_notification_rx
FN:348,_RNvXs0_NtNtNtCs2XshHk0aCOj_9paperboat7backend6auggie3acpNtB5_18AuggieAcpTransportNtNtB9_9transport14AgentTransport4recv
FN:335,_RNvXs0_NtNtNtCs2XshHk0aCOj_9paperboat7backend6auggie3acpNtB5_18AuggieAcpTransportNtNtB9_9transport14AgentTransport8shutdown
FN:89,_RNCNvMNtNtNtCs2XshHk0aCOj_9paperboat7backend6auggie3acpNtB4_18AuggieAcpTransport28start_notification_converter0Ba_
FN:65,_RNCNvMNtNtNtCs2XshHk0aCOj_9paperboat7backend6auggie3acpNtB4_18AuggieAcpTransport3new0Ba_
FN:204,_RNCNvNtNtNtCs2XshHk0aCOj_9paperboat7backend6auggie3acp30convert_notification_to_update0B9_
FN:245,_RNCNvNtNtNtCs2XshHk0aCOj_9paperboat7backend6auggie3acp30convert_notification_to_updates_0B9_
FN:362,_RNCNvXs0_NtNtNtCs2XshHk0aCOj_9paperboat7backend6auggie3acpNtB7_18AuggieAcpTransportNtNtBb_9transport14AgentTransport20take_notification_rx0Bd_
FN:378,_RNvXs_NtNtNtCs2XshHk0aCOj_9paperboat7backend6auggie3acpNtB4_18AuggieAcpTransportNtNtNtCskpTlHb4dJmc_4core3ops4drop4Drop4drop
FNDA:1,_RINvNvNtNtNtNtCs2XshHk0aCOj_9paperboat7backend6auggie3acp5testss_38test_auggie_acp_transport_is_send_sync16assert_send_syncNtB6_18AuggieAcpTransportEBc_
FNDA:1,_RNvNtNtNtNtCs2XshHk0aCOj_9paperboat7backend6auggie3acp5testss_29test_convert_end_notification
FNDA:1,_RNvNtNtNtNtCs2XshHk0aCOj_9paperboat7backend6auggie3acp5testss_30test_convert_text_notification
FNDA:1,_RNvNtNtNtNtCs2XshHk0aCOj_9paperboat7backend6auggie3acp5testss_34test_convert_tool_use_notification
FNDA:1,_RNvNtNtNtNtCs2XshHk0aCOj_9paperboat7backend6auggie3acp5testss_36test_convert_completion_notification
FNDA:1,_RNvNtNtNtNtCs2XshHk0aCOj_9paperboat7backend6auggie3acp5testss_36test_convert_uses_default_session_id
FNDA:1,_RNvNtNtNtNtCs2XshHk0aCOj_9paperboat7backend6auggie3acp5testss_37test_convert_unknown_type_returns_raw
FNDA:1,_RNvNtNtNtNtCs2XshHk0aCOj_9paperboat7backend6auggie3acp5testss_38test_auggie_acp_transport_is_send_sync
FNDA:1,_RNvNtNtNtNtCs2XshHk0aCOj_9paperboat7backend6auggie3acp5testss_48test_convert_non_update_notification_returns_raw
FNDA:1,_RNvNtNtNtNtCs2XshHk0aCOj_9paperboat7backend6auggie3acp5testss_52test_session_update_to_json_uses_legacy_router_shape
FNDA:1,_RNvMNtNtNtCs2XshHk0aCOj_9paperboat7backend6auggie3acpNtB2_18AuggieAcpTransport22session_update_to_json
FNDA:0,_RNvMNtNtNtCs2XshHk0aCOj_9paperboat7backend6auggie3acpNtB2_18AuggieAcpTransport28start_notification_converter
FNDA:0,_RNvMNtNtNtCs2XshHk0aCOj_9paperboat7backend6auggie3acpNtB2_18AuggieAcpTransport3new
FNDA:7,_RNvNtNtNtCs2XshHk0aCOj_9paperboat7backend6auggie3acp30convert_notification_to_update
FNDA:0,_RNvXs0_NtNtNtCs2XshHk0aCOj_9paperboat7backend6auggie3acpNtB5_18AuggieAcpTransportNtNtB9_9transport14AgentTransport10initialize
FNDA:0,_RNvXs0_NtNtNtCs2XshHk0aCOj_9paperboat7backend6auggie3acpNtB5_18AuggieAcpTransportNtNtB9_9transport14AgentTransport11send_prompt
FNDA:0,_RNvXs0_NtNtNtCs2XshHk0aCOj_9paperboat7backend6auggie3acpNtB5_18AuggieAcpTransportNtNtB9_9transport14AgentTransport14create_session
FNDA:0,_RNvXs0_NtNtNtCs2XshHk0aCOj_9paperboat7backend6auggie3acpNtB5_18AuggieAcpTransportNtNtB9_9transport14AgentTransport15respond_to_tool
FNDA:0,_RNvXs0_NtNtNtCs2XshHk0aCOj_9paperboat7backend6auggie3acpNtB5_18AuggieAcpTransportNtNtB9_9transport14AgentTransport18take_notifications
FNDA:0,_RNvXs0_NtNtNtCs2XshHk0aCOj_9paperboat7backend6auggie3acpNtB5_18AuggieAcpTransportNtNtB9_9transport14AgentTransport20take_notification_rx
FNDA:0,_RNvXs0_NtNtNtCs2XshHk0aCOj_9paperboat7backend6auggie3acpNtB5_18AuggieAcpTransportNtNtB9_9transport14AgentTransport4recv
FNDA:0,_RNvXs0_NtNtNtCs2XshHk0aCOj_9paperboat7backend6auggie3acpNtB5_18AuggieAcpTransportNtNtB9_9transport14AgentTransport8shutdown
FNDA:0,_RNCNvMNtNtNtCs2XshHk0aCOj_9paperboat7backend6auggie3acpNtB4_18AuggieAcpTransport28start_notification_converter0Ba_
FNDA:0,_RNCNvMNtNtNtCs2XshHk0aCOj_9paperboat7backend6auggie3acpNtB4_18AuggieAcpTransport3new0Ba_
FNDA:5,_RNCNvNtNtNtCs2XshHk0aCOj_9paperboat7backend6auggie3acp30convert_notification_to_update0B9_
FNDA:1,_RNCNvNtNtNtCs2XshHk0aCOj_9paperboat7backend6auggie3acp30convert_notification_to_updates_0B9_
FNDA:0,_RNCNvXs0_NtNtNtCs2XshHk0aCOj_9paperboat7backend6auggie3acpNtB7_18AuggieAcpTransportNtNtBb_9transport14AgentTransport20take_notification_rx0Bd_
FNDA:0,_RNvXs_NtNtNtCs2XshHk0aCOj_9paperboat7backend6auggie3acpNtB4_18AuggieAcpTransportNtNtNtCskpTlHb4dJmc_4core3ops4drop4Drop4drop
FNF:28
FNH:14
DA:65,0
DA:66,0
DA:67,0
DA:69,0
DA:70,0
DA:71,0
DA:72,0
DA:73,0
DA:74,0
DA:75,0
DA:76,0
DA:79,0
DA:81,0
DA:82,0
DA:83,0
DA:86,0
DA:87,0
DA:89,0
DA:90,0
DA:91,0
DA:92,0
DA:93,0
DA:94,0
DA:95,0
DA:96,0
DA:98,0
DA:99,0
DA:100,0
DA:104,1
DA:105,1
DA:107,1
DA:108,1
DA:109,1
DA:110,1
DA:111,1
DA:112,1
DA:113,1
DA:114,1
DA:115,1
DA:116,1
DA:122,0
DA:123,0
DA:124,0
DA:125,0
DA:126,0
DA:127,0
DA:128,0
DA:129,0
DA:130,0
DA:131,0
DA:132,0
DA:133,0
DA:134,0
DA:139,0
DA:140,0
DA:141,0
DA:142,0
DA:143,0
DA:144,0
DA:145,0
DA:146,0
DA:147,0
DA:148,0
DA:149,0
DA:150,0
DA:151,0
DA:156,0
DA:157,0
DA:158,0
DA:159,0
DA:160,0
DA:161,0
DA:162,0
DA:163,0
DA:164,0
DA:165,0
DA:166,0
DA:170,0
DA:172,1
DA:188,7
DA:189,7
DA:190,7
DA:191,7
DA:192,7
DA:193,7
DA:195,1
DA:196,1
DA:197,1
DA:198,1
DA:199,6
DA:201,6
DA:202,6
DA:203,6
DA:204,6
DA:205,6
DA:206,6
DA:207,6
DA:209,6
DA:210,6
DA:211,2
DA:212,2
DA:213,2
DA:214,2
DA:215,2
DA:217,4
DA:218,1
DA:219,1
DA:220,1
DA:221,1
DA:222,1
DA:223,1
DA:224,1
DA:225,1
DA:226,1
DA:228,3
DA:229,0
DA:230,0
DA:231,0
DA:232,0
DA:233,0
DA:234,0
DA:235,0
DA:236,0
DA:237,0
DA:238,0
DA:239,0
DA:240,0
DA:242,3
DA:243,2
DA:244,2
DA:245,2
DA:246,2
DA:247,2
DA:248,2
DA:249,2
DA:250,2
DA:251,2
DA:252,2
DA:253,2
DA:254,2
DA:255,2
DA:259,1
DA:260,1
DA:261,1
DA:262,1
DA:265,7
DA:272,0
DA:274,0
DA:280,0
DA:297,0
DA:302,0
DA:304,0
DA:310,0
DA:311,0
DA:312,0
DA:324,0
DA:330,0
DA:335,0
DA:342,0
DA:348,0
DA:350,0
DA:358,0
DA:359,0
DA:360,0
DA:362,0
DA:363,0
DA:364,0
DA:365,0
DA:366,0
DA:367,0
DA:368,0
DA:370,0
DA:371,0
DA:373,0
DA:374,0
DA:378,0
DA:380,0
DA:381,0
DA:382,0
DA:383,0
DA:396,1
DA:397,1
DA:398,1
DA:399,1
DA:400,1
DA:401,1
DA:402,1
DA:406,1
DA:407,1
DA:409,1
DA:410,1
DA:411,1
DA:413,1
DA:414,1
DA:416,0
DA:418,1
DA:421,1
DA:422,1
DA:423,1
DA:424,1
DA:425,1
DA:426,1
DA:427,1
DA:428,1
DA:429,1
DA:433,1
DA:434,1
DA:436,1
DA:437,1
DA:438,1
DA:439,1
DA:440,1
DA:442,1
DA:443,1
DA:444,1
DA:445,1
DA:447,0
DA:449,1
DA:452,1
DA:453,1
DA:454,1
DA:455,1
DA:456,1
DA:458,1
DA:459,1
DA:460,1
DA:461,1
DA:464,1
DA:465,1
DA:468,1
DA:469,1
DA:470,1
DA:471,1
DA:472,1
DA:473,1
DA:474,1
DA:475,1
DA:479,1
DA:480,1
DA:482,1
DA:483,1
DA:484,1
DA:485,1
DA:487,1
DA:488,1
DA:489,1
DA:491,0
DA:493,1
DA:496,1
DA:497,1
DA:498,1
DA:499,1
DA:500,1
DA:501,1
DA:505,1
DA:506,1
DA:507,1
DA:508,1
DA:511,1
DA:512,1
DA:513,1
DA:514,1
DA:515,1
DA:516,1
DA:517,1
DA:521,1
DA:522,1
DA:523,1
DA:524,1
DA:527,1
DA:528,1
DA:529,1
DA:530,1
DA:533,1
DA:534,1
DA:535,1
DA:536,1
DA:539,1
DA:540,1
DA:541,1
DA:542,1
DA:543,1
DA:544,1
DA:548,1
DA:549,1
DA:550,1
DA:551,1
DA:553,0
DA:555,1
DA:558,1
DA:559,1
DA:560,1
DA:561,1
BRF:0
BRH:0
LF:298
LH:179
end_of_record
SF:/Users/dbmrq/Documents/Programação/Misc/paperboat/src/backend/auggie/auth.rs
FN:93,_RNvNtNtNtNtCs2XshHk0aCOj_9paperboat7backend6auggie4auth5testss_34test_session_file_path_is_absolute
FN:69,_RNvNtNtNtNtCs2XshHk0aCOj_9paperboat7backend6auggie4auth5testss_36test_session_file_path_expands_tilde
FN:103,_RNvNtNtNtNtCs2XshHk0aCOj_9paperboat7backend6auggie4auth5testss_52test_check_auggie_auth_returns_correct_error_message
FN:51,_RNvNtNtNtCs2XshHk0aCOj_9paperboat7backend6auggie4auth17check_auggie_auth
FN:25,_RNvNtNtNtCs2XshHk0aCOj_9paperboat7backend6auggie4auth17session_file_path
FNDA:1,_RNvNtNtNtNtCs2XshHk0aCOj_9paperboat7backend6auggie4auth5testss_34test_session_file_path_is_absolute
FNDA:1,_RNvNtNtNtNtCs2XshHk0aCOj_9paperboat7backend6auggie4auth5testss_36test_session_file_path_expands_tilde
FNDA:1,_RNvNtNtNtNtCs2XshHk0aCOj_9paperboat7backend6auggie4auth5testss_52test_check_auggie_auth_returns_correct_error_message
FNDA:1,_RNvNtNtNtCs2XshHk0aCOj_9paperboat7backend6auggie4auth17check_auggie_auth
FNDA:3,_RNvNtNtNtCs2XshHk0aCOj_9paperboat7backend6auggie4auth17session_file_path
FNF:5
FNH:5
DA:25,3
DA:26,3
DA:27,3
DA:28,3
DA:51,1
DA:52,1
DA:54,1
DA:55,0
DA:59,1
DA:61,1
DA:62,1
DA:69,1
DA:70,1
DA:72,1
DA:73,1
DA:74,1
DA:79,1
DA:80,1
DA:85,1
DA:86,1
DA:90,1
DA:93,1
DA:94,1
DA:95,1
DA:96,1
DA:100,1
DA:103,1
DA:114,1
DA:115,1
BRF:0
BRH:0
LF:29
LH:28
end_of_record
SF:/Users/dbmrq/Documents/Programação/Misc/paperboat/src/backend/auggie/cache.rs
FN:66,_RNCNvNtNtNtCs2XshHk0aCOj_9paperboat7backend6auggie5cache18setup_auggie_cache0B9_
FN:86,_RNCNvNtNtNtCs2XshHk0aCOj_9paperboat7backend6auggie5cache18setup_auggie_caches0_0B9_
FN:76,_RNCNvNtNtNtCs2XshHk0aCOj_9paperboat7backend6auggie5cache18setup_auggie_caches_0B9_
FN:50,_RNvNtNtNtCs2XshHk0aCOj_9paperboat7backend6auggie5cache18setup_auggie_cache
FN:103,_RNvNtNtNtNtCs2XshHk0aCOj_9paperboat7backend6auggie5cache5tests16setup_test_cache
FN:129,_RNvNtNtNtNtCs2XshHk0aCOj_9paperboat7backend6auggie5cache5testss_30test_worker_returns_empty_path
FN:138,_RNvNtNtNtNtCs2XshHk0aCOj_9paperboat7backend6auggie5cache5testss_39test_settings_format_with_removed_tools
FN:154,_RNvNtNtNtNtCs2XshHk0aCOj_9paperboat7backend6auggie5cache5testss_45test_settings_format_with_empty_removed_tools
FNDA:0,_RNCNvNtNtNtCs2XshHk0aCOj_9paperboat7backend6auggie5cache18setup_auggie_cache0B9_
FNDA:0,_RNCNvNtNtNtCs2XshHk0aCOj_9paperboat7backend6auggie5cache18setup_auggie_caches0_0B9_
FNDA:0,_RNCNvNtNtNtCs2XshHk0aCOj_9paperboat7backend6auggie5cache18setup_auggie_caches_0B9_
FNDA:0,_RNvNtNtNtCs2XshHk0aCOj_9paperboat7backend6auggie5cache18setup_auggie_cache
FNDA:2,_RNvNtNtNtNtCs2XshHk0aCOj_9paperboat7backend6auggie5cache5tests16setup_test_cache
FNDA:1,_RNvNtNtNtNtCs2XshHk0aCOj_9paperboat7backend6auggie5cache5testss_30test_worker_returns_empty_path
FNDA:1,_RNvNtNtNtNtCs2XshHk0aCOj_9paperboat7backend6auggie5cache5testss_39test_settings_format_with_removed_tools
FNDA:1,_RNvNtNtNtNtCs2XshHk0aCOj_9paperboat7backend6auggie5cache5testss_45test_settings_format_with_empty_removed_tools
FNF:8
FNH:4
DA:50,0
DA:52,0
DA:54,0
DA:55,0
DA:56,0
DA:57,0
DA:60,0
DA:61,0
DA:64,0
DA:65,0
DA:66,0
DA:67,0
DA:68,0
DA:71,0
DA:72,0
DA:74,0
DA:75,0
DA:76,0
DA:77,0
DA:78,0
DA:81,0
DA:82,0
DA:84,0
DA:85,0
DA:86,0
DA:87,0
DA:90,0
DA:93,0
DA:94,0
DA:103,2
DA:104,2
DA:105,2
DA:106,2
DA:107,2
DA:108,2
DA:109,1
DA:110,1
DA:111,0
DA:114,2
DA:115,2
DA:118,2
DA:119,2
DA:122,2
DA:123,2
DA:125,2
DA:126,2
DA:129,1
DA:133,1
DA:134,1
DA:135,1
DA:138,1
DA:139,1
DA:140,1
DA:141,1
DA:143,1
DA:144,1
DA:145,1
DA:147,1
DA:148,1
DA:149,1
DA:150,1
DA:151,1
DA:154,1
DA:155,1
DA:157,1
DA:158,1
DA:159,1
DA:161,1
DA:162,1
BRF:0
BRH:0
LF:72
LH:39
end_of_record
SF:/Users/dbmrq/Documents/Programação/Misc/paperboat/src/backend/auggie/mod.rs
FN:242,_RNvNtNtNtCs2XshHk0aCOj_9paperboat7backend6auggie5testss_24test_auggie_backend_name
FN:268,_RNvNtNtNtCs2XshHk0aCOj_9paperboat7backend6auggie5testss_27test_auggie_backend_default
FN:248,_RNvNtNtNtCs2XshHk0aCOj_9paperboat7backend6auggie5testss_30test_auggie_backend_login_hint
FN:262,_RNvNtNtNtCs2XshHk0aCOj_9paperboat7backend6auggie5testss_32test_auggie_backend_is_send_sync
FN:254,_RNvNtNtNtCs2XshHk0aCOj_9paperboat7backend6auggie5testss_38test_auggie_backend_auth_error_message
FN:285,_RNvNtNtNtCs2XshHk0aCOj_9paperboat7backend6auggie5testss_39test_auggie_supported_transports_no_cli
FN:292,_RNvNtNtNtCs2XshHk0aCOj_9paperboat7backend6auggie5testss_40test_auggie_create_transport_rejects_cli
FN:277,_RNvNtNtNtCs2XshHk0aCOj_9paperboat7backend6auggie5testss_41test_auggie_supported_transports_only_acp
FN:75,_RNvMNtNtCs2XshHk0aCOj_9paperboat7backend6auggieNtB2_13AuggieBackend3new
FN:92,_RNvXs0_NtNtCs2XshHk0aCOj_9paperboat7backend6auggieNtB5_13AuggieBackendNtNtB7_5trait7Backend10check_auth
FN:232,_RNvXs0_NtNtCs2XshHk0aCOj_9paperboat7backend6auggieNtB5_13AuggieBackendNtNtB7_5trait7Backend10login_hint
FN:136,_RNvXs0_NtNtCs2XshHk0aCOj_9paperboat7backend6auggieNtB5_13AuggieBackendNtNtB7_5trait7Backend11cleanup_mcp
FN:100,_RNvXs0_NtNtCs2XshHk0aCOj_9paperboat7backend6auggieNtB5_13AuggieBackendNtNtB7_5trait7Backend12resolve_tier
FN:146,_RNvXs0_NtNtCs2XshHk0aCOj_9paperboat7backend6auggieNtB5_13AuggieBackendNtNtB7_5trait7Backend13create_client
FN:96,_RNvXs0_NtNtCs2XshHk0aCOj_9paperboat7backend6auggieNtB5_13AuggieBackendNtNtB7_5trait7Backend15available_tiers
FN:190,_RNvXs0_NtNtCs2XshHk0aCOj_9paperboat7backend6auggieNtB5_13AuggieBackendNtNtB7_5trait7Backend16create_transport
FN:153,_RNvXs0_NtNtCs2XshHk0aCOj_9paperboat7backend6auggieNtB5_13AuggieBackendNtNtB7_5trait7Backend17setup_agent_cache
FN:168,_RNvXs0_NtNtCs2XshHk0aCOj_9paperboat7backend6auggieNtB5_13AuggieBackendNtNtB7_5trait7Backend20supported_transports
FN:88,_RNvXs0_NtNtCs2XshHk0aCOj_9paperboat7backend6auggieNtB5_13AuggieBackendNtNtB7_5trait7Backend4name
FN:131,_RNvXs0_NtNtCs2XshHk0aCOj_9paperboat7backend6auggieNtB5_13AuggieBackendNtNtB7_5trait7Backend9setup_mcp
FN:81,_RNvXs_NtNtCs2XshHk0aCOj_9paperboat7backend6auggieNtB4_13AuggieBackendNtNtCskpTlHb4dJmc_4core7default7Default7default
FN:263,_RINvNvNtNtNtCs2XshHk0aCOj_9paperboat7backend6auggie5testss_32test_auggie_backend_is_send_sync16assert_send_syncNtB6_13AuggieBackendEBa_
FN:292,_RNCNvNtNtNtCs2XshHk0aCOj_9paperboat7backend6auggie5testss_40test_auggie_create_transport_rejects_cli0B9_
FNDA:1,_RNvNtNtNtCs2XshHk0aCOj_9paperboat7backend6auggie5testss_24test_auggie_backend_name
FNDA:1,_RNvNtNtNtCs2XshHk0aCOj_9paperboat7backend6auggie5testss_27test_auggie_backend_default
FNDA:1,_RNvNtNtNtCs2XshHk0aCOj_9paperboat7backend6auggie5testss_30test_auggie_backend_login_hint
FNDA:1,_RNvNtNtNtCs2XshHk0aCOj_9paperboat7backend6auggie5testss_32test_auggie_backend_is_send_sync
FNDA:1,_RNvNtNtNtCs2XshHk0aCOj_9paperboat7backend6auggie5testss_38test_auggie_backend_auth_error_message
FNDA:1,_RNvNtNtNtCs2XshHk0aCOj_9paperboat7backend6auggie5testss_39test_auggie_supported_transports_no_cli
FNDA:1,_RNvNtNtNtCs2XshHk0aCOj_9paperboat7backend6auggie5testss_40test_auggie_create_transport_rejects_cli
FNDA:1,_RNvNtNtNtCs2XshHk0aCOj_9paperboat7backend6auggie5testss_41test_auggie_supported_transports_only_acp
FNDA:12,_RNvMNtNtCs2XshHk0aCOj_9paperboat7backend6auggieNtB2_13AuggieBackend3new
FNDA:0,_RNvXs0_NtNtCs2XshHk0aCOj_9paperboat7backend6auggieNtB5_13AuggieBackendNtNtB7_5trait7Backend10check_auth
FNDA:6,_RNvXs0_NtNtCs2XshHk0aCOj_9paperboat7backend6auggieNtB5_13AuggieBackendNtNtB7_5trait7Backend10login_hint
FNDA:0,_RNvXs0_NtNtCs2XshHk0aCOj_9paperboat7backend6auggieNtB5_13AuggieBackendNtNtB7_5trait7Backend11cleanup_mcp
FNDA:0,_RNvXs0_NtNtCs2XshHk0aCOj_9paperboat7backend6auggieNtB5_13AuggieBackendNtNtB7_5trait7Backend12resolve_tier
FNDA:0,_RNvXs0_NtNtCs2XshHk0aCOj_9paperboat7backend6auggieNtB5_13AuggieBackendNtNtB7_5trait7Backend13create_client
FNDA:0,_RNvXs0_NtNtCs2XshHk0aCOj_9paperboat7backend6auggieNtB5_13AuggieBackendNtNtB7_5trait7Backend15available_tiers
FNDA:1,_RNvXs0_NtNtCs2XshHk0aCOj_9paperboat7backend6auggieNtB5_13AuggieBackendNtNtB7_5trait7Backend16create_transport
FNDA:0,_RNvXs0_NtNtCs2XshHk0aCOj_9paperboat7backend6auggieNtB5_13AuggieBackendNtNtB7_5trait7Backend17setup_agent_cache
FNDA:2,_RNvXs0_NtNtCs2XshHk0aCOj_9paperboat7backend6auggieNtB5_13AuggieBackendNtNtB7_5trait7Backend20supported_transports
FNDA:5,_RNvXs0_NtNtCs2XshHk0aCOj_9paperboat7backend6auggieNtB5_13AuggieBackendNtNtB7_5trait7Backend4name
FNDA:0,_RNvXs0_NtNtCs2XshHk0aCOj_9paperboat7backend6auggieNtB5_13AuggieBackendNtNtB7_5trait7Backend9setup_mcp
FNDA:1,_RNvXs_NtNtCs2XshHk0aCOj_9paperboat7backend6auggieNtB4_13AuggieBackendNtNtCskpTlHb4dJmc_4core7default7Default7default
FNDA:1,_RINvNvNtNtNtCs2XshHk0aCOj_9paperboat7backend6auggie5testss_32test_auggie_backend_is_send_sync16assert_send_syncNtB6_13AuggieBackendEBa_
FNDA:1,_RNCNvNtNtNtCs2XshHk0aCOj_9paperboat7backend6auggie5testss_40test_auggie_create_transport_rejects_cli0B9_
FNF:23
FNH:16
DA:75,12
DA:76,12
DA:77,12
DA:81,1
DA:82,1
DA:83,1
DA:88,5
DA:89,5
DA:90,5
DA:92,0
DA:93,0
DA:94,0
DA:96,0
DA:98,0
DA:100,0
DA:101,0
DA:102,0
DA:103,0
DA:104,0
DA:108,0
DA:109,0
DA:111,0
DA:113,0
DA:115,0
DA:124,0
DA:125,0
DA:126,0
DA:127,0
DA:129,0
DA:131,0
DA:134,0
DA:136,0
DA:138,0
DA:139,0
DA:146,0
DA:151,0
DA:153,0
DA:154,0
DA:155,0
DA:156,0
DA:157,0
DA:158,0
DA:159,0
DA:168,2
DA:169,2
DA:170,2
DA:190,1
DA:230,1
DA:232,6
DA:233,6
DA:234,6
DA:242,1
DA:243,1
DA:244,1
DA:245,1
DA:248,1
DA:249,1
DA:250,1
DA:251,1
DA:254,1
DA:255,1
DA:256,1
DA:257,1
DA:258,1
DA:259,1
DA:262,1
DA:263,1
DA:264,1
DA:265,1
DA:268,1
DA:269,1
DA:270,1
DA:277,1
DA:278,1
DA:279,1
DA:280,1
DA:281,1
DA:282,1
DA:285,1
DA:286,1
DA:287,1
DA:288,1
DA:289,1
DA:292,1
DA:293,1
DA:294,1
DA:296,1
DA:297,1
DA:298,1
DA:300,1
DA:301,1
DA:302,1
DA:303,1
DA:304,1
BRF:0
BRH:0
LF:96
LH:62
end_of_record
SF:/Users/dbmrq/Documents/Programação/Misc/paperboat/src/backend/auggie/models.rs
FN:39,_RNCNCNvNtNtNtCs2XshHk0aCOj_9paperboat7backend6auggie6models21discover_auggie_tiers00Bb_
FN:34,_RNCNvNtNtNtCs2XshHk0aCOj_9paperboat7backend6auggie6models21discover_auggie_tiers0B9_
FN:34,_RNvNtNtNtCs2XshHk0aCOj_9paperboat7backend6auggie6models21discover_auggie_tiers
FNDA:0,_RNCNCNvNtNtNtCs2XshHk0aCOj_9paperboat7backend6auggie6models21discover_auggie_tiers00Bb_
FNDA:0,_RNCNvNtNtNtCs2XshHk0aCOj_9paperboat7backend6auggie6models21discover_auggie_tiers0B9_
FNDA:0,_RNvNtNtNtCs2XshHk0aCOj_9paperboat7backend6auggie6models21discover_auggie_tiers
FNF:3
FNH:0
DA:34,0
DA:35,0
DA:36,0
DA:37,0
DA:38,0
DA:39,0
DA:40,0
DA:41,0
DA:47,0
DA:49,0
DA:51,0
DA:52,0
DA:53,0
DA:54,0
DA:57,0
DA:58,0
DA:60,0
DA:63,0
DA:65,0
DA:66,0
DA:67,0
BRF:0
BRH:0
LF:24
LH:0
end_of_record
SF:/Users/dbmrq/Documents/Programação/Misc/paperboat/src/backend/cursor/acp.rs
FN:132,_RNCNCNCNvMNtNtNtCs2XshHk0aCOj_9paperboat7backend6cursor3acpNtB8_15CursorAcpClient17spawn_with_policy0s_00Be_
FN:139,_RNCNCNCNvMNtNtNtCs2XshHk0aCOj_9paperboat7backend6cursor3acpNtB8_15CursorAcpClient17spawn_with_policy0s_0s0_0Be_
FN:175,_RNCNCNCNvMNtNtNtCs2XshHk0aCOj_9paperboat7backend6cursor3acpNtB8_15CursorAcpClient17spawn_with_policy0s_0s1_0Be_
FN:138,_RNCNCNCNvMNtNtNtCs2XshHk0aCOj_9paperboat7backend6cursor3acpNtB8_15CursorAcpClient17spawn_with_policy0s_0s_0Be_
FN:109,_RNCNCNvMNtNtNtCs2XshHk0aCOj_9paperboat7backend6cursor3acpNtB6_15CursorAcpClient17spawn_with_policy00Bc_
FN:126,_RNCNCNvMNtNtNtCs2XshHk0aCOj_9paperboat7backend6cursor3acpNtB6_15CursorAcpClient17spawn_with_policy0s_0Bc_
FN:307,_RNCNCNvMNtNtNtCs2XshHk0aCOj_9paperboat7backend6cursor3acpNtB6_15CursorAcpClient7request00Bc_
FN:241,_RNCNCNvMNtNtNtCs2XshHk0aCOj_9paperboat7backend6cursor3acpNtB6_15CursorAcpClient7request0s0_0Bc_
FN:245,_RNCNCNvMNtNtNtCs2XshHk0aCOj_9paperboat7backend6cursor3acpNtB6_15CursorAcpClient7request0s1_0Bc_
FN:327,_RNCNvMNtNtNtCs2XshHk0aCOj_9paperboat7backend6cursor3acpNtB4_15CursorAcpClient12authenticate0Ba_
FN:74,_RNCNvMNtNtNtCs2XshHk0aCOj_9paperboat7backend6cursor3acpNtB4_15CursorAcpClient17spawn_with_policy0Ba_
FN:221,_RNCNvMNtNtNtCs2XshHk0aCOj_9paperboat7backend6cursor3acpNtB4_15CursorAcpClient18spawn_with_timeout0Ba_
FN:226,_RNCNvMNtNtNtCs2XshHk0aCOj_9paperboat7backend6cursor3acpNtB4_15CursorAcpClient7request0Ba_
FN:500,_RNvMNtNtNtNtCs2XshHk0aCOj_9paperboat7backend6cursor3acp5testsNtB2_8EnvGuard3set
FN:517,_RNvNtNtNtNtCs2XshHk0aCOj_9paperboat7backend6cursor3acp5tests12prepend_path
FN:592,_RNvNtNtNtNtCs2XshHk0aCOj_9paperboat7backend6cursor3acp5tests16make_test_client
FN:526,_RNvNtNtNtNtCs2XshHk0aCOj_9paperboat7backend6cursor3acp5tests20write_fake_agent_acp
FN:882,_RNvNtNtNtNtCs2XshHk0aCOj_9paperboat7backend6cursor3acp5testss_33test_session_new_with_mcp_servers
FN:821,_RNvNtNtNtNtCs2XshHk0aCOj_9paperboat7backend6cursor3acp5testss_35test_session_new_returns_session_id
FN:1010,_RNvNtNtNtNtCs2XshHk0aCOj_9paperboat7backend6cursor3acp5testss_37test_shutdown_aborts_background_tasks
FN:694,_RNvNtNtNtNtCs2XshHk0aCOj_9paperboat7backend6cursor3acp5testss_38test_request_propagates_error_response
FN:679,_RNvNtNtNtNtCs2XshHk0aCOj_9paperboat7backend6cursor3acp5testss_44test_request_timeout_removes_pending_request
FN:659,_RNvNtNtNtNtCs2XshHk0aCOj_9paperboat7backend6cursor3acp5testss_46test_request_session_prompt_returns_after_send
FN:947,_RNvNtNtNtNtCs2XshHk0aCOj_9paperboat7backend6cursor3acp5testss_46test_session_prompt_does_not_wait_for_response
FN:718,_RNvNtNtNtNtCs2XshHk0aCOj_9paperboat7backend6cursor3acp5testss_49test_recv_fails_after_notification_receiver_taken
FN:1058,_RNvNtNtNtNtCs2XshHk0aCOj_9paperboat7backend6cursor3acp5testss_49test_take_notification_rx_can_only_be_called_once
FN:624,_RNvNtNtNtNtCs2XshHk0aCOj_9paperboat7backend6cursor3acp5testss_51test_initialize_sends_authenticate_after_initialize
FN:1023,_RNvNtNtNtNtCs2XshHk0aCOj_9paperboat7backend6cursor3acp5testss_52test_permission_policy_for_planner_denies_file_tools
FN:1046,_RNvNtNtNtNtCs2XshHk0aCOj_9paperboat7backend6cursor3acp5testss_56test_permission_policy_for_implementer_allows_file_tools
FN:1035,_RNvNtNtNtNtCs2XshHk0aCOj_9paperboat7backend6cursor3acp5testss_57test_permission_policy_for_orchestrator_denies_file_tools
FN:890,_RNCNCNvNtNtNtNtCs2XshHk0aCOj_9paperboat7backend6cursor3acp5testss_33test_session_new_with_mcp_servers00Bd_
FN:827,_RNCNCNvNtNtNtNtCs2XshHk0aCOj_9paperboat7backend6cursor3acp5testss_35test_session_new_returns_session_id00Bd_
FN:698,_RNCNCNvNtNtNtNtCs2XshHk0aCOj_9paperboat7backend6cursor3acp5testss_38test_request_propagates_error_response00Bd_
FN:1072,_RNCNCNvNtNtNtNtCs2XshHk0aCOj_9paperboat7backend6cursor3acp5testss_43test_spawn_with_timeout_uses_default_policy00Bd_
FN:786,_RNCNCNvNtNtNtNtCs2XshHk0aCOj_9paperboat7backend6cursor3acp5testss_45test_spawn_with_policy_allows_permitted_tools00Bd_
FN:955,_RNCNCNvNtNtNtNtCs2XshHk0aCOj_9paperboat7backend6cursor3acp5testss_46test_session_prompt_does_not_wait_for_response00Bd_
FN:629,_RNCNCNvNtNtNtNtCs2XshHk0aCOj_9paperboat7backend6cursor3acp5testss_51test_initialize_sends_authenticate_after_initialize00Bd_
FN:730,_RNCNCNvNtNtNtNtCs2XshHk0aCOj_9paperboat7backend6cursor3acp5testss_53test_spawn_with_policy_propagates_missing_agent_error00Bd_
FN:749,_RNCNCNvNtNtNtNtCs2XshHk0aCOj_9paperboat7backend6cursor3acp5testss_70test_spawn_with_policy_denies_requested_tools_and_routes_notifications00Bd_
FN:594,_RNCNvNtNtNtNtCs2XshHk0aCOj_9paperboat7backend6cursor3acp5tests16make_test_client0Bb_
FN:882,_RNCNvNtNtNtNtCs2XshHk0aCOj_9paperboat7backend6cursor3acp5testss_33test_session_new_with_mcp_servers0Bb_
FN:821,_RNCNvNtNtNtNtCs2XshHk0aCOj_9paperboat7backend6cursor3acp5testss_35test_session_new_returns_session_id0Bb_
FN:1010,_RNCNvNtNtNtNtCs2XshHk0aCOj_9paperboat7backend6cursor3acp5testss_37test_shutdown_aborts_background_tasks0Bb_
FN:694,_RNCNvNtNtNtNtCs2XshHk0aCOj_9paperboat7backend6cursor3acp5testss_38test_request_propagates_error_response0Bb_
FN:1072,_RNCNvNtNtNtNtCs2XshHk0aCOj_9paperboat7backend6cursor3acp5testss_43test_spawn_with_timeout_uses_default_policy0Bb_
FN:679,_RNCNvNtNtNtNtCs2XshHk0aCOj_9paperboat7backend6cursor3acp5testss_44test_request_timeout_removes_pending_request0Bb_
FN:786,_RNCNvNtNtNtNtCs2XshHk0aCOj_9paperboat7backend6cursor3acp5testss_45test_spawn_with_policy_allows_permitted_tools0Bb_
FN:659,_RNCNvNtNtNtNtCs2XshHk0aCOj_9paperboat7backend6cursor3acp5testss_46test_request_session_prompt_returns_after_send0Bb_
FN:947,_RNCNvNtNtNtNtCs2XshHk0aCOj_9paperboat7backend6cursor3acp5testss_46test_session_prompt_does_not_wait_for_response0Bb_
FN:718,_RNCNvNtNtNtNtCs2XshHk0aCOj_9paperboat7backend6cursor3acp5testss_49test_recv_fails_after_notification_receiver_taken0Bb_
FN:1058,_RNCNvNtNtNtNtCs2XshHk0aCOj_9paperboat7backend6cursor3acp5testss_49test_take_notification_rx_can_only_be_called_once0Bb_
FN:624,_RNCNvNtNtNtNtCs2XshHk0aCOj_9paperboat7backend6cursor3acp5testss_51test_initialize_sends_authenticate_after_initialize0Bb_
FN:1023,_RNCNvNtNtNtNtCs2XshHk0aCOj_9paperboat7backend6cursor3acp5testss_52test_permission_policy_for_planner_denies_file_tools0Bb_
FN:730,_RNCNvNtNtNtNtCs2XshHk0aCOj_9paperboat7backend6cursor3acp5testss_53test_spawn_with_policy_propagates_missing_agent_error0Bb_
FN:1046,_RNCNvNtNtNtNtCs2XshHk0aCOj_9paperboat7backend6cursor3acp5testss_56test_permission_policy_for_implementer_allows_file_tools0Bb_
FN:1035,_RNCNvNtNtNtNtCs2XshHk0aCOj_9paperboat7backend6cursor3acp5testss_57test_permission_policy_for_orchestrator_denies_file_tools0Bb_
FN:749,_RNCNvNtNtNtNtCs2XshHk0aCOj_9paperboat7backend6cursor3acp5testss_70test_spawn_with_policy_denies_requested_tools_and_routes_notifications0Bb_
FN:468,_RNvXs_NtNtNtCs2XshHk0aCOj_9paperboat7backend6cursor3acpNtB4_15CursorAcpClientNtNtNtCskpTlHb4dJmc_4core3ops4drop4Drop4drop
FN:508,_RNvXs_NtNtNtNtCs2XshHk0aCOj_9paperboat7backend6cursor3acp5testsNtB4_8EnvGuardNtNtNtCskpTlHb4dJmc_4core3ops4drop4Drop4drop
FN:327,_RNvMNtNtNtCs2XshHk0aCOj_9paperboat7backend6cursor3acpNtB2_15CursorAcpClient12authenticate
FN:70,_RNvMNtNtNtCs2XshHk0aCOj_9paperboat7backend6cursor3acpNtB2_15CursorAcpClient17spawn_with_policy
FN:218,_RNvMNtNtNtCs2XshHk0aCOj_9paperboat7backend6cursor3acpNtB2_15CursorAcpClient18spawn_with_timeout
FN:226,_RNvMNtNtNtCs2XshHk0aCOj_9paperboat7backend6cursor3acpNtB2_15CursorAcpClient7request
FN:344,_RNvXs0_NtNtNtCs2XshHk0aCOj_9paperboat7backend6cursor3acpNtB5_15CursorAcpClientNtNtBb_3acp14AcpClientTrait10initialize
FN:375,_RNvXs0_NtNtNtCs2XshHk0aCOj_9paperboat7backend6cursor3acpNtB5_15CursorAcpClientNtNtBb_3acp14AcpClientTrait11session_new
FN:388,_RNvXs0_NtNtNtCs2XshHk0aCOj_9paperboat7backend6cursor3acpNtB5_15CursorAcpClientNtNtBb_3acp14AcpClientTrait14session_prompt
FN:418,_RNvXs0_NtNtNtCs2XshHk0aCOj_9paperboat7backend6cursor3acpNtB5_15CursorAcpClientNtNtBb_3acp14AcpClientTrait20take_notification_rx
FN:409,_RNvXs0_NtNtNtCs2XshHk0aCOj_9paperboat7backend6cursor3acpNtB5_15CursorAcpClientNtNtBb_3acp14AcpClientTrait4recv
FN:426,_RNvXs0_NtNtNtCs2XshHk0aCOj_9paperboat7backend6cursor3acpNtB5_15CursorAcpClientNtNtBb_3acp14AcpClientTrait8shutdown
FNDA:4,_RNCNCNCNvMNtNtNtCs2XshHk0aCOj_9paperboat7backend6cursor3acpNtB8_15CursorAcpClient17spawn_with_policy0s_00Be_
FNDA:2,_RNCNCNCNvMNtNtNtCs2XshHk0aCOj_9paperboat7backend6cursor3acpNtB8_15CursorAcpClient17spawn_with_policy0s_0s0_0Be_
FNDA:4,_RNCNCNCNvMNtNtNtCs2XshHk0aCOj_9paperboat7backend6cursor3acpNtB8_15CursorAcpClient17spawn_with_policy0s_0s1_0Be_
FNDA:2,_RNCNCNCNvMNtNtNtCs2XshHk0aCOj_9paperboat7backend6cursor3acpNtB8_15CursorAcpClient17spawn_with_policy0s_0s_0Be_
FNDA:2,_RNCNCNvMNtNtNtCs2XshHk0aCOj_9paperboat7backend6cursor3acpNtB6_15CursorAcpClient17spawn_with_policy00Bc_
FNDA:2,_RNCNCNvMNtNtNtCs2XshHk0aCOj_9paperboat7backend6cursor3acpNtB6_15CursorAcpClient17spawn_with_policy0s_0Bc_
FNDA:3,_RNCNCNvMNtNtNtCs2XshHk0aCOj_9paperboat7backend6cursor3acpNtB6_15CursorAcpClient7request00Bc_
FNDA:0,_RNCNCNvMNtNtNtCs2XshHk0aCOj_9paperboat7backend6cursor3acpNtB6_15CursorAcpClient7request0s0_0Bc_
FNDA:0,_RNCNCNvMNtNtNtCs2XshHk0aCOj_9paperboat7backend6cursor3acpNtB6_15CursorAcpClient7request0s1_0Bc_
FNDA:6,_RNCNvMNtNtNtCs2XshHk0aCOj_9paperboat7backend6cursor3acpNtB4_15CursorAcpClient12authenticate0Ba_
FNDA:4,_RNCNvMNtNtNtCs2XshHk0aCOj_9paperboat7backend6cursor3acpNtB4_15CursorAcpClient17spawn_with_policy0Ba_
FNDA:1,_RNCNvMNtNtNtCs2XshHk0aCOj_9paperboat7backend6cursor3acpNtB4_15CursorAcpClient18spawn_with_timeout0Ba_
FNDA:19,_RNCNvMNtNtNtCs2XshHk0aCOj_9paperboat7backend6cursor3acpNtB4_15CursorAcpClient7request0Ba_
FNDA:4,_RNvMNtNtNtNtCs2XshHk0aCOj_9paperboat7backend6cursor3acp5testsNtB2_8EnvGuard3set
FNDA:2,_RNvNtNtNtNtCs2XshHk0aCOj_9paperboat7backend6cursor3acp5tests12prepend_path
FNDA:10,_RNvNtNtNtNtCs2XshHk0aCOj_9paperboat7backend6cursor3acp5tests16make_test_client
FNDA:2,_RNvNtNtNtNtCs2XshHk0aCOj_9paperboat7backend6cursor3acp5tests20write_fake_agent_acp
FNDA:1,_RNvNtNtNtNtCs2XshHk0aCOj_9paperboat7backend6cursor3acp5testss_33test_session_new_with_mcp_servers
FNDA:1,_RNvNtNtNtNtCs2XshHk0aCOj_9paperboat7backend6cursor3acp5testss_35test_session_new_returns_session_id
FNDA:1,_RNvNtNtNtNtCs2XshHk0aCOj_9paperboat7backend6cursor3acp5testss_37test_shutdown_aborts_background_tasks
FNDA:1,_RNvNtNtNtNtCs2XshHk0aCOj_9paperboat7backend6cursor3acp5testss_38test_request_propagates_error_response
FNDA:1,_RNvNtNtNtNtCs2XshHk0aCOj_9paperboat7backend6cursor3acp5testss_44test_request_timeout_removes_pending_request
FNDA:1,_RNvNtNtNtNtCs2XshHk0aCOj_9paperboat7backend6cursor3acp5testss_46test_request_session_prompt_returns_after_send
FNDA:1,_RNvNtNtNtNtCs2XshHk0aCOj_9paperboat7backend6cursor3acp5testss_46test_session_prompt_does_not_wait_for_response
FNDA:1,_RNvNtNtNtNtCs2XshHk0aCOj_9paperboat7backend6cursor3acp5testss_49test_recv_fails_after_notification_receiver_taken
FNDA:1,_RNvNtNtNtNtCs2XshHk0aCOj_9paperboat7backend6cursor3acp5testss_49test_take_notification_rx_can_only_be_called_once
FNDA:1,_RNvNtNtNtNtCs2XshHk0aCOj_9paperboat7backend6cursor3acp5testss_51test_initialize_sends_authenticate_after_initialize
FNDA:1,_RNvNtNtNtNtCs2XshHk0aCOj_9paperboat7backend6cursor3acp5testss_52test_permission_policy_for_planner_denies_file_tools
FNDA:1,_RNvNtNtNtNtCs2XshHk0aCOj_9paperboat7backend6cursor3acp5testss_56test_permission_policy_for_implementer_allows_file_tools
FNDA:1,_RNvNtNtNtNtCs2XshHk0aCOj_9paperboat7backend6cursor3acp5testss_57test_permission_policy_for_orchestrator_denies_file_tools
FNDA:1,_RNCNCNvNtNtNtNtCs2XshHk0aCOj_9paperboat7backend6cursor3acp5testss_33test_session_new_with_mcp_servers00Bd_
FNDA:1,_RNCNCNvNtNtNtNtCs2XshHk0aCOj_9paperboat7backend6cursor3acp5testss_35test_session_new_returns_session_id00Bd_
FNDA:1,_RNCNCNvNtNtNtNtCs2XshHk0aCOj_9paperboat7backend6cursor3acp5testss_38test_request_propagates_error_response00Bd_
FNDA:1,_RNCNCNvNtNtNtNtCs2XshHk0aCOj_9paperboat7backend6cursor3acp5testss_43test_spawn_with_timeout_uses_default_policy00Bd_
FNDA:1,_RNCNCNvNtNtNtNtCs2XshHk0aCOj_9paperboat7backend6cursor3acp5testss_45test_spawn_with_policy_allows_permitted_tools00Bd_
FNDA:1,_RNCNCNvNtNtNtNtCs2XshHk0aCOj_9paperboat7backend6cursor3acp5testss_46test_session_prompt_does_not_wait_for_response00Bd_
FNDA:1,_RNCNCNvNtNtNtNtCs2XshHk0aCOj_9paperboat7backend6cursor3acp5testss_51test_initialize_sends_authenticate_after_initialize00Bd_
FNDA:1,_RNCNCNvNtNtNtNtCs2XshHk0aCOj_9paperboat7backend6cursor3acp5testss_53test_spawn_with_policy_propagates_missing_agent_error00Bd_
FNDA:1,_RNCNCNvNtNtNtNtCs2XshHk0aCOj_9paperboat7backend6cursor3acp5testss_70test_spawn_with_policy_denies_requested_tools_and_routes_notifications00Bd_
FNDA:10,_RNCNvNtNtNtNtCs2XshHk0aCOj_9paperboat7backend6cursor3acp5tests16make_test_client0Bb_
FNDA:1,_RNCNvNtNtNtNtCs2XshHk0aCOj_9paperboat7backend6cursor3acp5testss_33test_session_new_with_mcp_servers0Bb_
FNDA:1,_RNCNvNtNtNtNtCs2XshHk0aCOj_9paperboat7backend6cursor3acp5testss_35test_session_new_returns_session_id0Bb_
FNDA:1,_RNCNvNtNtNtNtCs2XshHk0aCOj_9paperboat7backend6cursor3acp5testss_37test_shutdown_aborts_background_tasks0Bb_
FNDA:1,_RNCNvNtNtNtNtCs2XshHk0aCOj_9paperboat7backend6cursor3acp5testss_38test_request_propagates_error_response0Bb_
FNDA:1,_RNCNvNtNtNtNtCs2XshHk0aCOj_9paperboat7backend6cursor3acp5testss_43test_spawn_with_timeout_uses_default_policy0Bb_
FNDA:1,_RNCNvNtNtNtNtCs2XshHk0aCOj_9paperboat7backend6cursor3acp5testss_44test_request_timeout_removes_pending_request0Bb_
FNDA:1,_RNCNvNtNtNtNtCs2XshHk0aCOj_9paperboat7backend6cursor3acp5testss_45test_spawn_with_policy_allows_permitted_tools0Bb_
FNDA:1,_RNCNvNtNtNtNtCs2XshHk0aCOj_9paperboat7backend6cursor3acp5testss_46test_request_session_prompt_returns_after_send0Bb_
FNDA:1,_RNCNvNtNtNtNtCs2XshHk0aCOj_9paperboat7backend6cursor3acp5testss_46test_session_prompt_does_not_wait_for_response0Bb_
FNDA:1,_RNCNvNtNtNtNtCs2XshHk0aCOj_9paperboat7backend6cursor3acp5testss_49test_recv_fails_after_notification_receiver_taken0Bb_
FNDA:1,_RNCNvNtNtNtNtCs2XshHk0aCOj_9paperboat7backend6cursor3acp5testss_49test_take_notification_rx_can_only_be_called_once0Bb_
FNDA:1,_RNCNvNtNtNtNtCs2XshHk0aCOj_9paperboat7backend6cursor3acp5testss_51test_initialize_sends_authenticate_after_initialize0Bb_
FNDA:1,_RNCNvNtNtNtNtCs2XshHk0aCOj_9paperboat7backend6cursor3acp5testss_52test_permission_policy_for_planner_denies_file_tools0Bb_
FNDA:1,_RNCNvNtNtNtNtCs2XshHk0aCOj_9paperboat7backend6cursor3acp5testss_53test_spawn_with_policy_propagates_missing_agent_error0Bb_
FNDA:1,_RNCNvNtNtNtNtCs2XshHk0aCOj_9paperboat7backend6cursor3acp5testss_56test_permission_policy_for_implementer_allows_file_tools0Bb_
FNDA:1,_RNCNvNtNtNtNtCs2XshHk0aCOj_9paperboat7backend6cursor3acp5testss_57test_permission_policy_for_orchestrator_denies_file_tools0Bb_
FNDA:1,_RNCNvNtNtNtNtCs2XshHk0aCOj_9paperboat7backend6cursor3acp5testss_70test_spawn_with_policy_denies_requested_tools_and_routes_notifications0Bb_
FNDA:12,_RNvXs_NtNtNtCs2XshHk0aCOj_9paperboat7backend6cursor3acpNtB4_15CursorAcpClientNtNtNtCskpTlHb4dJmc_4core3ops4drop4Drop4drop
FNDA:4,_RNvXs_NtNtNtNtCs2XshHk0aCOj_9paperboat7backend6cursor3acp5testsNtB4_8EnvGuardNtNtNtCskpTlHb4dJmc_4core3ops4drop4Drop4drop
FNDA:6,_RNvMNtNtNtCs2XshHk0aCOj_9paperboat7backend6cursor3acpNtB2_15CursorAcpClient12authenticate
FNDA:4,_RNvMNtNtNtCs2XshHk0aCOj_9paperboat7backend6cursor3acpNtB2_15CursorAcpClient17spawn_with_policy
FNDA:1,_RNvMNtNtNtCs2XshHk0aCOj_9paperboat7backend6cursor3acpNtB2_15CursorAcpClient18spawn_with_timeout
FNDA:19,_RNvMNtNtNtCs2XshHk0aCOj_9paperboat7backend6cursor3acpNtB2_15CursorAcpClient7request
FNDA:6,_RNvXs0_NtNtNtCs2XshHk0aCOj_9paperboat7backend6cursor3acpNtB5_15CursorAcpClientNtNtBb_3acp14AcpClientTrait10initialize
FNDA:3,_RNvXs0_NtNtNtCs2XshHk0aCOj_9paperboat7backend6cursor3acpNtB5_15CursorAcpClientNtNtBb_3acp14AcpClientTrait11session_new
FNDA:1,_RNvXs0_NtNtNtCs2XshHk0aCOj_9paperboat7backend6cursor3acpNtB5_15CursorAcpClientNtNtBb_3acp14AcpClientTrait14session_prompt
FNDA:3,_RNvXs0_NtNtNtCs2XshHk0aCOj_9paperboat7backend6cursor3acpNtB5_15CursorAcpClientNtNtBb_3acp14AcpClientTrait20take_notification_rx
FNDA:3,_RNvXs0_NtNtNtCs2XshHk0aCOj_9paperboat7backend6cursor3acpNtB5_15CursorAcpClientNtNtBb_3acp14AcpClientTrait4recv
FNDA:3,_RNvXs0_NtNtNtCs2XshHk0aCOj_9paperboat7backend6cursor3acpNtB5_15CursorAcpClientNtNtBb_3acp14AcpClientTrait8shutdown
FNF:65
FNH:63
DA:70,4
DA:71,4
DA:72,4
DA:73,4
DA:74,4
DA:76,4
DA:77,0
DA:81,4
DA:83,4
DA:84,4
DA:86,4
DA:87,4
DA:88,4
DA:89,4
DA:90,4
DA:91,4
DA:92,4
DA:94,2
DA:95,2
DA:97,2
DA:98,2
DA:101,2
DA:102,2
DA:105,2
DA:106,2
DA:109,2
DA:110,2
DA:111,8
DA:112,6
DA:113,0
DA:114,0
DA:115,6
DA:116,6
DA:117,0
DA:118,0
DA:119,6
DA:122,0
DA:123,0
DA:126,2
DA:127,2
DA:128,2
DA:129,10
DA:130,8
DA:132,8
DA:133,4
DA:135,2
DA:136,2
DA:137,2
DA:138,2
DA:139,2
DA:140,2
DA:142,2
DA:143,1
DA:144,1
DA:146,1
DA:150,1
DA:154,2
DA:155,2
DA:156,2
DA:157,2
DA:158,2
DA:162,2
DA:163,2
DA:164,0
DA:165,0
DA:166,2
DA:167,2
DA:168,4
DA:173,6
DA:174,6
DA:175,6
DA:176,6
DA:179,4
DA:180,4
DA:182,4
DA:183,0
DA:184,4
DA:186,0
DA:191,2
DA:192,0
DA:193,2
DA:195,0
DA:197,0
DA:201,0
DA:203,2
DA:204,2
DA:205,2
DA:206,2
DA:207,2
DA:208,2
DA:209,2
DA:210,2
DA:211,2
DA:212,2
DA:213,4
DA:218,1
DA:219,1
DA:220,1
DA:221,1
DA:222,1
DA:223,1
DA:226,19
DA:227,19
DA:228,19
DA:229,19
DA:230,19
DA:231,19
DA:232,19
DA:235,19
DA:236,19
DA:237,3
DA:239,0
DA:240,0
DA:241,0
DA:242,0
DA:243,0
DA:244,0
DA:245,0
DA:246,0
DA:249,16
DA:254,19
DA:255,2
DA:256,2
DA:257,2
DA:258,2
DA:259,2
DA:260,17
DA:263,17
DA:267,17
DA:268,17
DA:272,17
DA:274,0
DA:275,0
DA:276,0
DA:277,17
DA:280,17
DA:281,16
DA:284,0
DA:286,1
DA:288,1
DA:289,1
DA:290,1
DA:295,1
DA:303,16
DA:304,3
DA:305,3
DA:306,3
DA:307,3
DA:308,3
DA:309,3
DA:310,0
DA:311,13
DA:313,16
DA:314,1
DA:315,15
DA:317,15
DA:318,15
DA:319,15
DA:320,15
DA:321,19
DA:327,6
DA:328,6
DA:329,6
DA:332,6
DA:333,6
DA:334,6
DA:335,6
DA:344,6
DA:361,6
DA:375,3
DA:385,3
DA:388,1
DA:401,1
DA:409,3
DA:415,3
DA:418,3
DA:419,3
DA:420,3
DA:426,3
DA:464,3
DA:468,12
DA:470,12
DA:471,0
DA:472,12
DA:473,12
DA:474,0
DA:475,12
DA:478,12
DA:479,0
DA:480,12
DA:481,12
DA:500,4
DA:501,4
DA:502,4
DA:503,4
DA:504,4
DA:508,4
DA:509,4
DA:510,4
DA:511,0
DA:513,4
DA:517,2
DA:518,2
DA:519,2
DA:520,2
DA:521,2
DA:522,2
DA:523,2
DA:526,2
DA:527,2
DA:528,2
DA:529,2
DA:530,2
DA:531,2
DA:532,2
DA:533,2
DA:534,2
DA:535,2
DA:584,2
DA:586,2
DA:587,2
DA:588,2
DA:589,2
DA:592,10
DA:593,10
DA:594,10
DA:595,10
DA:596,10
DA:597,10
DA:598,10
DA:599,10
DA:600,10
DA:601,10
DA:602,10
DA:603,10
DA:604,10
DA:606,10
DA:607,10
DA:608,10
DA:609,10
DA:610,10
DA:611,10
DA:612,10
DA:613,10
DA:614,10
DA:615,10
DA:616,10
DA:617,10
DA:618,10
DA:619,10
DA:620,10
DA:624,1
DA:625,1
DA:626,1
DA:627,1
DA:629,1
DA:630,1
DA:631,3
DA:632,2
DA:633,2
DA:634,2
DA:635,2
DA:637,2
DA:638,2
DA:639,2
DA:640,2
DA:641,2
DA:642,2
DA:644,2
DA:646,1
DA:647,1
DA:649,1
DA:651,1
DA:652,1
DA:653,1
DA:654,1
DA:655,1
DA:659,1
DA:660,1
DA:661,1
DA:663,1
DA:664,1
DA:665,1
DA:666,1
DA:667,1
DA:668,1
DA:671,1
DA:672,1
DA:673,1
DA:674,1
DA:675,1
DA:679,1
DA:680,1
DA:681,1
DA:683,1
DA:684,1
DA:686,1
DA:687,1
DA:688,1
DA:689,1
DA:690,1
DA:694,1
DA:695,1
DA:696,1
DA:698,1
DA:699,1
DA:700,1
DA:701,1
DA:702,1
DA:703,1
DA:704,1
DA:705,1
DA:706,1
DA:707,1
DA:709,1
DA:710,1
DA:712,1
DA:713,1
DA:714,1
DA:718,1
DA:719,1
DA:720,1
DA:722,1
DA:723,1
DA:724,1
DA:725,1
DA:726,1
DA:730,2
DA:731,1
DA:732,1
DA:734,1
DA:735,1
DA:736,1
DA:737,1
DA:738,1
DA:739,1
DA:740,1
DA:741,1
DA:743,1
DA:749,2
DA:750,1
DA:751,1
DA:752,1
DA:753,1
DA:754,1
DA:755,1
DA:756,1
DA:758,1
DA:760,1
DA:761,1
DA:762,1
DA:763,1
DA:764,1
DA:765,1
DA:766,1
DA:768,1
DA:770,1
DA:771,1
DA:772,1
DA:773,1
DA:775,1
DA:776,1
DA:777,1
DA:778,1
DA:780,1
DA:786,2
DA:787,1
DA:788,1
DA:789,1
DA:790,1
DA:791,1
DA:792,1
DA:793,1
DA:795,1
DA:797,1
DA:798,1
DA:799,1
DA:800,1
DA:801,1
DA:802,1
DA:803,1
DA:805,1
DA:806,1
DA:808,1
DA:809,1
DA:810,1
DA:812,1
DA:821,1
DA:824,1
DA:825,1
DA:827,1
DA:829,1
DA:830,1
DA:831,1
DA:832,1
DA:833,1
DA:834,1
DA:835,1
DA:836,1
DA:837,1
DA:839,1
DA:842,1
DA:843,1
DA:844,1
DA:845,1
DA:846,1
DA:847,1
DA:848,1
DA:849,1
DA:850,1
DA:852,1
DA:855,1
DA:856,1
DA:857,1
DA:858,1
DA:859,1
DA:860,1
DA:861,1
DA:862,1
DA:863,1
DA:864,1
DA:865,1
DA:868,1
DA:869,1
DA:871,1
DA:873,1
DA:874,1
DA:875,1
DA:876,1
DA:877,1
DA:878,1
DA:882,1
DA:885,1
DA:886,1
DA:888,1
DA:890,1
DA:892,1
DA:893,2
DA:894,2
DA:895,2
DA:896,2
DA:897,2
DA:898,2
DA:899,2
DA:900,2
DA:901,2
DA:903,2
DA:907,1
DA:908,1
DA:909,1
DA:912,1
DA:913,1
DA:915,1
DA:916,1
DA:917,1
DA:918,1
DA:919,1
DA:920,1
DA:922,1
DA:923,1
DA:925,1
DA:927,1
DA:928,1
DA:929,1
DA:930,1
DA:933,1
DA:934,1
DA:935,1
DA:936,1
DA:938,1
DA:940,1
DA:941,1
DA:942,1
DA:943,1
DA:947,1
DA:950,1
DA:951,1
DA:953,1
DA:955,1
DA:957,1
DA:958,2
DA:959,2
DA:960,2
DA:961,2
DA:962,2
DA:963,2
DA:964,2
DA:965,2
DA:966,2
DA:968,2
DA:972,1
DA:973,1
DA:974,1
DA:975,1
DA:976,1
DA:977,1
DA:978,1
DA:979,1
DA:980,1
DA:982,1
DA:985,1
DA:986,1
DA:987,1
DA:989,1
DA:991,1
DA:992,1
DA:993,1
DA:994,1
DA:995,1
DA:998,1
DA:999,1
DA:1000,1
DA:1001,1
DA:1003,1
DA:1004,1
DA:1005,1
DA:1006,1
DA:1010,1
DA:1011,1
DA:1014,1
DA:1015,1
DA:1018,1
DA:1019,1
DA:1023,1
DA:1024,1
DA:1027,1
DA:1028,1
DA:1029,1
DA:1030,1
DA:1031,1
DA:1035,1
DA:1036,1
DA:1039,1
DA:1040,1
DA:1041,1
DA:1042,1
DA:1046,1
DA:1047,1
DA:1050,1
DA:1051,1
DA:1052,1
DA:1053,1
DA:1054,1
DA:1058,1
DA:1059,1
DA:1062,1
DA:1063,1
DA:1066,1
DA:1067,1
DA:1068,1
DA:1072,2
DA:1073,1
DA:1074,1
DA:1077,1
DA:1078,1
DA:1080,1
DA:1081,1
DA:1082,1
DA:1083,1
DA:1084,1
DA:1085,1
DA:1086,1
DA:1087,1
BRF:0
BRH:0
LF:608
LH:574
end_of_record
SF:/Users/dbmrq/Documents/Programação/Misc/paperboat/src/backend/cursor/acp_transport.rs
FN:660,_RINvNvNtNtNtNtCs2XshHk0aCOj_9paperboat7backend6cursor13acp_transport5testss_31test_acp_transport_is_send_sync16assert_send_syncNtB6_18CursorAcpTransportEBc_
FN:718,_RNCNvNtNtNtNtCs2XshHk0aCOj_9paperboat7backend6cursor13acp_transport5testss_29test_respond_to_tool_succeeds0Bb_
FN:731,_RNCNvNtNtNtNtCs2XshHk0aCOj_9paperboat7backend6cursor13acp_transport5testss_35test_send_prompt_without_init_fails0Bb_
FN:742,_RNCNvNtNtNtNtCs2XshHk0aCOj_9paperboat7backend6cursor13acp_transport5testss_38test_create_session_without_init_fails0Bb_
FN:708,_RNCNvNtNtNtNtCs2XshHk0aCOj_9paperboat7backend6cursor13acp_transport5testss_40test_shutdown_on_uninitialized_transport0Bb_
FN:265,_RNCNCNvXs_NtNtNtCs2XshHk0aCOj_9paperboat7backend6cursor13acp_transportNtB8_18CursorAcpTransportNtNtBc_9transport14AgentTransport11send_prompt00Be_
FN:222,_RNCNCNvXs_NtNtNtCs2XshHk0aCOj_9paperboat7backend6cursor13acp_transportNtB8_18CursorAcpTransportNtNtBc_9transport14AgentTransport14create_session00Be_
FN:243,_RNCNCNvXs_NtNtNtCs2XshHk0aCOj_9paperboat7backend6cursor13acp_transportNtB8_18CursorAcpTransportNtNtBc_9transport14AgentTransport14create_session0s_0Be_
FN:311,_RNCNCNvXs_NtNtNtCs2XshHk0aCOj_9paperboat7backend6cursor13acp_transportNtB8_18CursorAcpTransportNtNtBc_9transport14AgentTransport4recv00Be_
FN:159,_RNCNvMNtNtNtCs2XshHk0aCOj_9paperboat7backend6cursor13acp_transportNtB4_18CursorAcpTransport20convert_notification0Ba_
FN:175,_RNCNvMNtNtNtCs2XshHk0aCOj_9paperboat7backend6cursor13acp_transportNtB4_18CursorAcpTransport20convert_notifications0_0Ba_
FN:171,_RNCNvMNtNtNtCs2XshHk0aCOj_9paperboat7backend6cursor13acp_transportNtB4_18CursorAcpTransport20convert_notifications_0Ba_
FN:322,_RNCNvXs_NtNtNtCs2XshHk0aCOj_9paperboat7backend6cursor13acp_transportNtB6_18CursorAcpTransportNtNtBa_9transport14AgentTransport20take_notification_rx0Bc_
FN:673,_RNvNtNtNtNtCs2XshHk0aCOj_9paperboat7backend6cursor13acp_transport5testss_20test_factory_methods
FN:665,_RNvNtNtNtNtCs2XshHk0aCOj_9paperboat7backend6cursor13acp_transport5testss_24test_new_creates_channel
FN:718,_RNvNtNtNtNtCs2XshHk0aCOj_9paperboat7backend6cursor13acp_transport5testss_29test_respond_to_tool_succeeds
FN:701,_RNvNtNtNtNtCs2XshHk0aCOj_9paperboat7backend6cursor13acp_transport5testss_29test_transport_stores_timeout
FN:340,_RNvNtNtNtNtCs2XshHk0aCOj_9paperboat7backend6cursor13acp_transport5testss_30test_convert_text_notification
FN:478,_RNvNtNtNtNtCs2XshHk0aCOj_9paperboat7backend6cursor13acp_transport5testss_30test_convert_tool_result_error
FN:659,_RNvNtNtNtNtCs2XshHk0aCOj_9paperboat7backend6cursor13acp_transport5testss_31test_acp_transport_is_send_sync
FN:549,_RNvNtNtNtNtCs2XshHk0aCOj_9paperboat7backend6cursor13acp_transport5testss_31test_convert_completion_failure
FN:596,_RNvNtNtNtNtCs2XshHk0aCOj_9paperboat7backend6cursor13acp_transport5testss_33test_convert_unknown_notification
FN:385,_RNvNtNtNtNtCs2XshHk0aCOj_9paperboat7backend6cursor13acp_transport5testss_34test_convert_tool_use_notification
FN:731,_RNvNtNtNtNtCs2XshHk0aCOj_9paperboat7backend6cursor13acp_transport5testss_35test_send_prompt_without_init_fails
FN:505,_RNvNtNtNtNtCs2XshHk0aCOj_9paperboat7backend6cursor13acp_transport5testss_36test_convert_completion_notification
FN:687,_RNvNtNtNtNtCs2XshHk0aCOj_9paperboat7backend6cursor13acp_transport5testss_36test_take_notifications_returns_once
FN:447,_RNvNtNtNtNtCs2XshHk0aCOj_9paperboat7backend6cursor13acp_transport5testss_37test_convert_tool_result_notification
FN:742,_RNvNtNtNtNtCs2XshHk0aCOj_9paperboat7backend6cursor13acp_transport5testss_38test_create_session_without_init_fails
FN:416,_RNvNtNtNtNtCs2XshHk0aCOj_9paperboat7backend6cursor13acp_transport5testss_40test_convert_tool_use_with_complex_input
FN:708,_RNvNtNtNtNtCs2XshHk0aCOj_9paperboat7backend6cursor13acp_transport5testss_40test_shutdown_on_uninitialized_transport
FN:573,_RNvNtNtNtNtCs2XshHk0aCOj_9paperboat7backend6cursor13acp_transport5testss_43test_convert_completion_defaults_to_success
FN:365,_RNvNtNtNtNtCs2XshHk0aCOj_9paperboat7backend6cursor13acp_transport5testss_49test_convert_text_notification_with_empty_content
FN:642,_RNvNtNtNtNtCs2XshHk0aCOj_9paperboat7backend6cursor13acp_transport5testss_51test_convert_notification_missing_type_returns_none
FN:621,_RNvNtNtNtNtCs2XshHk0aCOj_9paperboat7backend6cursor13acp_transport5testss_51test_convert_notification_wrong_method_returns_none
FN:632,_RNvNtNtNtNtCs2XshHk0aCOj_9paperboat7backend6cursor13acp_transport5testss_53test_convert_notification_missing_params_returns_none
FN:533,_RNvNtNtNtNtCs2XshHk0aCOj_9paperboat7backend6cursor13acp_transport5testss_57test_convert_completion_notification_with_type_completion
FN:103,_RNvMNtNtNtCs2XshHk0aCOj_9paperboat7backend6cursor13acp_transportNtB2_18CursorAcpTransport11for_planner
FN:115,_RNvMNtNtNtCs2XshHk0aCOj_9paperboat7backend6cursor13acp_transportNtB2_18CursorAcpTransport13set_workspace
FN:110,_RNvMNtNtNtCs2XshHk0aCOj_9paperboat7backend6cursor13acp_transportNtB2_18CursorAcpTransport15for_implementer
FN:125,_RNvMNtNtNtCs2XshHk0aCOj_9paperboat7backend6cursor13acp_transportNtB2_18CursorAcpTransport15set_mcp_servers
FN:96,_RNvMNtNtNtCs2XshHk0aCOj_9paperboat7backend6cursor13acp_transportNtB2_18CursorAcpTransport16for_orchestrator
FN:130,_RNvMNtNtNtCs2XshHk0aCOj_9paperboat7backend6cursor13acp_transportNtB2_18CursorAcpTransport20convert_notification
FN:79,_RNvMNtNtNtCs2XshHk0aCOj_9paperboat7backend6cursor13acp_transportNtB2_18CursorAcpTransport3new
FN:120,_RNvMNtNtNtCs2XshHk0aCOj_9paperboat7backend6cursor13acp_transportNtB2_18CursorAcpTransport9set_model
FN:199,_RNvXs_NtNtNtCs2XshHk0aCOj_9paperboat7backend6cursor13acp_transportNtB4_18CursorAcpTransportNtNtB8_9transport14AgentTransport10initialize
FN:264,_RNvXs_NtNtNtCs2XshHk0aCOj_9paperboat7backend6cursor13acp_transportNtB4_18CursorAcpTransportNtNtB8_9transport14AgentTransport11send_prompt
FN:221,_RNvXs_NtNtNtCs2XshHk0aCOj_9paperboat7backend6cursor13acp_transportNtB4_18CursorAcpTransportNtNtB8_9transport14AgentTransport14create_session
FN:290,_RNvXs_NtNtNtCs2XshHk0aCOj_9paperboat7backend6cursor13acp_transportNtB4_18CursorAcpTransportNtNtB8_9transport14AgentTransport15respond_to_tool
FN:273,_RNvXs_NtNtNtCs2XshHk0aCOj_9paperboat7backend6cursor13acp_transportNtB4_18CursorAcpTransportNtNtB8_9transport14AgentTransport18take_notifications
FN:321,_RNvXs_NtNtNtCs2XshHk0aCOj_9paperboat7backend6cursor13acp_transportNtB4_18CursorAcpTransportNtNtB8_9transport14AgentTransport20take_notification_rx
FN:310,_RNvXs_NtNtNtCs2XshHk0aCOj_9paperboat7backend6cursor13acp_transportNtB4_18CursorAcpTransportNtNtB8_9transport14AgentTransport4recv
FN:298,_RNvXs_NtNtNtCs2XshHk0aCOj_9paperboat7backend6cursor13acp_transportNtB4_18CursorAcpTransportNtNtB8_9transport14AgentTransport8shutdown
FNDA:1,_RINvNvNtNtNtNtCs2XshHk0aCOj_9paperboat7backend6cursor13acp_transport5testss_31test_acp_transport_is_send_sync16assert_send_syncNtB6_18CursorAcpTransportEBc_
FNDA:1,_RNCNvNtNtNtNtCs2XshHk0aCOj_9paperboat7backend6cursor13acp_transport5testss_29test_respond_to_tool_succeeds0Bb_
FNDA:1,_RNCNvNtNtNtNtCs2XshHk0aCOj_9paperboat7backend6cursor13acp_transport5testss_35test_send_prompt_without_init_fails0Bb_
FNDA:1,_RNCNvNtNtNtNtCs2XshHk0aCOj_9paperboat7backend6cursor13acp_transport5testss_38test_create_session_without_init_fails0Bb_
FNDA:1,_RNCNvNtNtNtNtCs2XshHk0aCOj_9paperboat7backend6cursor13acp_transport5testss_40test_shutdown_on_uninitialized_transport0Bb_
FNDA:1,_RNCNCNvXs_NtNtNtCs2XshHk0aCOj_9paperboat7backend6cursor13acp_transportNtB8_18CursorAcpTransportNtNtBc_9transport14AgentTransport11send_prompt00Be_
FNDA:2,_RNCNCNvXs_NtNtNtCs2XshHk0aCOj_9paperboat7backend6cursor13acp_transportNtB8_18CursorAcpTransportNtNtBc_9transport14AgentTransport14create_session00Be_
FNDA:0,_RNCNCNvXs_NtNtNtCs2XshHk0aCOj_9paperboat7backend6cursor13acp_transportNtB8_18CursorAcpTransportNtNtBc_9transport14AgentTransport14create_session0s_0Be_
FNDA:0,_RNCNCNvXs_NtNtNtCs2XshHk0aCOj_9paperboat7backend6cursor13acp_transportNtB8_18CursorAcpTransportNtNtBc_9transport14AgentTransport4recv00Be_
FNDA:2,_RNCNvMNtNtNtCs2XshHk0aCOj_9paperboat7backend6cursor13acp_transportNtB4_18CursorAcpTransport20convert_notification0Ba_
FNDA:3,_RNCNvMNtNtNtCs2XshHk0aCOj_9paperboat7backend6cursor13acp_transportNtB4_18CursorAcpTransport20convert_notifications0_0Ba_
FNDA:2,_RNCNvMNtNtNtCs2XshHk0aCOj_9paperboat7backend6cursor13acp_transportNtB4_18CursorAcpTransport20convert_notifications_0Ba_
FNDA:0,_RNCNvXs_NtNtNtCs2XshHk0aCOj_9paperboat7backend6cursor13acp_transportNtB6_18CursorAcpTransportNtNtBa_9transport14AgentTransport20take_notification_rx0Bc_
FNDA:1,_RNvNtNtNtNtCs2XshHk0aCOj_9paperboat7backend6cursor13acp_transport5testss_20test_factory_methods
FNDA:1,_RNvNtNtNtNtCs2XshHk0aCOj_9paperboat7backend6cursor13acp_transport5testss_24test_new_creates_channel
FNDA:1,_RNvNtNtNtNtCs2XshHk0aCOj_9paperboat7backend6cursor13acp_transport5testss_29test_respond_to_tool_succeeds
FNDA:1,_RNvNtNtNtNtCs2XshHk0aCOj_9paperboat7backend6cursor13acp_transport5testss_29test_transport_stores_timeout
FNDA:1,_RNvNtNtNtNtCs2XshHk0aCOj_9paperboat7backend6cursor13acp_transport5testss_30test_convert_text_notification
FNDA:1,_RNvNtNtNtNtCs2XshHk0aCOj_9paperboat7backend6cursor13acp_transport5testss_30test_convert_tool_result_error
FNDA:1,_RNvNtNtNtNtCs2XshHk0aCOj_9paperboat7backend6cursor13acp_transport5testss_31test_acp_transport_is_send_sync
FNDA:1,_RNvNtNtNtNtCs2XshHk0aCOj_9paperboat7backend6cursor13acp_transport5testss_31test_convert_completion_failure
FNDA:1,_RNvNtNtNtNtCs2XshHk0aCOj_9paperboat7backend6cursor13acp_transport5testss_33test_convert_unknown_notification
FNDA:1,_RNvNtNtNtNtCs2XshHk0aCOj_9paperboat7backend6cursor13acp_transport5testss_34test_convert_tool_use_notification
FNDA:1,_RNvNtNtNtNtCs2XshHk0aCOj_9paperboat7backend6cursor13acp_transport5testss_35test_send_prompt_without_init_fails
FNDA:1,_RNvNtNtNtNtCs2XshHk0aCOj_9paperboat7backend6cursor13acp_transport5testss_36test_convert_completion_notification
FNDA:1,_RNvNtNtNtNtCs2XshHk0aCOj_9paperboat7backend6cursor13acp_transport5testss_36test_take_notifications_returns_once
FNDA:1,_RNvNtNtNtNtCs2XshHk0aCOj_9paperboat7backend6cursor13acp_transport5testss_37test_convert_tool_result_notification
FNDA:1,_RNvNtNtNtNtCs2XshHk0aCOj_9paperboat7backend6cursor13acp_transport5testss_38test_create_session_without_init_fails
FNDA:1,_RNvNtNtNtNtCs2XshHk0aCOj_9paperboat7backend6cursor13acp_transport5testss_40test_convert_tool_use_with_complex_input
FNDA:1,_RNvNtNtNtNtCs2XshHk0aCOj_9paperboat7backend6cursor13acp_transport5testss_40test_shutdown_on_uninitialized_transport
FNDA:1,_RNvNtNtNtNtCs2XshHk0aCOj_9paperboat7backend6cursor13acp_transport5testss_43test_convert_completion_defaults_to_success
FNDA:1,_RNvNtNtNtNtCs2XshHk0aCOj_9paperboat7backend6cursor13acp_transport5testss_49test_convert_text_notification_with_empty_content
FNDA:1,_RNvNtNtNtNtCs2XshHk0aCOj_9paperboat7backend6cursor13acp_transport5testss_51test_convert_notification_missing_type_returns_none
FNDA:1,_RNvNtNtNtNtCs2XshHk0aCOj_9paperboat7backend6cursor13acp_transport5testss_51test_convert_notification_wrong_method_returns_none
FNDA:1,_RNvNtNtNtNtCs2XshHk0aCOj_9paperboat7backend6cursor13acp_transport5testss_53test_convert_notification_missing_params_returns_none
FNDA:1,_RNvNtNtNtNtCs2XshHk0aCOj_9paperboat7backend6cursor13acp_transport5testss_57test_convert_completion_notification_with_type_completion
FNDA:1,_RNvMNtNtNtCs2XshHk0aCOj_9paperboat7backend6cursor13acp_transportNtB2_18CursorAcpTransport11for_planner
FNDA:3,_RNvMNtNtNtCs2XshHk0aCOj_9paperboat7backend6cursor13acp_transportNtB2_18CursorAcpTransport13set_workspace
FNDA:1,_RNvMNtNtNtCs2XshHk0aCOj_9paperboat7backend6cursor13acp_transportNtB2_18CursorAcpTransport15for_implementer
FNDA:3,_RNvMNtNtNtCs2XshHk0aCOj_9paperboat7backend6cursor13acp_transportNtB2_18CursorAcpTransport15set_mcp_servers
FNDA:1,_RNvMNtNtNtCs2XshHk0aCOj_9paperboat7backend6cursor13acp_transportNtB2_18CursorAcpTransport16for_orchestrator
FNDA:14,_RNvMNtNtNtCs2XshHk0aCOj_9paperboat7backend6cursor13acp_transportNtB2_18CursorAcpTransport20convert_notification
FNDA:13,_RNvMNtNtNtCs2XshHk0aCOj_9paperboat7backend6cursor13acp_transportNtB2_18CursorAcpTransport3new
FNDA:3,_RNvMNtNtNtCs2XshHk0aCOj_9paperboat7backend6cursor13acp_transportNtB2_18CursorAcpTransport9set_model
FNDA:0,_RNvXs_NtNtNtCs2XshHk0aCOj_9paperboat7backend6cursor13acp_transportNtB4_18CursorAcpTransportNtNtB8_9transport14AgentTransport10initialize
FNDA:1,_RNvXs_NtNtNtCs2XshHk0aCOj_9paperboat7backend6cursor13acp_transportNtB4_18CursorAcpTransportNtNtB8_9transport14AgentTransport11send_prompt
FNDA:2,_RNvXs_NtNtNtCs2XshHk0aCOj_9paperboat7backend6cursor13acp_transportNtB4_18CursorAcpTransportNtNtB8_9transport14AgentTransport14create_session
FNDA:1,_RNvXs_NtNtNtCs2XshHk0aCOj_9paperboat7backend6cursor13acp_transportNtB4_18CursorAcpTransportNtNtB8_9transport14AgentTransport15respond_to_tool
FNDA:2,_RNvXs_NtNtNtCs2XshHk0aCOj_9paperboat7backend6cursor13acp_transportNtB4_18CursorAcpTransportNtNtB8_9transport14AgentTransport18take_notifications
FNDA:0,_RNvXs_NtNtNtCs2XshHk0aCOj_9paperboat7backend6cursor13acp_transportNtB4_18CursorAcpTransportNtNtB8_9transport14AgentTransport20take_notification_rx
FNDA:0,_RNvXs_NtNtNtCs2XshHk0aCOj_9paperboat7backend6cursor13acp_transportNtB4_18CursorAcpTransportNtNtB8_9transport14AgentTransport4recv
FNDA:1,_RNvXs_NtNtNtCs2XshHk0aCOj_9paperboat7backend6cursor13acp_transportNtB4_18CursorAcpTransportNtNtB8_9transport14AgentTransport8shutdown
FNF:52
FNH:46
DA:79,13
DA:80,13
DA:81,13
DA:82,13
DA:83,13
DA:84,13
DA:85,13
DA:86,13
DA:87,13
DA:88,13
DA:89,13
DA:90,13
DA:91,13
DA:96,1
DA:97,1
DA:98,1
DA:103,1
DA:104,1
DA:105,1
DA:110,1
DA:111,1
DA:112,1
DA:115,3
DA:116,3
DA:117,3
DA:120,3
DA:121,3
DA:122,3
DA:125,3
DA:126,3
DA:127,3
DA:130,14
DA:132,14
DA:133,13
DA:135,11
DA:136,11
DA:137,2
DA:138,2
DA:139,2
DA:140,2
DA:141,2
DA:143,9
DA:144,2
DA:145,2
DA:146,2
DA:147,2
DA:148,2
DA:149,2
DA:150,2
DA:151,2
DA:152,2
DA:154,7
DA:155,2
DA:156,2
DA:157,2
DA:158,2
DA:159,2
DA:160,2
DA:161,2
DA:162,2
DA:163,2
DA:164,2
DA:165,2
DA:166,2
DA:168,5
DA:169,4
DA:170,4
DA:171,4
DA:172,4
DA:173,4
DA:174,4
DA:175,4
DA:176,4
DA:177,4
DA:178,4
DA:179,4
DA:180,4
DA:181,4
DA:185,1
DA:186,1
DA:187,1
DA:188,1
DA:191,14
DA:199,0
DA:216,0
DA:221,2
DA:222,2
DA:223,2
DA:224,2
DA:243,0
DA:244,0
DA:246,0
DA:247,0
DA:249,0
DA:250,0
DA:253,0
DA:254,0
DA:255,0
DA:257,0
DA:261,2
DA:264,1
DA:265,1
DA:266,1
DA:267,1
DA:270,1
DA:273,2
DA:274,2
DA:275,2
DA:290,1
DA:295,1
DA:298,1
DA:304,1
DA:310,0
DA:311,0
DA:312,0
DA:313,0
DA:315,0
DA:321,0
DA:322,0
DA:323,0
DA:340,1
DA:341,1
DA:342,1
DA:343,1
DA:344,1
DA:345,1
DA:349,1
DA:350,1
DA:353,1
DA:354,1
DA:355,1
DA:357,1
DA:358,1
DA:360,0
DA:362,1
DA:365,1
DA:366,1
DA:367,1
DA:368,1
DA:369,1
DA:370,1
DA:374,1
DA:375,1
DA:377,1
DA:378,1
DA:380,0
DA:382,1
DA:385,1
DA:386,1
DA:387,1
DA:388,1
DA:389,1
DA:390,1
DA:391,1
DA:392,1
DA:396,1
DA:397,1
DA:400,1
DA:401,1
DA:402,1
DA:403,1
DA:404,1
DA:406,1
DA:407,1
DA:408,1
DA:409,1
DA:411,0
DA:413,1
DA:416,1
DA:417,1
DA:418,1
DA:419,1
DA:420,1
DA:421,1
DA:422,1
DA:423,1
DA:424,1
DA:425,1
DA:427,1
DA:432,1
DA:435,1
DA:436,1
DA:438,1
DA:439,1
DA:440,1
DA:442,0
DA:444,1
DA:447,1
DA:448,1
DA:449,1
DA:450,1
DA:451,1
DA:452,1
DA:453,1
DA:454,1
DA:458,1
DA:459,1
DA:462,1
DA:463,1
DA:464,1
DA:465,1
DA:466,1
DA:468,1
DA:469,1
DA:470,1
DA:471,1
DA:473,0
DA:475,1
DA:478,1
DA:479,1
DA:480,1
DA:481,1
DA:482,1
DA:483,1
DA:484,1
DA:485,1
DA:489,1
DA:492,1
DA:493,1
DA:495,1
DA:497,1
DA:498,1
DA:500,0
DA:502,1
DA:505,1
DA:506,1
DA:507,1
DA:508,1
DA:509,1
DA:510,1
DA:511,1
DA:515,1
DA:516,1
DA:519,1
DA:520,1
DA:521,1
DA:522,1
DA:524,1
DA:525,1
DA:526,1
DA:528,0
DA:530,1
DA:533,1
DA:535,1
DA:536,1
DA:537,1
DA:538,1
DA:539,1
DA:543,1
DA:545,1
DA:546,1
DA:549,1
DA:550,1
DA:551,1
DA:552,1
DA:553,1
DA:554,1
DA:555,1
DA:559,1
DA:562,1
DA:563,1
DA:565,1
DA:566,1
DA:568,0
DA:570,1
DA:573,1
DA:575,1
DA:576,1
DA:577,1
DA:578,1
DA:582,1
DA:585,1
DA:586,1
DA:588,1
DA:589,1
DA:591,0
DA:593,1
DA:596,1
DA:597,1
DA:598,1
DA:599,1
DA:600,1
DA:601,1
DA:605,1
DA:606,1
DA:608,1
DA:609,1
DA:610,1
DA:612,0
DA:614,1
DA:621,1
DA:622,1
DA:623,1
DA:624,1
DA:627,1
DA:628,1
DA:629,1
DA:632,1
DA:633,1
DA:634,1
DA:637,1
DA:638,1
DA:639,1
DA:642,1
DA:643,1
DA:644,1
DA:645,1
DA:646,1
DA:650,1
DA:651,1
DA:652,1
DA:659,1
DA:660,1
DA:661,1
DA:662,1
DA:665,1
DA:666,1
DA:667,1
DA:668,1
DA:669,1
DA:670,1
DA:673,1
DA:674,1
DA:676,1
DA:677,1
DA:679,1
DA:680,1
DA:682,1
DA:683,1
DA:684,1
DA:687,1
DA:688,1
DA:689,1
DA:692,1
DA:693,1
DA:696,1
DA:697,1
DA:698,1
DA:701,1
DA:702,1
DA:703,1
DA:704,1
DA:705,1
DA:708,1
DA:709,1
DA:710,1
DA:713,1
DA:714,1
DA:715,1
DA:718,1
DA:719,1
DA:720,1
DA:724,1
DA:725,1
DA:726,1
DA:727,1
DA:728,1
DA:731,1
DA:732,1
DA:733,1
DA:736,1
DA:737,1
DA:738,1
DA:739,1
DA:742,1
DA:743,1
DA:744,1
DA:747,1
DA:748,1
DA:749,1
DA:750,1
DA:751,1
BRF:0
BRH:0
LF:384
LH:353
end_of_record
SF:/Users/dbmrq/Documents/Programação/Misc/paperboat/src/backend/cursor/auth.rs
FN:42,_RNvNtNtNtCs2XshHk0aCOj_9paperboat7backend6cursor4auth17check_cursor_auth
FN:83,_RNvNtNtNtCs2XshHk0aCOj_9paperboat7backend6cursor4auth21get_cursor_config_dir
FN:74,_RNvNtNtNtCs2XshHk0aCOj_9paperboat7backend6cursor4auth24cursor_config_dir_exists
FN:115,_RNvXs_NtNtNtNtCs2XshHk0aCOj_9paperboat7backend6cursor4auth5testsNtB4_8EnvGuardNtNtNtCskpTlHb4dJmc_4core3ops4drop4Drop4drop
FN:101,_RNvMNtNtNtNtCs2XshHk0aCOj_9paperboat7backend6cursor4auth5testsNtB2_8EnvGuard3set
FN:107,_RNvMNtNtNtNtCs2XshHk0aCOj_9paperboat7backend6cursor4auth5testsNtB2_8EnvGuard6remove
FN:162,_RNvNtNtNtNtCs2XshHk0aCOj_9paperboat7backend6cursor4auth5testss_29test_api_key_takes_precedence
FN:127,_RNvNtNtNtNtCs2XshHk0aCOj_9paperboat7backend6cursor4auth5testss_36test_check_cursor_auth_error_message
FN:151,_RNvNtNtNtNtCs2XshHk0aCOj_9paperboat7backend6cursor4auth5testss_42test_get_cursor_config_dir_contains_cursor
FNDA:2,_RNvNtNtNtCs2XshHk0aCOj_9paperboat7backend6cursor4auth17check_cursor_auth
FNDA:2,_RNvNtNtNtCs2XshHk0aCOj_9paperboat7backend6cursor4auth21get_cursor_config_dir
FNDA:1,_RNvNtNtNtCs2XshHk0aCOj_9paperboat7backend6cursor4auth24cursor_config_dir_exists
FNDA:4,_RNvXs_NtNtNtNtCs2XshHk0aCOj_9paperboat7backend6cursor4auth5testsNtB4_8EnvGuardNtNtNtCskpTlHb4dJmc_4core3ops4drop4Drop4drop
FNDA:2,_RNvMNtNtNtNtCs2XshHk0aCOj_9paperboat7backend6cursor4auth5testsNtB2_8EnvGuard3set
FNDA:2,_RNvMNtNtNtNtCs2XshHk0aCOj_9paperboat7backend6cursor4auth5testsNtB2_8EnvGuard6remove
FNDA:1,_RNvNtNtNtNtCs2XshHk0aCOj_9paperboat7backend6cursor4auth5testss_29test_api_key_takes_precedence
FNDA:1,_RNvNtNtNtNtCs2XshHk0aCOj_9paperboat7backend6cursor4auth5testss_36test_check_cursor_auth_error_message
FNDA:1,_RNvNtNtNtNtCs2XshHk0aCOj_9paperboat7backend6cursor4auth5testss_42test_get_cursor_config_dir_contains_cursor
FNF:9
FNH:9
DA:42,2
DA:44,2
DA:45,1
DA:46,1
DA:48,1
DA:49,0
DA:50,1
DA:53,1
DA:54,1
DA:55,0
DA:58,0
DA:65,2
DA:74,1
DA:75,1
DA:76,1
DA:77,1
DA:83,2
DA:86,2
DA:87,2
DA:101,2
DA:102,2
DA:103,2
DA:104,2
DA:105,2
DA:107,2
DA:108,2
DA:109,2
DA:110,2
DA:111,2
DA:115,4
DA:116,4
DA:117,0
DA:118,4
DA:120,4
DA:127,1
DA:128,1
DA:129,1
DA:133,1
DA:136,1
DA:137,0
DA:138,0
DA:139,0
DA:142,0
DA:143,0
DA:146,1
DA:148,1
DA:151,1
DA:152,1
DA:153,1
DA:154,1
DA:158,1
DA:159,1
DA:162,1
DA:164,1
DA:165,1
DA:166,1
DA:167,1
BRF:0
BRH:0
LF:57
LH:48
end_of_record
SF:/Users/dbmrq/Documents/Programação/Misc/paperboat/src/backend/cursor/cache.rs
FN:95,_RNvNtNtNtNtCs2XshHk0aCOj_9paperboat7backend6cursor5cache5tests16setup_test_cache
FN:125,_RNvNtNtNtNtCs2XshHk0aCOj_9paperboat7backend6cursor5cache5testss_30test_worker_returns_empty_path
FN:132,_RNvNtNtNtNtCs2XshHk0aCOj_9paperboat7backend6cursor5cache5testss_36test_config_format_with_denied_tools
FN:153,_RNvNtNtNtNtCs2XshHk0aCOj_9paperboat7backend6cursor5cache5testss_42test_config_format_with_empty_denied_tools
FN:52,_RNvNtNtNtCs2XshHk0aCOj_9paperboat7backend6cursor5cache18setup_cursor_cache
FN:65,_RNCNvNtNtNtCs2XshHk0aCOj_9paperboat7backend6cursor5cache18setup_cursor_cache0B9_
FN:78,_RNCNvNtNtNtCs2XshHk0aCOj_9paperboat7backend6cursor5cache18setup_cursor_caches_0B9_
FNDA:2,_RNvNtNtNtNtCs2XshHk0aCOj_9paperboat7backend6cursor5cache5tests16setup_test_cache
FNDA:1,_RNvNtNtNtNtCs2XshHk0aCOj_9paperboat7backend6cursor5cache5testss_30test_worker_returns_empty_path
FNDA:1,_RNvNtNtNtNtCs2XshHk0aCOj_9paperboat7backend6cursor5cache5testss_36test_config_format_with_denied_tools
FNDA:1,_RNvNtNtNtNtCs2XshHk0aCOj_9paperboat7backend6cursor5cache5testss_42test_config_format_with_empty_denied_tools
FNDA:1,_RNvNtNtNtCs2XshHk0aCOj_9paperboat7backend6cursor5cache18setup_cursor_cache
FNDA:0,_RNCNvNtNtNtCs2XshHk0aCOj_9paperboat7backend6cursor5cache18setup_cursor_cache0B9_
FNDA:0,_RNCNvNtNtNtCs2XshHk0aCOj_9paperboat7backend6cursor5cache18setup_cursor_caches_0B9_
FNF:7
FNH:5
DA:52,1
DA:53,1
DA:54,0
DA:55,0
DA:56,1
DA:59,0
DA:60,0
DA:63,0
DA:64,0
DA:65,0
DA:66,0
DA:69,0
DA:70,0
DA:71,0
DA:72,0
DA:73,0
DA:77,0
DA:78,0
DA:79,0
DA:81,0
DA:83,0
DA:85,0
DA:86,1
DA:95,2
DA:96,2
DA:97,2
DA:98,2
DA:99,2
DA:100,2
DA:101,1
DA:102,1
DA:103,0
DA:106,2
DA:107,2
DA:110,2
DA:111,2
DA:112,2
DA:113,2
DA:114,2
DA:118,2
DA:119,2
DA:121,2
DA:122,2
DA:125,1
DA:126,1
DA:127,1
DA:128,1
DA:129,1
DA:132,1
DA:133,1
DA:134,1
DA:135,1
DA:137,1
DA:138,1
DA:139,1
DA:141,1
DA:142,1
DA:143,1
DA:144,1
DA:145,1
DA:146,1
DA:147,1
DA:148,1
DA:149,1
DA:150,1
DA:153,1
DA:154,1
DA:156,1
DA:157,1
DA:158,1
DA:160,1
DA:161,1
DA:162,1
DA:163,1
DA:164,1
DA:165,1
DA:166,1
BRF:0
BRH:0
LF:80
LH:57
end_of_record
SF:/Users/dbmrq/Documents/Programação/Misc/paperboat/src/backend/cursor/cli.rs
FN:186,_RINvMNtNtNtCs2XshHk0aCOj_9paperboat7backend6cursor3cliNtB3_18CursorCliTransport3newReEB9_
FN:503,_RNCNCNvMNtNtNtCs2XshHk0aCOj_9paperboat7backend6cursor3cliNtB6_18CursorCliTransport11spawn_agent00Bc_
FN:526,_RNCNCNvMNtNtNtCs2XshHk0aCOj_9paperboat7backend6cursor3cliNtB6_18CursorCliTransport11spawn_agent0s0_0Bc_
FN:519,_RNCNCNvMNtNtNtCs2XshHk0aCOj_9paperboat7backend6cursor3cliNtB6_18CursorCliTransport11spawn_agent0s_0Bc_
FN:643,_RNCNCNvXs3_NtNtNtCs2XshHk0aCOj_9paperboat7backend6cursor3cliNtB9_18CursorCliTransportNtNtBd_9transport14AgentTransport14create_session00Bf_
FN:646,_RNCNCNvXs3_NtNtNtCs2XshHk0aCOj_9paperboat7backend6cursor3cliNtB9_18CursorCliTransportNtNtBd_9transport14AgentTransport14create_session0s_0Bf_
FN:724,_RNCNCNvXs3_NtNtNtCs2XshHk0aCOj_9paperboat7backend6cursor3cliNtB9_18CursorCliTransportNtNtBd_9transport14AgentTransport4recv00Bf_
FN:731,_RNCNCNvXs3_NtNtNtCs2XshHk0aCOj_9paperboat7backend6cursor3cliNtB9_18CursorCliTransportNtNtBd_9transport14AgentTransport4recv0s_0Bf_
FN:432,_RNCNvMNtNtNtCs2XshHk0aCOj_9paperboat7backend6cursor3cliNtB4_18CursorCliTransport11spawn_agent0Ba_
FN:605,_RNCNvMNtNtNtCs2XshHk0aCOj_9paperboat7backend6cursor3cliNtB4_18CursorCliTransport12kill_process0Ba_
FN:254,_RNCNvMNtNtNtCs2XshHk0aCOj_9paperboat7backend6cursor3cliNtB4_18CursorCliTransport17parse_output_line0Ba_
FN:307,_RNCNvMNtNtNtCs2XshHk0aCOj_9paperboat7backend6cursor3cliNtB4_18CursorCliTransport17parse_output_lines_0Ba_
FN:762,_RNCNvXs3_NtNtNtCs2XshHk0aCOj_9paperboat7backend6cursor3cliNtB7_18CursorCliTransportNtNtBb_9transport14AgentTransport20take_notification_rx0Bd_
FN:1331,_RINvNvNtNtNtNtCs2XshHk0aCOj_9paperboat7backend6cursor3cli5testss_31test_cli_transport_is_send_sync16assert_send_syncNtB6_18CursorCliTransportEBc_
FN:1569,_RNCNCNvNtNtNtNtCs2XshHk0aCOj_9paperboat7backend6cursor3cli5testss_63test_send_prompt_propagates_mcp_enable_failure_with_socket_path00Bd_
FN:1550,_RNCNCNvNtNtNtNtCs2XshHk0aCOj_9paperboat7backend6cursor3cli5testss_67test_send_prompt_propagates_agent_spawn_failure_without_socket_path00Bd_
FN:1465,_RNCNvNtNtNtNtCs2XshHk0aCOj_9paperboat7backend6cursor3cli5testss_22test_shutdown_succeeds0Bb_
FN:1378,_RNCNvNtNtNtNtCs2XshHk0aCOj_9paperboat7backend6cursor3cli5testss_24test_initialize_succeeds0Bb_
FN:1449,_RNCNvNtNtNtNtCs2XshHk0aCOj_9paperboat7backend6cursor3cli5testss_28test_respond_to_tool_is_noop0Bb_
FN:1386,_RNCNvNtNtNtNtCs2XshHk0aCOj_9paperboat7backend6cursor3cli5testss_33test_create_session_stores_config0Bb_
FN:1401,_RNCNvNtNtNtNtCs2XshHk0aCOj_9paperboat7backend6cursor3cli5testss_34test_create_session_generates_uuid0Bb_
FN:1436,_RNCNvNtNtNtNtCs2XshHk0aCOj_9paperboat7backend6cursor3cli5testss_36test_take_notifications_returns_once0Bb_
FN:1537,_RNCNvNtNtNtNtCs2XshHk0aCOj_9paperboat7backend6cursor3cli5testss_38test_multiple_outputs_parsed_correctly0Bb_
FN:1472,_RNCNvNtNtNtNtCs2XshHk0aCOj_9paperboat7backend6cursor3cli5testss_40test_recv_fails_after_take_notifications0Bb_
FN:1483,_RNCNvNtNtNtNtCs2XshHk0aCOj_9paperboat7backend6cursor3cli5testss_49test_take_notification_rx_bridges_session_updates0Bb_
FN:1414,_RNCNvNtNtNtNtCs2XshHk0aCOj_9paperboat7backend6cursor3cli5testss_56test_create_session_extracts_socket_path_from_mcp_config0Bb_
FN:1569,_RNCNvNtNtNtNtCs2XshHk0aCOj_9paperboat7backend6cursor3cli5testss_63test_send_prompt_propagates_mcp_enable_failure_with_socket_path0Bb_
FN:1550,_RNCNvNtNtNtNtCs2XshHk0aCOj_9paperboat7backend6cursor3cli5testss_67test_send_prompt_propagates_agent_spawn_failure_without_socket_path0Bb_
FN:216,_RNvMNtNtNtCs2XshHk0aCOj_9paperboat7backend6cursor3cliNtB2_18CursorCliTransport11for_planner
FN:432,_RNvMNtNtNtCs2XshHk0aCOj_9paperboat7backend6cursor3cliNtB2_18CursorCliTransport11spawn_agent
FN:605,_RNvMNtNtNtCs2XshHk0aCOj_9paperboat7backend6cursor3cliNtB2_18CursorCliTransport12kill_process
FN:223,_RNvMNtNtNtCs2XshHk0aCOj_9paperboat7backend6cursor3cliNtB2_18CursorCliTransport15for_implementer
FN:209,_RNvMNtNtNtCs2XshHk0aCOj_9paperboat7backend6cursor3cliNtB2_18CursorCliTransport16for_orchestrator
FN:228,_RNvMNtNtNtCs2XshHk0aCOj_9paperboat7backend6cursor3cliNtB2_18CursorCliTransport17parse_output_line
FN:339,_RNvMNtNtNtCs2XshHk0aCOj_9paperboat7backend6cursor3cliNtB2_18CursorCliTransport22session_update_to_json
FN:626,_RNvXs3_NtNtNtCs2XshHk0aCOj_9paperboat7backend6cursor3cliNtB5_18CursorCliTransportNtNtB9_9transport14AgentTransport10initialize
FN:674,_RNvXs3_NtNtNtCs2XshHk0aCOj_9paperboat7backend6cursor3cliNtB5_18CursorCliTransportNtNtB9_9transport14AgentTransport11send_prompt
FN:636,_RNvXs3_NtNtNtCs2XshHk0aCOj_9paperboat7backend6cursor3cliNtB5_18CursorCliTransportNtNtB9_9transport14AgentTransport14create_session
FN:702,_RNvXs3_NtNtNtCs2XshHk0aCOj_9paperboat7backend6cursor3cliNtB5_18CursorCliTransportNtNtB9_9transport14AgentTransport15respond_to_tool
FN:688,_RNvXs3_NtNtNtCs2XshHk0aCOj_9paperboat7backend6cursor3cliNtB5_18CursorCliTransportNtNtB9_9transport14AgentTransport18take_notifications
FN:754,_RNvXs3_NtNtNtCs2XshHk0aCOj_9paperboat7backend6cursor3cliNtB5_18CursorCliTransportNtNtB9_9transport14AgentTransport20take_notification_rx
FN:743,_RNvXs3_NtNtNtCs2XshHk0aCOj_9paperboat7backend6cursor3cliNtB5_18CursorCliTransportNtNtB9_9transport14AgentTransport4kind
FN:722,_RNvXs3_NtNtNtCs2XshHk0aCOj_9paperboat7backend6cursor3cliNtB5_18CursorCliTransportNtNtB9_9transport14AgentTransport4recv
FN:712,_RNvXs3_NtNtNtCs2XshHk0aCOj_9paperboat7backend6cursor3cliNtB5_18CursorCliTransportNtNtB9_9transport14AgentTransport8shutdown
FN:780,_RNvXs_NtNtNtCs2XshHk0aCOj_9paperboat7backend6cursor3cliNtB4_18CursorCliTransportNtNtNtCskpTlHb4dJmc_4core3ops4drop4Drop4drop
FN:819,_RNvXs_NtNtNtNtCs2XshHk0aCOj_9paperboat7backend6cursor3cli5testsNtB4_8EnvGuardNtNtNtCskpTlHb4dJmc_4core3ops4drop4Drop4drop
FN:811,_RNvMNtNtNtNtCs2XshHk0aCOj_9paperboat7backend6cursor3cli5testsNtB2_8EnvGuard3set
FN:832,_RNvNtNtNtNtCs2XshHk0aCOj_9paperboat7backend6cursor3cli5testss_22test_parse_text_output
FN:1465,_RNvNtNtNtNtCs2XshHk0aCOj_9paperboat7backend6cursor3cli5testss_22test_shutdown_succeeds
FN:1378,_RNvNtNtNtNtCs2XshHk0aCOj_9paperboat7backend6cursor3cli5testss_24test_initialize_succeeds
FN:1336,_RNvNtNtNtNtCs2XshHk0aCOj_9paperboat7backend6cursor3cli5testss_24test_new_creates_channel
FN:994,_RNvNtNtNtNtCs2XshHk0aCOj_9paperboat7backend6cursor3cli5testss_24test_parse_result_output
FN:882,_RNvNtNtNtNtCs2XshHk0aCOj_9paperboat7backend6cursor3cli5testss_26test_parse_tool_use_output
FN:1292,_RNvNtNtNtNtCs2XshHk0aCOj_9paperboat7backend6cursor3cli5testss_28test_parse_assistant_message
FN:1113,_RNvNtNtNtNtCs2XshHk0aCOj_9paperboat7backend6cursor3cli5testss_28test_planner_allows_set_goal
FN:1449,_RNvNtNtNtNtCs2XshHk0aCOj_9paperboat7backend6cursor3cli5testss_28test_respond_to_tool_is_noop
FN:936,_RNvNtNtNtNtCs2XshHk0aCOj_9paperboat7backend6cursor3cli5testss_29test_parse_tool_result_output
FN:1330,_RNvNtNtNtNtCs2XshHk0aCOj_9paperboat7backend6cursor3cli5testss_31test_cli_transport_is_send_sync
FN:1124,_RNvNtNtNtNtCs2XshHk0aCOj_9paperboat7backend6cursor3cli5testss_31test_planner_allows_create_task
FN:1164,_RNvNtNtNtNtCs2XshHk0aCOj_9paperboat7backend6cursor3cli5testss_32test_implementer_allows_complete
FN:1368,_RNvNtNtNtNtCs2XshHk0aCOj_9paperboat7backend6cursor3cli5testss_32test_new_initializes_empty_model
FN:1015,_RNvNtNtNtNtCs2XshHk0aCOj_9paperboat7backend6cursor3cli5testss_32test_parse_result_output_failure
FN:1268,_RNvNtNtNtNtCs2XshHk0aCOj_9paperboat7backend6cursor3cli5testss_32test_parse_thinking_delta_output
FN:1103,_RNvNtNtNtNtCs2XshHk0aCOj_9paperboat7backend6cursor3cli5testss_32test_planner_denies_file_editing
FN:1386,_RNvNtNtNtNtCs2XshHk0aCOj_9paperboat7backend6cursor3cli5testss_33test_create_session_stores_config
FN:1257,_RNvNtNtNtNtCs2XshHk0aCOj_9paperboat7backend6cursor3cli5testss_33test_parse_json_array_returns_raw
FN:959,_RNvNtNtNtNtCs2XshHk0aCOj_9paperboat7backend6cursor3cli5testss_33test_parse_tool_result_with_error
FN:1401,_RNvNtNtNtNtCs2XshHk0aCOj_9paperboat7backend6cursor3cli5testss_34test_create_session_generates_uuid
FN:1350,_RNvNtNtNtNtCs2XshHk0aCOj_9paperboat7backend6cursor3cli5testss_34test_for_planner_creates_transport
FN:1134,_RNvNtNtNtNtCs2XshHk0aCOj_9paperboat7backend6cursor3cli5testss_34test_orchestrator_allows_decompose
FN:1174,_RNvNtNtNtNtCs2XshHk0aCOj_9paperboat7backend6cursor3cli5testss_34test_orchestrator_denies_save_file
FN:1221,_RNvNtNtNtNtCs2XshHk0aCOj_9paperboat7backend6cursor3cli5testss_34test_parse_empty_line_returns_none
FN:1316,_RNvNtNtNtNtCs2XshHk0aCOj_9paperboat7backend6cursor3cli5testss_34test_parse_user_message_is_ignored
FN:1154,_RNvNtNtNtNtCs2XshHk0aCOj_9paperboat7backend6cursor3cli5testss_35test_orchestrator_allows_list_tasks
FN:1144,_RNvNtNtNtNtCs2XshHk0aCOj_9paperboat7backend6cursor3cli5testss_35test_orchestrator_allows_skip_tasks
FN:1196,_RNvNtNtNtNtCs2XshHk0aCOj_9paperboat7backend6cursor3cli5testss_35test_parse_unknown_json_returns_raw
FN:1092,_RNvNtNtNtNtCs2XshHk0aCOj_9paperboat7backend6cursor3cli5testss_36test_implementer_allows_file_editing
FN:1362,_RNvNtNtNtNtCs2XshHk0aCOj_9paperboat7backend6cursor3cli5testss_36test_new_initializes_empty_workspace
FN:1212,_RNvNtNtNtNtCs2XshHk0aCOj_9paperboat7backend6cursor3cli5testss_36test_parse_invalid_json_returns_none
FN:1306,_RNvNtNtNtNtCs2XshHk0aCOj_9paperboat7backend6cursor3cli5testss_36test_parse_system_message_is_ignored
FN:1436,_RNvNtNtNtNtCs2XshHk0aCOj_9paperboat7backend6cursor3cli5testss_36test_take_notifications_returns_once
FN:1183,_RNvNtNtNtNtCs2XshHk0aCOj_9paperboat7backend6cursor3cli5testss_37test_orchestrator_denies_remove_files
FN:921,_RNvNtNtNtNtCs2XshHk0aCOj_9paperboat7backend6cursor3cli5testss_37test_parse_tool_use_with_nested_input
FN:1069,_RNvNtNtNtNtCs2XshHk0aCOj_9paperboat7backend6cursor3cli5testss_37test_permission_filtering_denies_tool
FN:1356,_RNvNtNtNtNtCs2XshHk0aCOj_9paperboat7backend6cursor3cli5testss_38test_for_implementer_creates_transport
FN:1524,_RNvNtNtNtNtCs2XshHk0aCOj_9paperboat7backend6cursor3cli5testss_38test_multiple_outputs_parsed_correctly
FN:905,_RNvNtNtNtNtCs2XshHk0aCOj_9paperboat7backend6cursor3cli5testss_38test_parse_tool_use_with_complex_input
FN:1248,_RNvNtNtNtNtCs2XshHk0aCOj_9paperboat7backend6cursor3cli5testss_38test_parse_truncated_json_returns_none
FN:1344,_RNvNtNtNtNtCs2XshHk0aCOj_9paperboat7backend6cursor3cli5testss_39test_for_orchestrator_creates_transport
FN:1229,_RNvNtNtNtNtCs2XshHk0aCOj_9paperboat7backend6cursor3cli5testss_39test_parse_whitespace_only_returns_none
FN:1237,_RNvNtNtNtNtCs2XshHk0aCOj_9paperboat7backend6cursor3cli5testss_40test_parse_json_without_type_returns_raw
FN:1282,_RNvNtNtNtNtCs2XshHk0aCOj_9paperboat7backend6cursor3cli5testss_40test_parse_thinking_completed_is_ignored
FN:1472,_RNvNtNtNtNtCs2XshHk0aCOj_9paperboat7backend6cursor3cli5testss_40test_recv_fails_after_take_notifications
FN:851,_RNvNtNtNtNtCs2XshHk0aCOj_9paperboat7backend6cursor3cli5testss_41test_parse_text_output_with_empty_content
FN:1080,_RNvNtNtNtNtCs2XshHk0aCOj_9paperboat7backend6cursor3cli5testss_41test_permission_filtering_allows_mcp_tool
FN:1051,_RNvNtNtNtNtCs2XshHk0aCOj_9paperboat7backend6cursor3cli5testss_45test_parse_result_output_without_result_field
FN:865,_RNvNtNtNtNtCs2XshHk0aCOj_9paperboat7backend6cursor3cli5testss_46test_parse_text_output_with_special_characters
FN:1483,_RNvNtNtNtNtCs2XshHk0aCOj_9paperboat7backend6cursor3cli5testss_49test_take_notification_rx_bridges_session_updates
FN:1036,_RNvNtNtNtNtCs2XshHk0aCOj_9paperboat7backend6cursor3cli5testss_53test_parse_result_output_without_session_id_uses_temp
FN:1414,_RNvNtNtNtNtCs2XshHk0aCOj_9paperboat7backend6cursor3cli5testss_56test_create_session_extracts_socket_path_from_mcp_config
FN:1511,_RNvNtNtNtNtCs2XshHk0aCOj_9paperboat7backend6cursor3cli5testss_56test_session_update_text_conversion_preserves_session_id
FN:979,_RNvNtNtNtNtCs2XshHk0aCOj_9paperboat7backend6cursor3cli5testss_59test_parse_tool_result_without_is_error_defaults_to_success
FNDA:61,_RINvMNtNtNtCs2XshHk0aCOj_9paperboat7backend6cursor3cliNtB3_18CursorCliTransport3newReEB9_
FNDA:0,_RNCNCNvMNtNtNtCs2XshHk0aCOj_9paperboat7backend6cursor3cliNtB6_18CursorCliTransport11spawn_agent00Bc_
FNDA:0,_RNCNCNvMNtNtNtCs2XshHk0aCOj_9paperboat7backend6cursor3cliNtB6_18CursorCliTransport11spawn_agent0s0_0Bc_
FNDA:0,_RNCNCNvMNtNtNtCs2XshHk0aCOj_9paperboat7backend6cursor3cliNtB6_18CursorCliTransport11spawn_agent0s_0Bc_
FNDA:4,_RNCNCNvXs3_NtNtNtCs2XshHk0aCOj_9paperboat7backend6cursor3cliNtB9_18CursorCliTransportNtNtBd_9transport14AgentTransport14create_session00Bf_
FNDA:3,_RNCNCNvXs3_NtNtNtCs2XshHk0aCOj_9paperboat7backend6cursor3cliNtB9_18CursorCliTransportNtNtBd_9transport14AgentTransport14create_session0s_0Bf_
FNDA:1,_RNCNCNvXs3_NtNtNtCs2XshHk0aCOj_9paperboat7backend6cursor3cliNtB9_18CursorCliTransportNtNtBd_9transport14AgentTransport4recv00Bf_
FNDA:0,_RNCNCNvXs3_NtNtNtCs2XshHk0aCOj_9paperboat7backend6cursor3cliNtB9_18CursorCliTransportNtNtBd_9transport14AgentTransport4recv0s_0Bf_
FNDA:2,_RNCNvMNtNtNtCs2XshHk0aCOj_9paperboat7backend6cursor3cliNtB4_18CursorCliTransport11spawn_agent0Ba_
FNDA:3,_RNCNvMNtNtNtCs2XshHk0aCOj_9paperboat7backend6cursor3cliNtB4_18CursorCliTransport12kill_process0Ba_
FNDA:1,_RNCNvMNtNtNtCs2XshHk0aCOj_9paperboat7backend6cursor3cliNtB4_18CursorCliTransport17parse_output_line0Ba_
FNDA:1,_RNCNvMNtNtNtCs2XshHk0aCOj_9paperboat7backend6cursor3cliNtB4_18CursorCliTransport17parse_output_lines_0Ba_
FNDA:1,_RNCNvXs3_NtNtNtCs2XshHk0aCOj_9paperboat7backend6cursor3cliNtB7_18CursorCliTransportNtNtBb_9transport14AgentTransport20take_notification_rx0Bd_
FNDA:1,_RINvNvNtNtNtNtCs2XshHk0aCOj_9paperboat7backend6cursor3cli5testss_31test_cli_transport_is_send_sync16assert_send_syncNtB6_18CursorCliTransportEBc_
FNDA:1,_RNCNCNvNtNtNtNtCs2XshHk0aCOj_9paperboat7backend6cursor3cli5testss_63test_send_prompt_propagates_mcp_enable_failure_with_socket_path00Bd_
FNDA:1,_RNCNCNvNtNtNtNtCs2XshHk0aCOj_9paperboat7backend6cursor3cli5testss_67test_send_prompt_propagates_agent_spawn_failure_without_socket_path00Bd_
FNDA:1,_RNCNvNtNtNtNtCs2XshHk0aCOj_9paperboat7backend6cursor3cli5testss_22test_shutdown_succeeds0Bb_
FNDA:1,_RNCNvNtNtNtNtCs2XshHk0aCOj_9paperboat7backend6cursor3cli5testss_24test_initialize_succeeds0Bb_
FNDA:1,_RNCNvNtNtNtNtCs2XshHk0aCOj_9paperboat7backend6cursor3cli5testss_28test_respond_to_tool_is_noop0Bb_
FNDA:1,_RNCNvNtNtNtNtCs2XshHk0aCOj_9paperboat7backend6cursor3cli5testss_33test_create_session_stores_config0Bb_
FNDA:1,_RNCNvNtNtNtNtCs2XshHk0aCOj_9paperboat7backend6cursor3cli5testss_34test_create_session_generates_uuid0Bb_
FNDA:1,_RNCNvNtNtNtNtCs2XshHk0aCOj_9paperboat7backend6cursor3cli5testss_36test_take_notifications_returns_once0Bb_
FNDA:5,_RNCNvNtNtNtNtCs2XshHk0aCOj_9paperboat7backend6cursor3cli5testss_38test_multiple_outputs_parsed_correctly0Bb_
FNDA:1,_RNCNvNtNtNtNtCs2XshHk0aCOj_9paperboat7backend6cursor3cli5testss_40test_recv_fails_after_take_notifications0Bb_
FNDA:1,_RNCNvNtNtNtNtCs2XshHk0aCOj_9paperboat7backend6cursor3cli5testss_49test_take_notification_rx_bridges_session_updates0Bb_
FNDA:1,_RNCNvNtNtNtNtCs2XshHk0aCOj_9paperboat7backend6cursor3cli5testss_56test_create_session_extracts_socket_path_from_mcp_config0Bb_
FNDA:1,_RNCNvNtNtNtNtCs2XshHk0aCOj_9paperboat7backend6cursor3cli5testss_63test_send_prompt_propagates_mcp_enable_failure_with_socket_path0Bb_
FNDA:1,_RNCNvNtNtNtNtCs2XshHk0aCOj_9paperboat7backend6cursor3cli5testss_67test_send_prompt_propagates_agent_spawn_failure_without_socket_path0Bb_
FNDA:4,_RNvMNtNtNtCs2XshHk0aCOj_9paperboat7backend6cursor3cliNtB2_18CursorCliTransport11for_planner
FNDA:2,_RNvMNtNtNtCs2XshHk0aCOj_9paperboat7backend6cursor3cliNtB2_18CursorCliTransport11spawn_agent
FNDA:3,_RNvMNtNtNtCs2XshHk0aCOj_9paperboat7backend6cursor3cliNtB2_18CursorCliTransport12kill_process
FNDA:41,_RNvMNtNtNtCs2XshHk0aCOj_9paperboat7backend6cursor3cliNtB2_18CursorCliTransport15for_implementer
FNDA:8,_RNvMNtNtNtCs2XshHk0aCOj_9paperboat7backend6cursor3cliNtB2_18CursorCliTransport16for_orchestrator
FNDA:43,_RNvMNtNtNtCs2XshHk0aCOj_9paperboat7backend6cursor3cliNtB2_18CursorCliTransport17parse_output_line
FNDA:1,_RNvMNtNtNtCs2XshHk0aCOj_9paperboat7backend6cursor3cliNtB2_18CursorCliTransport22session_update_to_json
FNDA:3,_RNvXs3_NtNtNtCs2XshHk0aCOj_9paperboat7backend6cursor3cliNtB5_18CursorCliTransportNtNtB9_9transport14AgentTransport10initialize
FNDA:2,_RNvXs3_NtNtNtCs2XshHk0aCOj_9paperboat7backend6cursor3cliNtB5_18CursorCliTransportNtNtB9_9transport14AgentTransport11send_prompt
FNDA:8,_RNvXs3_NtNtNtCs2XshHk0aCOj_9paperboat7backend6cursor3cliNtB5_18CursorCliTransportNtNtB9_9transport14AgentTransport14create_session
FNDA:1,_RNvXs3_NtNtNtCs2XshHk0aCOj_9paperboat7backend6cursor3cliNtB5_18CursorCliTransportNtNtB9_9transport14AgentTransport15respond_to_tool
FNDA:3,_RNvXs3_NtNtNtCs2XshHk0aCOj_9paperboat7backend6cursor3cliNtB5_18CursorCliTransportNtNtB9_9transport14AgentTransport18take_notifications
FNDA:1,_RNvXs3_NtNtNtCs2XshHk0aCOj_9paperboat7backend6cursor3cliNtB5_18CursorCliTransportNtNtB9_9transport14AgentTransport20take_notification_rx
FNDA:3,_RNvXs3_NtNtNtCs2XshHk0aCOj_9paperboat7backend6cursor3cliNtB5_18CursorCliTransportNtNtB9_9transport14AgentTransport4kind
FNDA:1,_RNvXs3_NtNtNtCs2XshHk0aCOj_9paperboat7backend6cursor3cliNtB5_18CursorCliTransportNtNtB9_9transport14AgentTransport4recv
FNDA:1,_RNvXs3_NtNtNtCs2XshHk0aCOj_9paperboat7backend6cursor3cliNtB5_18CursorCliTransportNtNtB9_9transport14AgentTransport8shutdown
FNDA:61,_RNvXs_NtNtNtCs2XshHk0aCOj_9paperboat7backend6cursor3cliNtB4_18CursorCliTransportNtNtNtCskpTlHb4dJmc_4core3ops4drop4Drop4drop
FNDA:3,_RNvXs_NtNtNtNtCs2XshHk0aCOj_9paperboat7backend6cursor3cli5testsNtB4_8EnvGuardNtNtNtCskpTlHb4dJmc_4core3ops4drop4Drop4drop
FNDA:3,_RNvMNtNtNtNtCs2XshHk0aCOj_9paperboat7backend6cursor3cli5testsNtB2_8EnvGuard3set
FNDA:1,_RNvNtNtNtNtCs2XshHk0aCOj_9paperboat7backend6cursor3cli5testss_22test_parse_text_output
FNDA:1,_RNvNtNtNtNtCs2XshHk0aCOj_9paperboat7backend6cursor3cli5testss_22test_shutdown_succeeds
FNDA:1,_RNvNtNtNtNtCs2XshHk0aCOj_9paperboat7backend6cursor3cli5testss_24test_initialize_succeeds
FNDA:1,_RNvNtNtNtNtCs2XshHk0aCOj_9paperboat7backend6cursor3cli5testss_24test_new_creates_channel
FNDA:1,_RNvNtNtNtNtCs2XshHk0aCOj_9paperboat7backend6cursor3cli5testss_24test_parse_result_output
FNDA:1,_RNvNtNtNtNtCs2XshHk0aCOj_9paperboat7backend6cursor3cli5testss_26test_parse_tool_use_output
FNDA:1,_RNvNtNtNtNtCs2XshHk0aCOj_9paperboat7backend6cursor3cli5testss_28test_parse_assistant_message
FNDA:1,_RNvNtNtNtNtCs2XshHk0aCOj_9paperboat7backend6cursor3cli5testss_28test_planner_allows_set_goal
FNDA:1,_RNvNtNtNtNtCs2XshHk0aCOj_9paperboat7backend6cursor3cli5testss_28test_respond_to_tool_is_noop
FNDA:1,_RNvNtNtNtNtCs2XshHk0aCOj_9paperboat7backend6cursor3cli5testss_29test_parse_tool_result_output
FNDA:1,_RNvNtNtNtNtCs2XshHk0aCOj_9paperboat7backend6cursor3cli5testss_31test_cli_transport_is_send_sync
FNDA:1,_RNvNtNtNtNtCs2XshHk0aCOj_9paperboat7backend6cursor3cli5testss_31test_planner_allows_create_task
FNDA:1,_RNvNtNtNtNtCs2XshHk0aCOj_9paperboat7backend6cursor3cli5testss_32test_implementer_allows_complete
FNDA:1,_RNvNtNtNtNtCs2XshHk0aCOj_9paperboat7backend6cursor3cli5testss_32test_new_initializes_empty_model
FNDA:1,_RNvNtNtNtNtCs2XshHk0aCOj_9paperboat7backend6cursor3cli5testss_32test_parse_result_output_failure
FNDA:1,_RNvNtNtNtNtCs2XshHk0aCOj_9paperboat7backend6cursor3cli5testss_32test_parse_thinking_delta_output
FNDA:1,_RNvNtNtNtNtCs2XshHk0aCOj_9paperboat7backend6cursor3cli5testss_32test_planner_denies_file_editing
FNDA:1,_RNvNtNtNtNtCs2XshHk0aCOj_9paperboat7backend6cursor3cli5testss_33test_create_session_stores_config
FNDA:1,_RNvNtNtNtNtCs2XshHk0aCOj_9paperboat7backend6cursor3cli5testss_33test_parse_json_array_returns_raw
FNDA:1,_RNvNtNtNtNtCs2XshHk0aCOj_9paperboat7backend6cursor3cli5testss_33test_parse_tool_result_with_error
FNDA:1,_RNvNtNtNtNtCs2XshHk0aCOj_9paperboat7backend6cursor3cli5testss_34test_create_session_generates_uuid
FNDA:1,_RNvNtNtNtNtCs2XshHk0aCOj_9paperboat7backend6cursor3cli5testss_34test_for_planner_creates_transport
FNDA:1,_RNvNtNtNtNtCs2XshHk0aCOj_9paperboat7backend6cursor3cli5testss_34test_orchestrator_allows_decompose
FNDA:1,_RNvNtNtNtNtCs2XshHk0aCOj_9paperboat7backend6cursor3cli5testss_34test_orchestrator_denies_save_file
FNDA:1,_RNvNtNtNtNtCs2XshHk0aCOj_9paperboat7backend6cursor3cli5testss_34test_parse_empty_line_returns_none
FNDA:1,_RNvNtNtNtNtCs2XshHk0aCOj_9paperboat7backend6cursor3cli5testss_34test_parse_user_message_is_ignored
FNDA:1,_RNvNtNtNtNtCs2XshHk0aCOj_9paperboat7backend6cursor3cli5testss_35test_orchestrator_allows_list_tasks
FNDA:1,_RNvNtNtNtNtCs2XshHk0aCOj_9paperboat7backend6cursor3cli5testss_35test_orchestrator_allows_skip_tasks
FNDA:1,_RNvNtNtNtNtCs2XshHk0aCOj_9paperboat7backend6cursor3cli5testss_35test_parse_unknown_json_returns_raw
FNDA:1,_RNvNtNtNtNtCs2XshHk0aCOj_9paperboat7backend6cursor3cli5testss_36test_implementer_allows_file_editing
FNDA:1,_RNvNtNtNtNtCs2XshHk0aCOj_9paperboat7backend6cursor3cli5testss_36test_new_initializes_empty_workspace
FNDA:1,_RNvNtNtNtNtCs2XshHk0aCOj_9paperboat7backend6cursor3cli5testss_36test_parse_invalid_json_returns_none
FNDA:1,_RNvNtNtNtNtCs2XshHk0aCOj_9paperboat7backend6cursor3cli5testss_36test_parse_system_message_is_ignored
FNDA:1,_RNvNtNtNtNtCs2XshHk0aCOj_9paperboat7backend6cursor3cli5testss_36test_take_notifications_returns_once
FNDA:1,_RNvNtNtNtNtCs2XshHk0aCOj_9paperboat7backend6cursor3cli5testss_37test_orchestrator_denies_remove_files
FNDA:1,_RNvNtNtNtNtCs2XshHk0aCOj_9paperboat7backend6cursor3cli5testss_37test_parse_tool_use_with_nested_input
FNDA:1,_RNvNtNtNtNtCs2XshHk0aCOj_9paperboat7backend6cursor3cli5testss_37test_permission_filtering_denies_tool
FNDA:1,_RNvNtNtNtNtCs2XshHk0aCOj_9paperboat7backend6cursor3cli5testss_38test_for_implementer_creates_transport
FNDA:1,_RNvNtNtNtNtCs2XshHk0aCOj_9paperboat7backend6cursor3cli5testss_38test_multiple_outputs_parsed_correctly
FNDA:1,_RNvNtNtNtNtCs2XshHk0aCOj_9paperboat7backend6cursor3cli5testss_38test_parse_tool_use_with_complex_input
FNDA:1,_RNvNtNtNtNtCs2XshHk0aCOj_9paperboat7backend6cursor3cli5testss_38test_parse_truncated_json_returns_none
FNDA:1,_RNvNtNtNtNtCs2XshHk0aCOj_9paperboat7backend6cursor3cli5testss_39test_for_orchestrator_creates_transport
FNDA:1,_RNvNtNtNtNtCs2XshHk0aCOj_9paperboat7backend6cursor3cli5testss_39test_parse_whitespace_only_returns_none
FNDA:1,_RNvNtNtNtNtCs2XshHk0aCOj_9paperboat7backend6cursor3cli5testss_40test_parse_json_without_type_returns_raw
FNDA:1,_RNvNtNtNtNtCs2XshHk0aCOj_9paperboat7backend6cursor3cli5testss_40test_parse_thinking_completed_is_ignored
FNDA:1,_RNvNtNtNtNtCs2XshHk0aCOj_9paperboat7backend6cursor3cli5testss_40test_recv_fails_after_take_notifications
FNDA:1,_RNvNtNtNtNtCs2XshHk0aCOj_9paperboat7backend6cursor3cli5testss_41test_parse_text_output_with_empty_content
FNDA:1,_RNvNtNtNtNtCs2XshHk0aCOj_9paperboat7backend6cursor3cli5testss_41test_permission_filtering_allows_mcp_tool
FNDA:1,_RNvNtNtNtNtCs2XshHk0aCOj_9paperboat7backend6cursor3cli5testss_45test_parse_result_output_without_result_field
FNDA:1,_RNvNtNtNtNtCs2XshHk0aCOj_9paperboat7backend6cursor3cli5testss_46test_parse_text_output_with_special_characters
FNDA:1,_RNvNtNtNtNtCs2XshHk0aCOj_9paperboat7backend6cursor3cli5testss_49test_take_notification_rx_bridges_session_updates
FNDA:1,_RNvNtNtNtNtCs2XshHk0aCOj_9paperboat7backend6cursor3cli5testss_53test_parse_result_output_without_session_id_uses_temp
FNDA:1,_RNvNtNtNtNtCs2XshHk0aCOj_9paperboat7backend6cursor3cli5testss_56test_create_session_extracts_socket_path_from_mcp_config
FNDA:1,_RNvNtNtNtNtCs2XshHk0aCOj_9paperboat7backend6cursor3cli5testss_56test_session_update_text_conversion_preserves_session_id
FNDA:1,_RNvNtNtNtNtCs2XshHk0aCOj_9paperboat7backend6cursor3cli5testss_59test_parse_tool_result_without_is_error_defaults_to_success
FNF:100
FNH:96
DA:186,61
DA:187,61
DA:190,61
DA:191,61
DA:192,61
DA:193,61
DA:194,61
DA:195,61
DA:196,61
DA:197,61
DA:198,61
DA:199,61
DA:200,61
DA:201,61
DA:202,61
DA:203,61
DA:204,61
DA:209,8
DA:210,8
DA:211,8
DA:216,4
DA:217,4
DA:218,4
DA:223,41
DA:224,41
DA:225,41
DA:228,43
DA:229,43
DA:231,36
DA:232,6
DA:233,6
DA:234,6
DA:235,6
DA:236,2
DA:239,2
DA:240,1
DA:241,1
DA:242,1
DA:243,1
DA:244,1
DA:245,0
DA:246,1
DA:247,1
DA:249,1
DA:251,1
DA:252,1
DA:253,1
DA:254,1
DA:255,1
DA:256,0
DA:257,1
DA:258,1
DA:259,1
DA:261,1
DA:262,1
DA:263,1
DA:264,1
DA:265,1
DA:267,0
DA:271,16
DA:274,16
DA:275,4
DA:279,4
DA:280,12
DA:281,12
DA:282,12
DA:283,12
DA:284,12
DA:285,12
DA:286,12
DA:289,4
DA:290,4
DA:291,4
DA:293,4
DA:294,4
DA:295,4
DA:296,4
DA:297,4
DA:298,4
DA:300,5
DA:301,5
DA:302,5
DA:305,5
DA:307,5
DA:308,5
DA:309,5
DA:313,2
DA:314,7
DA:316,7
DA:318,7
DA:319,3
DA:320,3
DA:321,3
DA:322,3
DA:324,4
DA:328,43
DA:339,1
DA:340,1
DA:342,0
DA:343,0
DA:346,0
DA:347,0
DA:348,0
DA:349,0
DA:350,0
DA:351,0
DA:352,0
DA:353,0
DA:360,0
DA:361,0
DA:362,0
DA:363,0
DA:366,0
DA:367,0
DA:368,0
DA:369,0
DA:370,0
DA:371,0
DA:372,0
DA:373,0
DA:374,0
DA:380,1
DA:381,1
DA:382,1
DA:383,1
DA:386,1
DA:387,1
DA:388,1
DA:389,1
DA:390,1
DA:391,1
DA:392,1
DA:393,1
DA:394,1
DA:395,1
DA:402,0
DA:403,0
DA:404,0
DA:407,0
DA:408,0
DA:409,0
DA:410,0
DA:411,0
DA:412,0
DA:413,0
DA:414,0
DA:419,0
DA:420,0
DA:421,0
DA:422,0
DA:423,0
DA:424,0
DA:429,1
DA:432,2
DA:437,2
DA:438,1
DA:439,1
DA:440,1
DA:441,1
DA:442,1
DA:444,1
DA:450,1
DA:451,1
DA:452,1
DA:453,1
DA:454,1
DA:455,1
DA:456,1
DA:457,1
DA:458,1
DA:461,1
DA:462,1
DA:463,1
DA:466,1
DA:467,1
DA:468,1
DA:471,1
DA:472,1
DA:473,1
DA:476,1
DA:479,1
DA:480,1
DA:481,1
DA:482,1
DA:484,1
DA:487,0
DA:491,1
DA:494,0
DA:495,0
DA:496,0
DA:498,0
DA:499,0
DA:502,0
DA:503,0
DA:504,0
DA:505,0
DA:506,0
DA:507,0
DA:508,0
DA:509,0
DA:511,0
DA:512,0
DA:516,0
DA:517,0
DA:518,0
DA:519,0
DA:521,0
DA:522,0
DA:523,0
DA:526,0
DA:527,0
DA:528,0
DA:531,0
DA:532,0
DA:533,0
DA:534,0
DA:535,0
DA:536,0
DA:537,0
DA:538,0
DA:539,0
DA:540,0
DA:541,0
DA:542,0
DA:543,0
DA:545,0
DA:546,0
DA:547,0
DA:548,0
DA:551,0
DA:553,0
DA:555,0
DA:556,0
DA:557,0
DA:559,0
DA:562,0
DA:563,0
DA:566,0
DA:567,0
DA:570,0
DA:577,0
DA:579,0
DA:581,0
DA:582,0
DA:585,0
DA:586,0
DA:587,0
DA:588,0
DA:591,0
DA:595,0
DA:596,0
DA:598,0
DA:599,0
DA:601,0
DA:602,2
DA:605,3
DA:607,3
DA:608,0
DA:609,3
DA:612,3
DA:613,0
DA:614,0
DA:615,0
DA:616,3
DA:617,3
DA:626,3
DA:629,3
DA:636,8
DA:643,4
DA:646,3
DA:667,8
DA:674,2
DA:682,2
DA:688,3
DA:689,3
DA:690,3
DA:702,1
DA:707,1
DA:712,1
DA:716,1
DA:722,1
DA:724,1
DA:725,1
DA:728,1
DA:731,0
DA:732,0
DA:733,0
DA:737,1
DA:743,3
DA:744,3
DA:745,3
DA:754,1
DA:756,1
DA:759,1
DA:762,1
DA:763,1
DA:764,2
DA:766,1
DA:767,1
DA:769,0
DA:770,1
DA:772,0
DA:773,0
DA:775,1
DA:776,1
DA:780,61
DA:782,61
DA:783,0
DA:784,61
DA:787,61
DA:788,0
DA:789,0
DA:790,0
DA:791,61
DA:792,61
DA:811,3
DA:812,3
DA:813,3
DA:814,3
DA:815,3
DA:819,3
DA:820,3
DA:821,3
DA:822,0
DA:824,3
DA:832,1
DA:833,1
DA:834,1
DA:835,1
DA:837,1
DA:839,1
DA:840,1
DA:841,1
DA:843,1
DA:844,1
DA:846,0
DA:848,1
DA:851,1
DA:852,1
DA:853,1
DA:854,1
DA:856,1
DA:857,1
DA:858,1
DA:860,0
DA:862,1
DA:865,1
DA:866,1
DA:868,1
DA:869,1
DA:871,1
DA:872,1
DA:873,1
DA:874,1
DA:875,1
DA:877,0
DA:879,1
DA:882,1
DA:883,1
DA:884,1
DA:885,1
DA:887,1
DA:889,1
DA:890,1
DA:891,1
DA:892,1
DA:893,1
DA:895,1
DA:896,1
DA:897,1
DA:898,1
DA:900,0
DA:902,1
DA:905,1
DA:906,1
DA:907,1
DA:908,1
DA:910,1
DA:911,1
DA:912,1
DA:913,1
DA:914,1
DA:916,0
DA:918,1
DA:921,1
DA:922,1
DA:923,1
DA:924,1
DA:926,1
DA:927,1
DA:928,1
DA:929,1
DA:931,0
DA:933,1
DA:936,1
DA:937,1
DA:938,1
DA:939,1
DA:941,1
DA:943,1
DA:944,1
DA:945,1
DA:946,1
DA:947,1
DA:949,1
DA:950,1
DA:951,1
DA:952,1
DA:954,0
DA:956,1
DA:959,1
DA:960,1
DA:961,1
DA:962,1
DA:964,1
DA:966,1
DA:967,1
DA:969,1
DA:971,1
DA:972,1
DA:974,0
DA:976,1
DA:979,1
DA:980,1
DA:982,1
DA:983,1
DA:985,1
DA:986,1
DA:987,1
DA:989,0
DA:991,1
DA:994,1
DA:995,1
DA:996,1
DA:997,1
DA:999,1
DA:1001,1
DA:1002,1
DA:1003,1
DA:1004,1
DA:1006,1
DA:1007,1
DA:1008,1
DA:1010,0
DA:1012,1
DA:1015,1
DA:1016,1
DA:1017,1
DA:1018,1
DA:1020,1
DA:1022,1
DA:1023,1
DA:1024,1
DA:1025,1
DA:1027,1
DA:1028,1
DA:1029,1
DA:1031,0
DA:1033,1
DA:1036,1
DA:1037,1
DA:1038,1
DA:1039,1
DA:1041,1
DA:1042,1
DA:1044,1
DA:1046,0
DA:1048,1
DA:1051,1
DA:1052,1
DA:1053,1
DA:1054,1
DA:1056,1
DA:1057,1
DA:1058,1
DA:1060,0
DA:1062,1
DA:1069,1
DA:1071,1
DA:1072,1
DA:1073,1
DA:1076,1
DA:1077,1
DA:1080,1
DA:1082,1
DA:1083,1
DA:1084,1
DA:1087,1
DA:1088,1
DA:1089,1
DA:1092,1
DA:1093,1
DA:1094,1
DA:1095,1
DA:1098,1
DA:1099,1
DA:1100,1
DA:1103,1
DA:1104,1
DA:1105,1
DA:1106,1
DA:1109,1
DA:1110,1
DA:1113,1
DA:1114,1
DA:1115,1
DA:1116,1
DA:1119,1
DA:1120,1
DA:1121,1
DA:1124,1
DA:1125,1
DA:1126,1
DA:1127,1
DA:1129,1
DA:1130,1
DA:1131,1
DA:1134,1
DA:1135,1
DA:1136,1
DA:1137,1
DA:1139,1
DA:1140,1
DA:1141,1
DA:1144,1
DA:1145,1
DA:1146,1
DA:1147,1
DA:1149,1
DA:1150,1
DA:1151,1
DA:1154,1
DA:1155,1
DA:1156,1
DA:1157,1
DA:1159,1
DA:1160,1
DA:1161,1
DA:1164,1
DA:1165,1
DA:1166,1
DA:1167,1
DA:1169,1
DA:1170,1
DA:1171,1
DA:1174,1
DA:1175,1
DA:1176,1
DA:1177,1
DA:1179,1
DA:1180,1
DA:1183,1
DA:1184,1
DA:1185,1
DA:1186,1
DA:1188,1
DA:1189,1
DA:1196,1
DA:1197,1
DA:1198,1
DA:1199,1
DA:1202,1
DA:1203,1
DA:1204,1
DA:1205,1
DA:1207,0
DA:1209,1
DA:1212,1
DA:1213,1
DA:1214,1
DA:1215,1
DA:1217,1
DA:1218,1
DA:1221,1
DA:1222,1
DA:1223,1
DA:1225,1
DA:1226,1
DA:1229,1
DA:1230,1
DA:1231,1
DA:1233,1
DA:1234,1
DA:1237,1
DA:1238,1
DA:1239,1
DA:1240,1
DA:1243,1
DA:1244,1
DA:1245,1
DA:1248,1
DA:1249,1
DA:1250,1
DA:1251,1
DA:1253,1
DA:1254,1
DA:1257,1
DA:1258,1
DA:1259,1
DA:1260,1
DA:1263,1
DA:1264,1
DA:1265,1
DA:1268,1
DA:1269,1
DA:1270,1
DA:1271,1
DA:1273,1
DA:1274,1
DA:1275,1
DA:1277,0
DA:1279,1
DA:1282,1
DA:1283,1
DA:1284,1
DA:1285,1
DA:1288,1
DA:1289,1
DA:1292,1
DA:1293,1
DA:1294,1
DA:1295,1
DA:1297,1
DA:1298,1
DA:1299,1
DA:1301,0
DA:1303,1
DA:1306,1
DA:1307,1
DA:1308,1
DA:1309,1
DA:1312,1
DA:1313,1
DA:1316,1
DA:1317,1
DA:1318,1
DA:1319,1
DA:1322,1
DA:1323,1
DA:1330,1
DA:1331,1
DA:1332,1
DA:1333,1
DA:1336,1
DA:1337,1
DA:1338,1
DA:1339,1
DA:1340,1
DA:1341,1
DA:1344,1
DA:1345,1
DA:1346,1
DA:1347,1
DA:1350,1
DA:1351,1
DA:1352,1
DA:1353,1
DA:1356,1
DA:1357,1
DA:1358,1
DA:1359,1
DA:1362,1
DA:1363,1
DA:1364,1
DA:1365,1
DA:1368,1
DA:1369,1
DA:1370,1
DA:1371,1
DA:1378,1
DA:1379,1
DA:1381,1
DA:1382,1
DA:1383,1
DA:1386,1
DA:1387,1
DA:1388,1
DA:1390,1
DA:1391,1
DA:1394,1
DA:1396,1
DA:1397,1
DA:1398,1
DA:1401,1
DA:1402,1
DA:1403,1
DA:1405,1
DA:1406,1
DA:1409,1
DA:1410,1
DA:1411,1
DA:1414,1
DA:1415,1
DA:1416,1
DA:1417,1
DA:1418,1
DA:1419,1
DA:1421,1
DA:1422,1
DA:1423,1
DA:1427,1
DA:1429,1
DA:1430,1
DA:1431,1
DA:1432,1
DA:1433,1
DA:1436,1
DA:1437,1
DA:1440,1
DA:1441,1
DA:1444,1
DA:1445,1
DA:1446,1
DA:1449,1
DA:1450,1
DA:1453,1
DA:1454,1
DA:1455,1
DA:1456,1
DA:1457,1
DA:1458,1
DA:1459,1
DA:1461,1
DA:1462,1
DA:1465,1
DA:1466,1
DA:1467,1
DA:1468,1
DA:1469,1
DA:1472,1
DA:1473,1
DA:1474,1
DA:1476,1
DA:1477,1
DA:1478,1
DA:1479,1
DA:1480,1
DA:1483,1
DA:1484,1
DA:1485,1
DA:1487,1
DA:1488,1
DA:1489,1
DA:1490,1
DA:1491,1
DA:1492,1
DA:1493,1
DA:1494,1
DA:1495,1
DA:1496,1
DA:1498,1
DA:1499,1
DA:1500,1
DA:1501,1
DA:1502,1
DA:1503,1
DA:1504,1
DA:1511,1
DA:1512,1
DA:1513,1
DA:1514,1
DA:1516,1
DA:1517,1
DA:1519,0
DA:1521,1
DA:1524,1
DA:1525,1
DA:1527,1
DA:1529,1
DA:1530,1
DA:1531,1
DA:1532,1
DA:1535,1
DA:1536,1
DA:1537,5
DA:1538,1
DA:1540,1
DA:1541,1
DA:1542,1
DA:1543,1
DA:1544,1
DA:1545,1
DA:1546,1
DA:1550,2
DA:1551,1
DA:1552,1
DA:1554,1
DA:1555,1
DA:1556,1
DA:1557,1
DA:1558,1
DA:1560,1
DA:1561,1
DA:1562,1
DA:1563,1
DA:1564,1
DA:1569,2
DA:1570,1
DA:1571,1
DA:1572,1
DA:1574,1
DA:1575,1
DA:1576,1
DA:1577,1
DA:1578,1
DA:1579,1
DA:1580,1
DA:1581,1
DA:1582,1
DA:1583,1
DA:1585,1
DA:1586,1
DA:1587,1
DA:1588,1
DA:1589,1
BRF:0
BRH:0
LF:845
LH:699
end_of_record
SF:/Users/dbmrq/Documents/Programação/Misc/paperboat/src/backend/cursor/mcp_config.rs
FN:26,_RNvNtNtNtCs2XshHk0aCOj_9paperboat7backend6cursor10mcp_config15mcp_server_name
FN:71,_RNvNtNtNtCs2XshHk0aCOj_9paperboat7backend6cursor10mcp_config16write_mcp_config
FN:104,_RNvNtNtNtCs2XshHk0aCOj_9paperboat7backend6cursor10mcp_config17agent_server_name
FN:78,_RNvNtNtNtCs2XshHk0aCOj_9paperboat7backend6cursor10mcp_config19current_binary_path
FN:235,_RNvNtNtNtCs2XshHk0aCOj_9paperboat7backend6cursor10mcp_config20enable_mcp_for_agent
FN:138,_RNvNtNtNtCs2XshHk0aCOj_9paperboat7backend6cursor10mcp_config20run_agent_mcp_enable
FN:31,_RNvNtNtNtCs2XshHk0aCOj_9paperboat7backend6cursor10mcp_config22cursor_mcp_config_path
FN:170,_RNvNtNtNtCs2XshHk0aCOj_9paperboat7backend6cursor10mcp_config22register_paperboat_mcp
FN:111,_RNvNtNtNtCs2XshHk0aCOj_9paperboat7backend6cursor10mcp_config24remove_paperboat_servers
FN:196,_RNvNtNtNtCs2XshHk0aCOj_9paperboat7backend6cursor10mcp_config24unregister_paperboat_mcp
FN:57,_RNvNtNtNtCs2XshHk0aCOj_9paperboat7backend6cursor10mcp_config25read_or_create_mcp_config
FN:85,_RNvNtNtNtCs2XshHk0aCOj_9paperboat7backend6cursor10mcp_config29build_paperboat_server_config
FN:117,_RNvNtNtNtCs2XshHk0aCOj_9paperboat7backend6cursor10mcp_config31configure_mcp_for_agent_at_path
FN:607,_RNCNCNvNtNtNtNtCs2XshHk0aCOj_9paperboat7backend6cursor10mcp_config5testss_69test_unregister_paperboat_mcp_removes_entries_and_preserves_unrelated00Bd_
FN:350,_RNCNvNtNtNtNtCs2XshHk0aCOj_9paperboat7backend6cursor10mcp_config5testss_50test_register_paperboat_mcp_creates_missing_config0Bb_
FN:806,_RNCNvNtNtNtNtCs2XshHk0aCOj_9paperboat7backend6cursor10mcp_config5testss_52test_enable_mcp_for_agent_with_different_agent_types0Bb_
FN:555,_RNCNvNtNtNtNtCs2XshHk0aCOj_9paperboat7backend6cursor10mcp_config5testss_60test_unregister_paperboat_mcp_when_config_missing_returns_ok0Bb_
FN:535,_RNCNvNtNtNtNtCs2XshHk0aCOj_9paperboat7backend6cursor10mcp_config5testss_62test_enable_mcp_for_agent_propagates_agent_invocation_failures0Bb_
FN:616,_RNCNvNtNtNtNtCs2XshHk0aCOj_9paperboat7backend6cursor10mcp_config5testss_66test_unregister_paperboat_mcp_no_changes_when_no_paperboat_entries0Bb_
FN:569,_RNCNvNtNtNtNtCs2XshHk0aCOj_9paperboat7backend6cursor10mcp_config5testss_69test_unregister_paperboat_mcp_removes_entries_and_preserves_unrelated0Bb_
FN:386,_RNCNvNtNtNtNtCs2XshHk0aCOj_9paperboat7backend6cursor10mcp_config5testss_71test_enable_mcp_for_agent_creates_missing_config_and_uses_unique_suffix0Bb_
FN:283,_RNvXs_NtNtNtNtCs2XshHk0aCOj_9paperboat7backend6cursor10mcp_config5testsNtB4_8EnvGuardNtNtNtCskpTlHb4dJmc_4core3ops4drop4Drop4drop
FN:275,_RNvMNtNtNtNtCs2XshHk0aCOj_9paperboat7backend6cursor10mcp_config5testsNtB2_8EnvGuard3set
FN:292,_RNvNtNtNtNtCs2XshHk0aCOj_9paperboat7backend6cursor10mcp_config5tests12prepend_path
FN:301,_RNvNtNtNtNtCs2XshHk0aCOj_9paperboat7backend6cursor10mcp_config5tests16write_agent_stub
FN:318,_RNvNtNtNtNtCs2XshHk0aCOj_9paperboat7backend6cursor10mcp_config5testss_27test_cursor_mcp_config_path
FN:324,_RNvNtNtNtNtCs2XshHk0aCOj_9paperboat7backend6cursor10mcp_config5testss_29test_mcp_config_serialization
FN:727,_RNvNtNtNtNtCs2XshHk0aCOj_9paperboat7backend6cursor10mcp_config5testss_40test_mcp_server_name_for_all_agent_types
FN:781,_RNvNtNtNtNtCs2XshHk0aCOj_9paperboat7backend6cursor10mcp_config5testss_44test_build_paperboat_server_config_structure
FN:489,_RNvNtNtNtNtCs2XshHk0aCOj_9paperboat7backend6cursor10mcp_config5testss_44test_configure_mcp_propagates_write_failures
FN:734,_RNvNtNtNtNtCs2XshHk0aCOj_9paperboat7backend6cursor10mcp_config5testss_46test_agent_server_name_with_and_without_suffix
FN:516,_RNvNtNtNtNtCs2XshHk0aCOj_9paperboat7backend6cursor10mcp_config5testss_48test_configure_mcp_propagates_bootstrap_failures
FN:846,_RNvNtNtNtNtCs2XshHk0aCOj_9paperboat7backend6cursor10mcp_config5testss_50test_configure_mcp_creates_nested_cursor_directory
FN:643,_RNvNtNtNtNtCs2XshHk0aCOj_9paperboat7backend6cursor10mcp_config5testss_50test_configure_mcp_for_agent_without_unique_suffix
FN:667,_RNvNtNtNtNtCs2XshHk0aCOj_9paperboat7backend6cursor10mcp_config5testss_50test_configure_mcp_replaces_same_server_name_entry
FN:747,_RNvNtNtNtNtCs2XshHk0aCOj_9paperboat7backend6cursor10mcp_config5testss_50test_remove_paperboat_servers_removes_all_variants
FN:712,_RNvNtNtNtNtCs2XshHk0aCOj_9paperboat7backend6cursor10mcp_config5testss_59test_read_or_create_mcp_config_invalid_json_returns_default
FN:425,_RNvNtNtNtNtCs2XshHk0aCOj_9paperboat7backend6cursor10mcp_config5testss_74test_configure_mcp_preserves_other_paperboat_entries_for_concurrent_agents
FN:74,_RNCNvNtNtNtCs2XshHk0aCOj_9paperboat7backend6cursor10mcp_config16write_mcp_config0B9_
FN:106,_RNCNvNtNtNtCs2XshHk0aCOj_9paperboat7backend6cursor10mcp_config17agent_server_name0B9_
FN:107,_RNCNvNtNtNtCs2XshHk0aCOj_9paperboat7backend6cursor10mcp_config17agent_server_names_0B9_
FN:142,_RNCNvNtNtNtCs2XshHk0aCOj_9paperboat7backend6cursor10mcp_config20run_agent_mcp_enable0B9_
FN:114,_RNCNvNtNtNtCs2XshHk0aCOj_9paperboat7backend6cursor10mcp_config24remove_paperboat_servers0B9_
FN:60,_RNCNvNtNtNtCs2XshHk0aCOj_9paperboat7backend6cursor10mcp_config25read_or_create_mcp_config0B9_
FN:65,_RNCNvNtNtNtCs2XshHk0aCOj_9paperboat7backend6cursor10mcp_config25read_or_create_mcp_configs_0B9_
FNDA:12,_RNvNtNtNtCs2XshHk0aCOj_9paperboat7backend6cursor10mcp_config15mcp_server_name
FNDA:14,_RNvNtNtNtCs2XshHk0aCOj_9paperboat7backend6cursor10mcp_config16write_mcp_config
FNDA:14,_RNvNtNtNtCs2XshHk0aCOj_9paperboat7backend6cursor10mcp_config17agent_server_name
FNDA:7,_RNvNtNtNtCs2XshHk0aCOj_9paperboat7backend6cursor10mcp_config19current_binary_path
FNDA:6,_RNvNtNtNtCs2XshHk0aCOj_9paperboat7backend6cursor10mcp_config20enable_mcp_for_agent
FNDA:6,_RNvNtNtNtCs2XshHk0aCOj_9paperboat7backend6cursor10mcp_config20run_agent_mcp_enable
FNDA:12,_RNvNtNtNtCs2XshHk0aCOj_9paperboat7backend6cursor10mcp_config22cursor_mcp_config_path
FNDA:1,_RNvNtNtNtCs2XshHk0aCOj_9paperboat7backend6cursor10mcp_config22register_paperboat_mcp
FNDA:4,_RNvNtNtNtCs2XshHk0aCOj_9paperboat7backend6cursor10mcp_config24remove_paperboat_servers
FNDA:4,_RNvNtNtNtCs2XshHk0aCOj_9paperboat7backend6cursor10mcp_config24unregister_paperboat_mcp
FNDA:17,_RNvNtNtNtCs2XshHk0aCOj_9paperboat7backend6cursor10mcp_config25read_or_create_mcp_config
FNDA:15,_RNvNtNtNtCs2XshHk0aCOj_9paperboat7backend6cursor10mcp_config29build_paperboat_server_config
FNDA:12,_RNvNtNtNtCs2XshHk0aCOj_9paperboat7backend6cursor10mcp_config31configure_mcp_for_agent_at_path
FNDA:2,_RNCNCNvNtNtNtNtCs2XshHk0aCOj_9paperboat7backend6cursor10mcp_config5testss_69test_unregister_paperboat_mcp_removes_entries_and_preserves_unrelated00Bd_
FNDA:1,_RNCNvNtNtNtNtCs2XshHk0aCOj_9paperboat7backend6cursor10mcp_config5testss_50test_register_paperboat_mcp_creates_missing_config0Bb_
FNDA:1,_RNCNvNtNtNtNtCs2XshHk0aCOj_9paperboat7backend6cursor10mcp_config5testss_52test_enable_mcp_for_agent_with_different_agent_types0Bb_
FNDA:1,_RNCNvNtNtNtNtCs2XshHk0aCOj_9paperboat7backend6cursor10mcp_config5testss_60test_unregister_paperboat_mcp_when_config_missing_returns_ok0Bb_
FNDA:1,_RNCNvNtNtNtNtCs2XshHk0aCOj_9paperboat7backend6cursor10mcp_config5testss_62test_enable_mcp_for_agent_propagates_agent_invocation_failures0Bb_
FNDA:1,_RNCNvNtNtNtNtCs2XshHk0aCOj_9paperboat7backend6cursor10mcp_config5testss_66test_unregister_paperboat_mcp_no_changes_when_no_paperboat_entries0Bb_
FNDA:1,_RNCNvNtNtNtNtCs2XshHk0aCOj_9paperboat7backend6cursor10mcp_config5testss_69test_unregister_paperboat_mcp_removes_entries_and_preserves_unrelated0Bb_
FNDA:1,_RNCNvNtNtNtNtCs2XshHk0aCOj_9paperboat7backend6cursor10mcp_config5testss_71test_enable_mcp_for_agent_creates_missing_config_and_uses_unique_suffix0Bb_
FNDA:14,_RNvXs_NtNtNtNtCs2XshHk0aCOj_9paperboat7backend6cursor10mcp_config5testsNtB4_8EnvGuardNtNtNtCskpTlHb4dJmc_4core3ops4drop4Drop4drop
FNDA:14,_RNvMNtNtNtNtCs2XshHk0aCOj_9paperboat7backend6cursor10mcp_config5testsNtB2_8EnvGuard3set
FNDA:4,_RNvNtNtNtNtCs2XshHk0aCOj_9paperboat7backend6cursor10mcp_config5tests12prepend_path
FNDA:4,_RNvNtNtNtNtCs2XshHk0aCOj_9paperboat7backend6cursor10mcp_config5tests16write_agent_stub
FNDA:1,_RNvNtNtNtNtCs2XshHk0aCOj_9paperboat7backend6cursor10mcp_config5testss_27test_cursor_mcp_config_path
FNDA:1,_RNvNtNtNtNtCs2XshHk0aCOj_9paperboat7backend6cursor10mcp_config5testss_29test_mcp_config_serialization
FNDA:1,_RNvNtNtNtNtCs2XshHk0aCOj_9paperboat7backend6cursor10mcp_config5testss_40test_mcp_server_name_for_all_agent_types
FNDA:1,_RNvNtNtNtNtCs2XshHk0aCOj_9paperboat7backend6cursor10mcp_config5testss_44test_build_paperboat_server_config_structure
FNDA:1,_RNvNtNtNtNtCs2XshHk0aCOj_9paperboat7backend6cursor10mcp_config5testss_44test_configure_mcp_propagates_write_failures
FNDA:1,_RNvNtNtNtNtCs2XshHk0aCOj_9paperboat7backend6cursor10mcp_config5testss_46test_agent_server_name_with_and_without_suffix
FNDA:1,_RNvNtNtNtNtCs2XshHk0aCOj_9paperboat7backend6cursor10mcp_config5testss_48test_configure_mcp_propagates_bootstrap_failures
FNDA:1,_RNvNtNtNtNtCs2XshHk0aCOj_9paperboat7backend6cursor10mcp_config5testss_50test_configure_mcp_creates_nested_cursor_directory
FNDA:1,_RNvNtNtNtNtCs2XshHk0aCOj_9paperboat7backend6cursor10mcp_config5testss_50test_configure_mcp_for_agent_without_unique_suffix
FNDA:1,_RNvNtNtNtNtCs2XshHk0aCOj_9paperboat7backend6cursor10mcp_config5testss_50test_configure_mcp_replaces_same_server_name_entry
FNDA:1,_RNvNtNtNtNtCs2XshHk0aCOj_9paperboat7backend6cursor10mcp_config5testss_50test_remove_paperboat_servers_removes_all_variants
FNDA:1,_RNvNtNtNtNtCs2XshHk0aCOj_9paperboat7backend6cursor10mcp_config5testss_59test_read_or_create_mcp_config_invalid_json_returns_default
FNDA:1,_RNvNtNtNtNtCs2XshHk0aCOj_9paperboat7backend6cursor10mcp_config5testss_74test_configure_mcp_preserves_other_paperboat_entries_for_concurrent_agents
FNDA:1,_RNCNvNtNtNtCs2XshHk0aCOj_9paperboat7backend6cursor10mcp_config16write_mcp_config0B9_
FNDA:3,_RNCNvNtNtNtCs2XshHk0aCOj_9paperboat7backend6cursor10mcp_config17agent_server_name0B9_
FNDA:11,_RNCNvNtNtNtCs2XshHk0aCOj_9paperboat7backend6cursor10mcp_config17agent_server_names_0B9_
FNDA:2,_RNCNvNtNtNtCs2XshHk0aCOj_9paperboat7backend6cursor10mcp_config20run_agent_mcp_enable0B9_
FNDA:11,_RNCNvNtNtNtCs2XshHk0aCOj_9paperboat7backend6cursor10mcp_config24remove_paperboat_servers0B9_
FNDA:0,_RNCNvNtNtNtCs2XshHk0aCOj_9paperboat7backend6cursor10mcp_config25read_or_create_mcp_config0B9_
FNDA:1,_RNCNvNtNtNtCs2XshHk0aCOj_9paperboat7backend6cursor10mcp_config25read_or_create_mcp_configs_0B9_
FNF:45
FNH:44
DA:26,12
DA:27,12
DA:28,12
DA:31,12
DA:32,12
DA:33,12
DA:34,12
DA:57,17
DA:58,17
DA:59,8
DA:60,8
DA:61,8
DA:63,9
DA:64,9
DA:65,9
DA:66,0
DA:67,8
DA:69,17
DA:71,14
DA:72,14
DA:73,14
DA:74,14
DA:75,13
DA:76,14
DA:78,7
DA:79,7
DA:80,7
DA:81,7
DA:82,7
DA:83,7
DA:85,15
DA:86,15
DA:87,15
DA:88,15
DA:89,15
DA:90,15
DA:91,15
DA:93,15
DA:94,15
DA:95,15
DA:96,15
DA:97,15
DA:98,15
DA:99,15
DA:100,15
DA:101,15
DA:102,15
DA:104,14
DA:105,14
DA:106,3
DA:107,11
DA:109,14
DA:111,4
DA:112,4
DA:113,4
DA:114,11
DA:115,4
DA:117,12
DA:118,12
DA:119,12
DA:120,12
DA:121,12
DA:122,12
DA:123,12
DA:124,12
DA:126,11
DA:127,11
DA:132,11
DA:134,11
DA:135,10
DA:136,12
DA:138,6
DA:139,6
DA:140,6
DA:141,6
DA:142,6
DA:144,4
DA:145,0
DA:146,0
DA:147,4
DA:149,4
DA:150,6
DA:170,1
DA:171,1
DA:172,1
DA:173,1
DA:176,3
DA:177,3
DA:178,3
DA:179,3
DA:180,3
DA:181,3
DA:183,1
DA:185,1
DA:187,0
DA:190,1
DA:191,1
DA:196,4
DA:197,4
DA:199,4
DA:200,1
DA:201,3
DA:203,3
DA:204,3
DA:205,3
DA:206,3
DA:208,3
DA:209,2
DA:211,2
DA:213,0
DA:215,1
DA:217,3
DA:218,4
DA:235,6
DA:236,6
DA:237,6
DA:238,6
DA:239,6
DA:240,6
DA:241,6
DA:242,6
DA:243,6
DA:244,6
DA:245,6
DA:246,6
DA:247,6
DA:248,0
DA:249,6
DA:251,4
DA:256,4
DA:257,6
DA:275,14
DA:276,14
DA:277,14
DA:278,14
DA:279,14
DA:283,14
DA:284,14
DA:285,14
DA:286,0
DA:288,14
DA:292,4
DA:293,4
DA:294,4
DA:295,4
DA:296,4
DA:297,4
DA:298,4
DA:301,4
DA:302,4
DA:303,4
DA:304,4
DA:305,4
DA:307,4
DA:310,4
DA:312,4
DA:313,4
DA:314,4
DA:315,4
DA:318,1
DA:319,1
DA:320,1
DA:321,1
DA:324,1
DA:325,1
DA:327,1
DA:328,1
DA:330,1
DA:331,1
DA:332,1
DA:333,1
DA:334,1
DA:335,1
DA:336,1
DA:339,1
DA:340,1
DA:341,1
DA:344,1
DA:345,1
DA:346,1
DA:350,1
DA:351,1
DA:352,1
DA:354,1
DA:356,1
DA:357,1
DA:359,1
DA:360,1
DA:362,1
DA:363,3
DA:364,3
DA:365,3
DA:366,3
DA:367,3
DA:368,3
DA:369,3
DA:370,3
DA:372,3
DA:374,3
DA:375,3
DA:376,3
DA:377,3
DA:386,1
DA:387,1
DA:388,1
DA:389,1
DA:390,1
DA:391,1
DA:393,1
DA:395,1
DA:396,1
DA:398,1
DA:399,1
DA:400,1
DA:402,1
DA:403,1
DA:404,1
DA:405,1
DA:407,1
DA:408,1
DA:409,1
DA:410,1
DA:413,1
DA:414,1
DA:415,1
DA:418,1
DA:419,1
DA:425,1
DA:426,1
DA:427,1
DA:428,1
DA:430,1
DA:431,1
DA:432,1
DA:433,1
DA:434,1
DA:435,1
DA:436,1
DA:438,1
DA:439,1
DA:440,1
DA:441,1
DA:442,1
DA:447,1
DA:449,1
DA:451,1
DA:452,1
DA:453,1
DA:454,1
DA:455,1
DA:456,1
DA:458,1
DA:460,1
DA:462,1
DA:463,1
DA:465,1
DA:466,1
DA:467,1
DA:470,1
DA:472,1
DA:473,1
DA:474,1
DA:476,1
DA:477,1
DA:478,1
DA:479,1
DA:482,1
DA:483,1
DA:484,1
DA:486,1
DA:489,1
DA:490,1
DA:491,1
DA:492,1
DA:493,1
DA:494,1
DA:495,1
DA:496,1
DA:497,1
DA:499,1
DA:500,1
DA:501,1
DA:502,1
DA:503,1
DA:504,1
DA:507,1
DA:508,1
DA:509,1
DA:511,1
DA:512,1
DA:513,1
DA:516,1
DA:517,1
DA:518,1
DA:519,1
DA:521,1
DA:522,1
DA:523,1
DA:524,1
DA:525,1
DA:526,1
DA:529,1
DA:530,1
DA:531,1
DA:535,1
DA:536,1
DA:537,1
DA:538,1
DA:540,1
DA:542,1
DA:543,1
DA:544,1
DA:545,1
DA:546,1
DA:555,1
DA:556,1
DA:557,1
DA:560,1
DA:562,1
DA:564,1
DA:569,1
DA:570,1
DA:571,1
DA:572,1
DA:573,1
DA:575,1
DA:576,1
DA:577,1
DA:578,1
DA:579,1
DA:580,1
DA:581,1
DA:583,1
DA:584,1
DA:585,1
DA:587,1
DA:588,1
DA:589,1
DA:591,1
DA:592,1
DA:593,1
DA:597,1
DA:599,1
DA:601,1
DA:603,1
DA:604,1
DA:607,2
DA:609,1
DA:610,1
DA:611,1
DA:616,1
DA:617,1
DA:618,1
DA:619,1
DA:620,1
DA:622,1
DA:623,1
DA:624,1
DA:625,1
DA:626,1
DA:630,1
DA:631,1
DA:633,1
DA:635,1
DA:637,1
DA:638,1
DA:639,1
DA:643,1
DA:644,1
DA:645,1
DA:646,1
DA:647,1
DA:649,1
DA:650,1
DA:651,1
DA:652,1
DA:653,1
DA:654,1
DA:656,1
DA:659,1
DA:661,1
DA:662,1
DA:663,1
DA:664,1
DA:667,1
DA:668,1
DA:669,1
DA:670,1
DA:673,1
DA:674,1
DA:675,1
DA:676,1
DA:677,1
DA:678,1
DA:679,1
DA:683,1
DA:685,1
DA:687,1
DA:688,1
DA:689,1
DA:690,1
DA:691,1
DA:692,1
DA:694,1
DA:696,1
DA:698,1
DA:699,1
DA:702,1
DA:703,1
DA:704,1
DA:705,1
DA:707,1
DA:709,1
DA:712,1
DA:713,1
DA:714,1
DA:715,1
DA:718,1
DA:720,1
DA:723,1
DA:724,1
DA:727,1
DA:728,1
DA:729,1
DA:730,1
DA:731,1
DA:734,1
DA:735,1
DA:736,1
DA:737,1
DA:740,1
DA:741,1
DA:744,1
DA:747,1
DA:748,1
DA:749,1
DA:750,1
DA:751,1
DA:752,1
DA:753,1
DA:754,1
DA:755,1
DA:757,1
DA:758,1
DA:759,1
DA:760,1
DA:761,1
DA:762,1
DA:763,1
DA:765,1
DA:766,1
DA:767,1
DA:768,1
DA:769,1
DA:770,1
DA:771,1
DA:774,1
DA:776,1
DA:777,1
DA:778,1
DA:781,1
DA:782,1
DA:783,1
DA:784,1
DA:785,1
DA:788,1
DA:789,1
DA:791,1
DA:792,1
DA:793,1
DA:794,1
DA:797,1
DA:798,1
DA:799,1
DA:801,1
DA:806,1
DA:807,3
DA:808,3
DA:809,3
DA:810,3
DA:811,3
DA:812,3
DA:814,3
DA:815,3
DA:817,3
DA:818,3
DA:819,3
DA:821,3
DA:822,3
DA:823,3
DA:829,3
DA:830,3
DA:831,3
DA:832,3
DA:836,3
DA:837,3
DA:838,3
DA:846,1
DA:847,1
DA:849,1
DA:851,1
DA:852,1
DA:853,1
DA:854,1
DA:855,1
DA:856,1
DA:858,1
DA:860,1
DA:861,1
DA:862,1
DA:863,1
BRF:0
BRH:0
LF:517
LH:509
end_of_record
SF:/Users/dbmrq/Documents/Programação/Misc/paperboat/src/backend/cursor/mod.rs
FN:442,_RINvNvNtNtNtCs2XshHk0aCOj_9paperboat7backend6cursor5testss_32test_cursor_backend_is_send_sync16assert_send_syncNtB6_13CursorBackendEBa_
FN:700,_RNCNCNvNtNtNtCs2XshHk0aCOj_9paperboat7backend6cursor5testss_40test_resolve_tier_returns_fallback_chain00Bb_
FN:705,_RNCNCNvNtNtNtCs2XshHk0aCOj_9paperboat7backend6cursor5testss_40test_resolve_tier_returns_fallback_chain0s_0Bb_
FN:534,_RNCNCNvNtNtNtCs2XshHk0aCOj_9paperboat7backend6cursor5testss_41test_setup_mcp_is_noop_for_cursor_backend00Bb_
FN:579,_RNCNCNvNtNtNtCs2XshHk0aCOj_9paperboat7backend6cursor5testss_74test_cleanup_mcp_removes_paperboat_servers_and_preserves_unrelated_entries00Bb_
FN:642,_RNCNvNtNtNtCs2XshHk0aCOj_9paperboat7backend6cursor5testss_37test_create_transport_acp_for_planner0B9_
FN:605,_RNCNvNtNtNtCs2XshHk0aCOj_9paperboat7backend6cursor5testss_37test_create_transport_cli_for_planner0B9_
FN:709,_RNCNvNtNtNtCs2XshHk0aCOj_9paperboat7backend6cursor5testss_37test_resolve_tier_haiku_returns_error0B9_
FN:690,_RNCNvNtNtNtCs2XshHk0aCOj_9paperboat7backend6cursor5testss_40test_resolve_tier_returns_fallback_chain0B9_
FN:534,_RNCNvNtNtNtCs2XshHk0aCOj_9paperboat7backend6cursor5testss_41test_setup_mcp_is_noop_for_cursor_backend0B9_
FN:623,_RNCNvNtNtNtCs2XshHk0aCOj_9paperboat7backend6cursor5testss_42test_create_transport_acp_for_orchestrator0B9_
FN:587,_RNCNvNtNtNtCs2XshHk0aCOj_9paperboat7backend6cursor5testss_42test_create_transport_cli_for_orchestrator0B9_
FN:478,_RNCNvNtNtNtCs2XshHk0aCOj_9paperboat7backend6cursor5testss_47test_create_transport_cli_returns_cli_transport0B9_
FN:661,_RNCNvNtNtNtCs2XshHk0aCOj_9paperboat7backend6cursor5testss_59test_create_transport_cli_session_creates_unique_session_id0B9_
FN:508,_RNCNvNtNtNtCs2XshHk0aCOj_9paperboat7backend6cursor5testss_61test_create_transport_acp_returns_uninitialized_acp_transport0B9_
FN:546,_RNCNvNtNtNtCs2XshHk0aCOj_9paperboat7backend6cursor5testss_74test_cleanup_mcp_removes_paperboat_servers_and_preserves_unrelated_entries0B9_
FN:404,_RNvMNtNtNtCs2XshHk0aCOj_9paperboat7backend6cursor5testsNtB2_8EnvGuard3set
FN:421,_RNvNtNtNtCs2XshHk0aCOj_9paperboat7backend6cursor5testss_24test_cursor_backend_name
FN:452,_RNvNtNtNtCs2XshHk0aCOj_9paperboat7backend6cursor5testss_25test_supported_transports
FN:447,_RNvNtNtNtCs2XshHk0aCOj_9paperboat7backend6cursor5testss_27test_cursor_backend_default
FN:427,_RNvNtNtNtCs2XshHk0aCOj_9paperboat7backend6cursor5testss_30test_cursor_backend_login_hint
FN:441,_RNvNtNtNtCs2XshHk0aCOj_9paperboat7backend6cursor5testss_32test_cursor_backend_is_send_sync
FN:642,_RNvNtNtNtCs2XshHk0aCOj_9paperboat7backend6cursor5testss_37test_create_transport_acp_for_planner
FN:605,_RNvNtNtNtCs2XshHk0aCOj_9paperboat7backend6cursor5testss_37test_create_transport_cli_for_planner
FN:709,_RNvNtNtNtCs2XshHk0aCOj_9paperboat7backend6cursor5testss_37test_resolve_tier_haiku_returns_error
FN:433,_RNvNtNtNtCs2XshHk0aCOj_9paperboat7backend6cursor5testss_38test_cursor_backend_auth_error_message
FN:462,_RNvNtNtNtCs2XshHk0aCOj_9paperboat7backend6cursor5testss_39test_supported_transports_includes_both
FN:690,_RNvNtNtNtCs2XshHk0aCOj_9paperboat7backend6cursor5testss_40test_resolve_tier_returns_fallback_chain
FN:623,_RNvNtNtNtCs2XshHk0aCOj_9paperboat7backend6cursor5testss_42test_create_transport_acp_for_orchestrator
FN:587,_RNvNtNtNtCs2XshHk0aCOj_9paperboat7backend6cursor5testss_42test_create_transport_cli_for_orchestrator
FN:478,_RNvNtNtNtCs2XshHk0aCOj_9paperboat7backend6cursor5testss_47test_create_transport_cli_returns_cli_transport
FN:661,_RNvNtNtNtCs2XshHk0aCOj_9paperboat7backend6cursor5testss_59test_create_transport_cli_session_creates_unique_session_id
FN:508,_RNvNtNtNtCs2XshHk0aCOj_9paperboat7backend6cursor5testss_61test_create_transport_acp_returns_uninitialized_acp_transport
FN:121,_RNCNvXs0_NtNtCs2XshHk0aCOj_9paperboat7backend6cursorNtB7_13CursorBackendNtNtB9_5trait7Backend12resolve_tier0Bb_
FN:139,_RNCNvXs0_NtNtCs2XshHk0aCOj_9paperboat7backend6cursorNtB7_13CursorBackendNtNtB9_5trait7Backend12resolve_tiers_0Bb_
FN:76,_RNvMNtNtCs2XshHk0aCOj_9paperboat7backend6cursorNtB2_13CursorBackend3new
FN:93,_RNvXs0_NtNtCs2XshHk0aCOj_9paperboat7backend6cursorNtB5_13CursorBackendNtNtB7_5trait7Backend10check_auth
FN:270,_RNvXs0_NtNtCs2XshHk0aCOj_9paperboat7backend6cursorNtB5_13CursorBackendNtNtB7_5trait7Backend10login_hint
FN:238,_RNvXs0_NtNtCs2XshHk0aCOj_9paperboat7backend6cursorNtB5_13CursorBackendNtNtB7_5trait7Backend11cleanup_mcp
FN:105,_RNvXs0_NtNtCs2XshHk0aCOj_9paperboat7backend6cursorNtB5_13CursorBackendNtNtB7_5trait7Backend12resolve_tier
FN:247,_RNvXs0_NtNtCs2XshHk0aCOj_9paperboat7backend6cursorNtB5_13CursorBackendNtNtB7_5trait7Backend13create_client
FN:101,_RNvXs0_NtNtCs2XshHk0aCOj_9paperboat7backend6cursorNtB5_13CursorBackendNtNtB7_5trait7Backend15available_tiers
FN:327,_RNvXs0_NtNtCs2XshHk0aCOj_9paperboat7backend6cursorNtB5_13CursorBackendNtNtB7_5trait7Backend16create_transport
FN:262,_RNvXs0_NtNtCs2XshHk0aCOj_9paperboat7backend6cursorNtB5_13CursorBackendNtNtB7_5trait7Backend17setup_agent_cache
FN:274,_RNvXs0_NtNtCs2XshHk0aCOj_9paperboat7backend6cursorNtB5_13CursorBackendNtNtB7_5trait7Backend18auth_error_message
FN:292,_RNvXs0_NtNtCs2XshHk0aCOj_9paperboat7backend6cursorNtB5_13CursorBackendNtNtB7_5trait7Backend20supported_transports
FN:89,_RNvXs0_NtNtCs2XshHk0aCOj_9paperboat7backend6cursorNtB5_13CursorBackendNtNtB7_5trait7Backend4name
FN:226,_RNvXs0_NtNtCs2XshHk0aCOj_9paperboat7backend6cursorNtB5_13CursorBackendNtNtB7_5trait7Backend9setup_mcp
FN:82,_RNvXs_NtNtCs2XshHk0aCOj_9paperboat7backend6cursorNtB4_13CursorBackendNtNtCskpTlHb4dJmc_4core7default7Default7default
FN:412,_RNvXs_NtNtNtCs2XshHk0aCOj_9paperboat7backend6cursor5testsNtB4_8EnvGuardNtNtNtCskpTlHb4dJmc_4core3ops4drop4Drop4drop
FNDA:1,_RINvNvNtNtNtCs2XshHk0aCOj_9paperboat7backend6cursor5testss_32test_cursor_backend_is_send_sync16assert_send_syncNtB6_13CursorBackendEBa_
FNDA:1,_RNCNCNvNtNtNtCs2XshHk0aCOj_9paperboat7backend6cursor5testss_40test_resolve_tier_returns_fallback_chain00Bb_
FNDA:1,_RNCNCNvNtNtNtCs2XshHk0aCOj_9paperboat7backend6cursor5testss_40test_resolve_tier_returns_fallback_chain0s_0Bb_
FNDA:1,_RNCNCNvNtNtNtCs2XshHk0aCOj_9paperboat7backend6cursor5testss_41test_setup_mcp_is_noop_for_cursor_backend00Bb_
FNDA:1,_RNCNCNvNtNtNtCs2XshHk0aCOj_9paperboat7backend6cursor5testss_74test_cleanup_mcp_removes_paperboat_servers_and_preserves_unrelated_entries00Bb_
FNDA:1,_RNCNvNtNtNtCs2XshHk0aCOj_9paperboat7backend6cursor5testss_37test_create_transport_acp_for_planner0B9_
FNDA:1,_RNCNvNtNtNtCs2XshHk0aCOj_9paperboat7backend6cursor5testss_37test_create_transport_cli_for_planner0B9_
FNDA:1,_RNCNvNtNtNtCs2XshHk0aCOj_9paperboat7backend6cursor5testss_37test_resolve_tier_haiku_returns_error0B9_
FNDA:1,_RNCNvNtNtNtCs2XshHk0aCOj_9paperboat7backend6cursor5testss_40test_resolve_tier_returns_fallback_chain0B9_
FNDA:1,_RNCNvNtNtNtCs2XshHk0aCOj_9paperboat7backend6cursor5testss_41test_setup_mcp_is_noop_for_cursor_backend0B9_
FNDA:1,_RNCNvNtNtNtCs2XshHk0aCOj_9paperboat7backend6cursor5testss_42test_create_transport_acp_for_orchestrator0B9_
FNDA:1,_RNCNvNtNtNtCs2XshHk0aCOj_9paperboat7backend6cursor5testss_42test_create_transport_cli_for_orchestrator0B9_
FNDA:1,_RNCNvNtNtNtCs2XshHk0aCOj_9paperboat7backend6cursor5testss_47test_create_transport_cli_returns_cli_transport0B9_
FNDA:1,_RNCNvNtNtNtCs2XshHk0aCOj_9paperboat7backend6cursor5testss_59test_create_transport_cli_session_creates_unique_session_id0B9_
FNDA:1,_RNCNvNtNtNtCs2XshHk0aCOj_9paperboat7backend6cursor5testss_61test_create_transport_acp_returns_uninitialized_acp_transport0B9_
FNDA:1,_RNCNvNtNtNtCs2XshHk0aCOj_9paperboat7backend6cursor5testss_74test_cleanup_mcp_removes_paperboat_servers_and_preserves_unrelated_entries0B9_
FNDA:2,_RNvMNtNtNtCs2XshHk0aCOj_9paperboat7backend6cursor5testsNtB2_8EnvGuard3set
FNDA:1,_RNvNtNtNtCs2XshHk0aCOj_9paperboat7backend6cursor5testss_24test_cursor_backend_name
FNDA:1,_RNvNtNtNtCs2XshHk0aCOj_9paperboat7backend6cursor5testss_25test_supported_transports
FNDA:1,_RNvNtNtNtCs2XshHk0aCOj_9paperboat7backend6cursor5testss_27test_cursor_backend_default
FNDA:1,_RNvNtNtNtCs2XshHk0aCOj_9paperboat7backend6cursor5testss_30test_cursor_backend_login_hint
FNDA:1,_RNvNtNtNtCs2XshHk0aCOj_9paperboat7backend6cursor5testss_32test_cursor_backend_is_send_sync
FNDA:1,_RNvNtNtNtCs2XshHk0aCOj_9paperboat7backend6cursor5testss_37test_create_transport_acp_for_planner
FNDA:1,_RNvNtNtNtCs2XshHk0aCOj_9paperboat7backend6cursor5testss_37test_create_transport_cli_for_planner
FNDA:1,_RNvNtNtNtCs2XshHk0aCOj_9paperboat7backend6cursor5testss_37test_resolve_tier_haiku_returns_error
FNDA:1,_RNvNtNtNtCs2XshHk0aCOj_9paperboat7backend6cursor5testss_38test_cursor_backend_auth_error_message
FNDA:1,_RNvNtNtNtCs2XshHk0aCOj_9paperboat7backend6cursor5testss_39test_supported_transports_includes_both
FNDA:1,_RNvNtNtNtCs2XshHk0aCOj_9paperboat7backend6cursor5testss_40test_resolve_tier_returns_fallback_chain
FNDA:1,_RNvNtNtNtCs2XshHk0aCOj_9paperboat7backend6cursor5testss_42test_create_transport_acp_for_orchestrator
FNDA:1,_RNvNtNtNtCs2XshHk0aCOj_9paperboat7backend6cursor5testss_42test_create_transport_cli_for_orchestrator
FNDA:1,_RNvNtNtNtCs2XshHk0aCOj_9paperboat7backend6cursor5testss_47test_create_transport_cli_returns_cli_transport
FNDA:1,_RNvNtNtNtCs2XshHk0aCOj_9paperboat7backend6cursor5testss_59test_create_transport_cli_session_creates_unique_session_id
FNDA:1,_RNvNtNtNtCs2XshHk0aCOj_9paperboat7backend6cursor5testss_61test_create_transport_acp_returns_uninitialized_acp_transport
FNDA:2,_RNCNvXs0_NtNtCs2XshHk0aCOj_9paperboat7backend6cursorNtB7_13CursorBackendNtNtB9_5trait7Backend12resolve_tier0Bb_
FNDA:0,_RNCNvXs0_NtNtCs2XshHk0aCOj_9paperboat7backend6cursorNtB7_13CursorBackendNtNtB9_5trait7Backend12resolve_tiers_0Bb_
FNDA:22,_RNvMNtNtCs2XshHk0aCOj_9paperboat7backend6cursorNtB2_13CursorBackend3new
FNDA:0,_RNvXs0_NtNtCs2XshHk0aCOj_9paperboat7backend6cursorNtB5_13CursorBackendNtNtB7_5trait7Backend10check_auth
FNDA:4,_RNvXs0_NtNtCs2XshHk0aCOj_9paperboat7backend6cursorNtB5_13CursorBackendNtNtB7_5trait7Backend10login_hint
FNDA:1,_RNvXs0_NtNtCs2XshHk0aCOj_9paperboat7backend6cursorNtB5_13CursorBackendNtNtB7_5trait7Backend11cleanup_mcp
FNDA:4,_RNvXs0_NtNtCs2XshHk0aCOj_9paperboat7backend6cursorNtB5_13CursorBackendNtNtB7_5trait7Backend12resolve_tier
FNDA:0,_RNvXs0_NtNtCs2XshHk0aCOj_9paperboat7backend6cursorNtB5_13CursorBackendNtNtB7_5trait7Backend13create_client
FNDA:0,_RNvXs0_NtNtCs2XshHk0aCOj_9paperboat7backend6cursorNtB5_13CursorBackendNtNtB7_5trait7Backend15available_tiers
FNDA:8,_RNvXs0_NtNtCs2XshHk0aCOj_9paperboat7backend6cursorNtB5_13CursorBackendNtNtB7_5trait7Backend16create_transport
FNDA:0,_RNvXs0_NtNtCs2XshHk0aCOj_9paperboat7backend6cursorNtB5_13CursorBackendNtNtB7_5trait7Backend17setup_agent_cache
FNDA:2,_RNvXs0_NtNtCs2XshHk0aCOj_9paperboat7backend6cursorNtB5_13CursorBackendNtNtB7_5trait7Backend18auth_error_message
FNDA:10,_RNvXs0_NtNtCs2XshHk0aCOj_9paperboat7backend6cursorNtB5_13CursorBackendNtNtB7_5trait7Backend20supported_transports
FNDA:3,_RNvXs0_NtNtCs2XshHk0aCOj_9paperboat7backend6cursorNtB5_13CursorBackendNtNtB7_5trait7Backend4name
FNDA:1,_RNvXs0_NtNtCs2XshHk0aCOj_9paperboat7backend6cursorNtB5_13CursorBackendNtNtB7_5trait7Backend9setup_mcp
FNDA:1,_RNvXs_NtNtCs2XshHk0aCOj_9paperboat7backend6cursorNtB4_13CursorBackendNtNtCskpTlHb4dJmc_4core7default7Default7default
FNDA:2,_RNvXs_NtNtNtCs2XshHk0aCOj_9paperboat7backend6cursor5testsNtB4_8EnvGuardNtNtNtCskpTlHb4dJmc_4core3ops4drop4Drop4drop
FNF:49
FNH:44
DA:76,22
DA:77,22
DA:78,22
DA:82,1
DA:83,1
DA:84,1
DA:89,3
DA:90,3
DA:91,3
DA:93,0
DA:94,0
DA:95,0
DA:101,0
DA:103,0
DA:105,4
DA:106,4
DA:107,4
DA:108,4
DA:109,4
DA:118,4
DA:121,4
DA:122,2
DA:123,4
DA:124,4
DA:125,0
DA:126,0
DA:127,0
DA:128,0
DA:129,4
DA:130,4
DA:131,4
DA:132,4
DA:135,2
DA:136,2
DA:139,4
DA:140,0
DA:141,0
DA:142,0
DA:143,0
DA:144,0
DA:145,0
DA:146,0
DA:147,0
DA:148,0
DA:149,0
DA:150,0
DA:151,0
DA:152,0
DA:153,0
DA:154,0
DA:155,0
DA:156,0
DA:157,0
DA:158,0
DA:159,0
DA:160,0
DA:161,0
DA:162,0
DA:163,0
DA:164,0
DA:167,0
DA:168,0
DA:170,4
DA:171,1
DA:174,1
DA:177,1
DA:180,0
DA:185,0
DA:187,0
DA:188,0
DA:189,0
DA:190,0
DA:191,0
DA:192,0
DA:196,0
DA:197,0
DA:198,0
DA:199,0
DA:200,0
DA:203,0
DA:206,0
DA:207,0
DA:208,0
DA:209,0
DA:211,0
DA:213,0
DA:216,0
DA:219,1
DA:220,1
DA:221,1
DA:222,1
DA:224,4
DA:226,1
DA:236,1
DA:238,1
DA:239,1
DA:240,1
DA:247,0
DA:260,0
DA:262,0
DA:263,0
DA:264,0
DA:265,0
DA:266,0
DA:267,0
DA:268,0
DA:270,4
DA:271,4
DA:272,4
DA:274,2
DA:275,2
DA:276,2
DA:277,2
DA:278,2
DA:279,2
DA:292,10
DA:293,10
DA:294,10
DA:327,8
DA:387,8
DA:404,2
DA:405,2
DA:406,2
DA:407,2
DA:408,2
DA:412,2
DA:413,2
DA:414,2
DA:415,0
DA:417,2
DA:421,1
DA:422,1
DA:423,1
DA:424,1
DA:427,1
DA:428,1
DA:429,1
DA:430,1
DA:433,1
DA:434,1
DA:435,1
DA:436,1
DA:437,1
DA:438,1
DA:441,1
DA:442,1
DA:443,1
DA:444,1
DA:447,1
DA:448,1
DA:449,1
DA:452,1
DA:453,1
DA:454,1
DA:456,1
DA:457,1
DA:458,1
DA:459,1
DA:462,1
DA:463,1
DA:464,1
DA:467,1
DA:468,1
DA:471,1
DA:472,1
DA:475,1
DA:478,1
DA:479,1
DA:480,1
DA:481,1
DA:482,1
DA:483,1
DA:484,1
DA:487,1
DA:488,1
DA:489,1
DA:490,1
DA:492,1
DA:494,1
DA:495,1
DA:496,1
DA:497,1
DA:498,1
DA:499,1
DA:500,1
DA:501,1
DA:502,1
DA:504,1
DA:505,1
DA:508,1
DA:509,1
DA:510,1
DA:511,1
DA:512,1
DA:513,1
DA:514,1
DA:515,1
DA:518,1
DA:519,1
DA:520,1
DA:521,1
DA:523,1
DA:525,1
DA:526,1
DA:527,1
DA:528,1
DA:529,1
DA:530,1
DA:534,2
DA:535,1
DA:536,1
DA:537,1
DA:539,1
DA:541,1
DA:546,1
DA:547,1
DA:548,1
DA:549,1
DA:550,1
DA:551,1
DA:552,1
DA:553,1
DA:554,1
DA:555,1
DA:556,1
DA:557,1
DA:559,1
DA:560,1
DA:561,1
DA:563,1
DA:564,1
DA:565,1
DA:569,1
DA:571,1
DA:573,1
DA:575,1
DA:576,1
DA:577,1
DA:578,1
DA:579,1
DA:587,1
DA:588,1
DA:589,1
DA:590,1
DA:591,1
DA:592,1
DA:593,1
DA:596,1
DA:597,1
DA:598,1
DA:599,1
DA:601,1
DA:602,1
DA:605,1
DA:606,1
DA:607,1
DA:608,1
DA:609,1
DA:610,1
DA:611,1
DA:614,1
DA:615,1
DA:616,1
DA:617,1
DA:619,1
DA:620,1
DA:623,1
DA:624,1
DA:625,1
DA:626,1
DA:627,1
DA:628,1
DA:629,1
DA:630,1
DA:633,1
DA:634,1
DA:635,1
DA:636,1
DA:638,1
DA:639,1
DA:642,1
DA:643,1
DA:644,1
DA:645,1
DA:646,1
DA:647,1
DA:648,1
DA:649,1
DA:652,1
DA:653,1
DA:654,1
DA:655,1
DA:657,1
DA:658,1
DA:661,1
DA:662,1
DA:663,1
DA:664,1
DA:666,1
DA:667,1
DA:668,1
DA:669,1
DA:671,1
DA:672,1
DA:673,1
DA:674,1
DA:677,1
DA:678,1
DA:679,1
DA:680,1
DA:681,1
DA:682,1
DA:683,1
DA:684,1
DA:686,1
DA:687,1
DA:690,1
DA:691,1
DA:694,1
DA:695,1
DA:698,1
DA:699,1
DA:700,1
DA:703,1
DA:704,1
DA:705,1
DA:706,1
DA:709,1
DA:710,1
DA:712,1
DA:713,1
DA:714,1
DA:715,1
BRF:0
BRH:0
LF:356
LH:288
end_of_record
SF:/Users/dbmrq/Documents/Programação/Misc/paperboat/src/backend/cursor/models.rs
FN:26,_RNCNCNvNtNtNtCs2XshHk0aCOj_9paperboat7backend6cursor6models21discover_cursor_tiers00Bb_
FN:74,_RNCNvNtNtNtCs2XshHk0aCOj_9paperboat7backend6cursor6models18parse_cursor_tiers0B9_
FN:21,_RNCNvNtNtNtCs2XshHk0aCOj_9paperboat7backend6cursor6models21discover_cursor_tiers0B9_
FN:155,_RNvNtNtNtNtCs2XshHk0aCOj_9paperboat7backend6cursor6models5testss_29test_parse_cursor_tiers_basic
FN:218,_RNvNtNtNtNtCs2XshHk0aCOj_9paperboat7backend6cursor6models5testss_32test_extract_tier_from_cursor_id
FN:171,_RNvNtNtNtNtCs2XshHk0aCOj_9paperboat7backend6cursor6models5testss_33test_parse_cursor_tiers_all_types
FN:199,_RNvNtNtNtNtCs2XshHk0aCOj_9paperboat7backend6cursor6models5testss_40test_parse_cursor_tiers_openai_meta_tier
FN:61,_RNvNtNtNtCs2XshHk0aCOj_9paperboat7backend6cursor6models18parse_cursor_tiers
FN:21,_RNvNtNtNtCs2XshHk0aCOj_9paperboat7backend6cursor6models21discover_cursor_tiers
FN:104,_RNvNtNtNtCs2XshHk0aCOj_9paperboat7backend6cursor6models27extract_tier_from_cursor_id
FNDA:0,_RNCNCNvNtNtNtCs2XshHk0aCOj_9paperboat7backend6cursor6models21discover_cursor_tiers00Bb_
FNDA:14,_RNCNvNtNtNtCs2XshHk0aCOj_9paperboat7backend6cursor6models18parse_cursor_tiers0B9_
FNDA:0,_RNCNvNtNtNtCs2XshHk0aCOj_9paperboat7backend6cursor6models21discover_cursor_tiers0B9_
FNDA:1,_RNvNtNtNtNtCs2XshHk0aCOj_9paperboat7backend6cursor6models5testss_29test_parse_cursor_tiers_basic
FNDA:1,_RNvNtNtNtNtCs2XshHk0aCOj_9paperboat7backend6cursor6models5testss_32test_extract_tier_from_cursor_id
FNDA:1,_RNvNtNtNtNtCs2XshHk0aCOj_9paperboat7backend6cursor6models5testss_33test_parse_cursor_tiers_all_types
FNDA:1,_RNvNtNtNtNtCs2XshHk0aCOj_9paperboat7backend6cursor6models5testss_40test_parse_cursor_tiers_openai_meta_tier
FNDA:4,_RNvNtNtNtCs2XshHk0aCOj_9paperboat7backend6cursor6models18parse_cursor_tiers
FNDA:0,_RNvNtNtNtCs2XshHk0aCOj_9paperboat7backend6cursor6models21discover_cursor_tiers
FNDA:23,_RNvNtNtNtCs2XshHk0aCOj_9paperboat7backend6cursor6models27extract_tier_from_cursor_id
FNF:10
FNH:7
DA:21,0
DA:22,0
DA:23,0
DA:24,0
DA:25,0
DA:26,0
DA:28,0
DA:29,0
DA:30,0
DA:31,0
DA:32,0
DA:33,0
DA:34,0
DA:35,0
DA:37,0
DA:38,0
DA:39,0
DA:61,4
DA:62,4
DA:65,4
DA:67,18
DA:68,18
DA:69,18
DA:70,4
DA:71,14
DA:73,14
DA:74,14
DA:75,14
DA:76,14
DA:77,14
DA:78,0
DA:82,4
DA:83,3
DA:84,2
DA:85,3
DA:86,3
DA:87,3
DA:89,4
DA:90,4
DA:104,23
DA:105,23
DA:108,23
DA:109,4
DA:110,19
DA:111,19
DA:112,4
DA:113,15
DA:116,15
DA:117,3
DA:118,12
DA:119,12
DA:120,2
DA:121,10
DA:123,10
DA:124,1
DA:125,9
DA:128,9
DA:129,2
DA:130,7
DA:131,7
DA:132,2
DA:133,5
DA:136,5
DA:137,2
DA:138,3
DA:139,3
DA:140,2
DA:141,1
DA:143,1
DA:144,0
DA:145,1
DA:147,1
DA:148,23
DA:155,1
DA:156,1
DA:157,1
DA:158,1
DA:159,1
DA:160,1
DA:161,1
DA:163,1
DA:164,1
DA:165,1
DA:167,1
DA:168,1
DA:171,1
DA:172,1
DA:173,1
DA:174,1
DA:175,1
DA:176,1
DA:177,1
DA:178,1
DA:179,1
DA:180,1
DA:181,1
DA:182,1
DA:184,1
DA:185,1
DA:186,1
DA:187,1
DA:188,1
DA:189,1
DA:190,1
DA:191,1
DA:193,1
DA:195,1
DA:196,1
DA:199,1
DA:201,1
DA:202,1
DA:203,1
DA:204,1
DA:205,1
DA:206,1
DA:209,1
DA:210,1
DA:211,1
DA:212,1
DA:213,1
DA:214,1
DA:215,1
DA:218,1
DA:219,1
DA:220,1
DA:223,1
DA:224,1
DA:227,1
DA:228,1
DA:231,1
DA:232,1
DA:235,1
DA:236,1
DA:239,1
DA:240,1
DA:243,1
DA:244,1
DA:245,1
DA:248,1
DA:249,1
BRF:0
BRH:0
LF:143
LH:122
end_of_record
SF:/Users/dbmrq/Documents/Programação/Misc/paperboat/src/backend/cursor/permission.rs
FN:80,_RNvMNtNtNtCs2XshHk0aCOj_9paperboat7backend6cursor10permissionNtB2_16PermissionPolicy11for_planner
FN:109,_RNvMNtNtNtCs2XshHk0aCOj_9paperboat7backend6cursor10permissionNtB2_16PermissionPolicy12should_allow
FN:96,_RNvMNtNtNtCs2XshHk0aCOj_9paperboat7backend6cursor10permissionNtB2_16PermissionPolicy15for_implementer
FN:88,_RNvMNtNtNtCs2XshHk0aCOj_9paperboat7backend6cursor10permissionNtB2_16PermissionPolicy16for_orchestrator
FN:63,_RNvMNtNtNtCs2XshHk0aCOj_9paperboat7backend6cursor10permissionNtB2_16PermissionPolicy17from_agent_config
FN:52,_RNvMNtNtNtCs2XshHk0aCOj_9paperboat7backend6cursor10permissionNtB2_16PermissionPolicy9allow_all
FN:69,_RNCNvMNtNtNtCs2XshHk0aCOj_9paperboat7backend6cursor10permissionNtB4_16PermissionPolicy17from_agent_config0Ba_
FN:72,_RNCNvMNtNtNtCs2XshHk0aCOj_9paperboat7backend6cursor10permissionNtB4_16PermissionPolicy17from_agent_configs_0Ba_
FN:55,_RNCNvMNtNtNtCs2XshHk0aCOj_9paperboat7backend6cursor10permissionNtB4_16PermissionPolicy9allow_all0Ba_
FN:371,_RNvNtNtNtNtCs2XshHk0aCOj_9paperboat7backend6cursor10permission5testss_20test_empty_tool_name
FN:287,_RNvNtNtNtNtCs2XshHk0aCOj_9paperboat7backend6cursor10permission5testss_28test_implementer_allows_view
FN:230,_RNvNtNtNtNtCs2XshHk0aCOj_9paperboat7backend6cursor10permission5testss_29test_planner_allows_mcp_tools
FN:246,_RNvNtNtNtNtCs2XshHk0aCOj_9paperboat7backend6cursor10permission5testss_29test_planner_denies_decompose
FN:330,_RNvNtNtNtNtCs2XshHk0aCOj_9paperboat7backend6cursor10permission5testss_30test_permission_policy_default
FN:129,_RNvNtNtNtNtCs2XshHk0aCOj_9paperboat7backend6cursor10permission5testss_31test_allow_all_allows_mcp_tools
FN:315,_RNvNtNtNtNtCs2XshHk0aCOj_9paperboat7backend6cursor10permission5testss_31test_permission_policy_is_clone
FN:323,_RNvNtNtNtNtCs2XshHk0aCOj_9paperboat7backend6cursor10permission5testss_31test_permission_policy_is_debug
FN:161,_RNvNtNtNtNtCs2XshHk0aCOj_9paperboat7backend6cursor10permission5testss_32test_allow_all_has_all_mcp_tools
FN:299,_RNvNtNtNtNtCs2XshHk0aCOj_9paperboat7backend6cursor10permission5testss_32test_implementer_denies_set_goal
FN:220,_RNvNtNtNtNtCs2XshHk0aCOj_9paperboat7backend6cursor10permission5testss_32test_planner_denies_file_editing
FN:253,_RNvNtNtNtNtCs2XshHk0aCOj_9paperboat7backend6cursor10permission5testss_32test_planner_denies_remove_files
FN:239,_RNvNtNtNtNtCs2XshHk0aCOj_9paperboat7backend6cursor10permission5testss_32test_planner_denies_spawn_agents
FN:209,_RNvNtNtNtNtCs2XshHk0aCOj_9paperboat7backend6cursor10permission5testss_33test_orchestrator_denies_set_goal
FN:378,_RNvNtNtNtNtCs2XshHk0aCOj_9paperboat7backend6cursor10permission5testss_33test_tool_with_special_characters
FN:180,_RNvNtNtNtNtCs2XshHk0aCOj_9paperboat7backend6cursor10permission5testss_34test_orchestrator_allows_mcp_tools
FN:137,_RNvNtNtNtNtCs2XshHk0aCOj_9paperboat7backend6cursor10permission5testss_35test_allow_all_allows_all_mcp_tools
FN:146,_RNvNtNtNtNtCs2XshHk0aCOj_9paperboat7backend6cursor10permission5testss_35test_allow_all_allows_backend_tools
FN:305,_RNvNtNtNtNtCs2XshHk0aCOj_9paperboat7backend6cursor10permission5testss_35test_implementer_denies_create_task
FN:350,_RNvNtNtNtNtCs2XshHk0aCOj_9paperboat7backend6cursor10permission5testss_35test_mcp_tool_not_in_allowed_denied
FN:190,_RNvNtNtNtNtCs2XshHk0aCOj_9paperboat7backend6cursor10permission5testss_35test_orchestrator_allows_list_tasks
FN:196,_RNvNtNtNtNtCs2XshHk0aCOj_9paperboat7backend6cursor10permission5testss_35test_orchestrator_allows_skip_tasks
FN:272,_RNvNtNtNtNtCs2XshHk0aCOj_9paperboat7backend6cursor10permission5testss_36test_implementer_allows_mcp_complete
FN:281,_RNvNtNtNtNtCs2XshHk0aCOj_9paperboat7backend6cursor10permission5testss_36test_implementer_allows_remove_files
FN:293,_RNvNtNtNtNtCs2XshHk0aCOj_9paperboat7backend6cursor10permission5testss_36test_implementer_denies_spawn_agents
FN:202,_RNvNtNtNtNtCs2XshHk0aCOj_9paperboat7backend6cursor10permission5testss_36test_orchestrator_allows_create_task
FN:342,_RNvNtNtNtNtCs2XshHk0aCOj_9paperboat7backend6cursor10permission5testss_36test_unknown_tool_not_denied_allowed
FN:155,_RNvNtNtNtNtCs2XshHk0aCOj_9paperboat7backend6cursor10permission5testss_37test_allow_all_has_empty_denied_tools
FN:357,_RNvNtNtNtNtCs2XshHk0aCOj_9paperboat7backend6cursor10permission5testss_37test_case_sensitive_mcp_tool_matching
FN:263,_RNvNtNtNtNtCs2XshHk0aCOj_9paperboat7backend6cursor10permission5testss_37test_implementer_allows_backend_tools
FN:171,_RNvNtNtNtNtCs2XshHk0aCOj_9paperboat7backend6cursor10permission5testss_37test_orchestrator_denies_file_editing
FNDA:15,_RNvMNtNtNtCs2XshHk0aCOj_9paperboat7backend6cursor10permissionNtB2_16PermissionPolicy11for_planner
FNDA:67,_RNvMNtNtNtCs2XshHk0aCOj_9paperboat7backend6cursor10permissionNtB2_16PermissionPolicy12should_allow
FNDA:56,_RNvMNtNtNtCs2XshHk0aCOj_9paperboat7backend6cursor10permissionNtB2_16PermissionPolicy15for_implementer
FNDA:22,_RNvMNtNtNtCs2XshHk0aCOj_9paperboat7backend6cursor10permissionNtB2_16PermissionPolicy16for_orchestrator
FNDA:93,_RNvMNtNtNtCs2XshHk0aCOj_9paperboat7backend6cursor10permissionNtB2_16PermissionPolicy17from_agent_config
FNDA:28,_RNvMNtNtNtCs2XshHk0aCOj_9paperboat7backend6cursor10permissionNtB2_16PermissionPolicy9allow_all
FNDA:711,_RNCNvMNtNtNtCs2XshHk0aCOj_9paperboat7backend6cursor10permissionNtB4_16PermissionPolicy17from_agent_config0Ba_
FNDA:255,_RNCNvMNtNtNtCs2XshHk0aCOj_9paperboat7backend6cursor10permissionNtB4_16PermissionPolicy17from_agent_configs_0Ba_
FNDA:196,_RNCNvMNtNtNtCs2XshHk0aCOj_9paperboat7backend6cursor10permissionNtB4_16PermissionPolicy9allow_all0Ba_
FNDA:1,_RNvNtNtNtNtCs2XshHk0aCOj_9paperboat7backend6cursor10permission5testss_20test_empty_tool_name
FNDA:1,_RNvNtNtNtNtCs2XshHk0aCOj_9paperboat7backend6cursor10permission5testss_28test_implementer_allows_view
FNDA:1,_RNvNtNtNtNtCs2XshHk0aCOj_9paperboat7backend6cursor10permission5testss_29test_planner_allows_mcp_tools
FNDA:1,_RNvNtNtNtNtCs2XshHk0aCOj_9paperboat7backend6cursor10permission5testss_29test_planner_denies_decompose
FNDA:1,_RNvNtNtNtNtCs2XshHk0aCOj_9paperboat7backend6cursor10permission5testss_30test_permission_policy_default
FNDA:1,_RNvNtNtNtNtCs2XshHk0aCOj_9paperboat7backend6cursor10permission5testss_31test_allow_all_allows_mcp_tools
FNDA:1,_RNvNtNtNtNtCs2XshHk0aCOj_9paperboat7backend6cursor10permission5testss_31test_permission_policy_is_clone
FNDA:1,_RNvNtNtNtNtCs2XshHk0aCOj_9paperboat7backend6cursor10permission5testss_31test_permission_policy_is_debug
FNDA:1,_RNvNtNtNtNtCs2XshHk0aCOj_9paperboat7backend6cursor10permission5testss_32test_allow_all_has_all_mcp_tools
FNDA:1,_RNvNtNtNtNtCs2XshHk0aCOj_9paperboat7backend6cursor10permission5testss_32test_implementer_denies_set_goal
FNDA:1,_RNvNtNtNtNtCs2XshHk0aCOj_9paperboat7backend6cursor10permission5testss_32test_planner_denies_file_editing
FNDA:1,_RNvNtNtNtNtCs2XshHk0aCOj_9paperboat7backend6cursor10permission5testss_32test_planner_denies_remove_files
FNDA:1,_RNvNtNtNtNtCs2XshHk0aCOj_9paperboat7backend6cursor10permission5testss_32test_planner_denies_spawn_agents
FNDA:1,_RNvNtNtNtNtCs2XshHk0aCOj_9paperboat7backend6cursor10permission5testss_33test_orchestrator_denies_set_goal
FNDA:1,_RNvNtNtNtNtCs2XshHk0aCOj_9paperboat7backend6cursor10permission5testss_33test_tool_with_special_characters
FNDA:1,_RNvNtNtNtNtCs2XshHk0aCOj_9paperboat7backend6cursor10permission5testss_34test_orchestrator_allows_mcp_tools
FNDA:1,_RNvNtNtNtNtCs2XshHk0aCOj_9paperboat7backend6cursor10permission5testss_35test_allow_all_allows_all_mcp_tools
FNDA:1,_RNvNtNtNtNtCs2XshHk0aCOj_9paperboat7backend6cursor10permission5testss_35test_allow_all_allows_backend_tools
FNDA:1,_RNvNtNtNtNtCs2XshHk0aCOj_9paperboat7backend6cursor10permission5testss_35test_implementer_denies_create_task
FNDA:1,_RNvNtNtNtNtCs2XshHk0aCOj_9paperboat7backend6cursor10permission5testss_35test_mcp_tool_not_in_allowed_denied
FNDA:1,_RNvNtNtNtNtCs2XshHk0aCOj_9paperboat7backend6cursor10permission5testss_35test_orchestrator_allows_list_tasks
FNDA:1,_RNvNtNtNtNtCs2XshHk0aCOj_9paperboat7backend6cursor10permission5testss_35test_orchestrator_allows_skip_tasks
FNDA:1,_RNvNtNtNtNtCs2XshHk0aCOj_9paperboat7backend6cursor10permission5testss_36test_implementer_allows_mcp_complete
FNDA:1,_RNvNtNtNtNtCs2XshHk0aCOj_9paperboat7backend6cursor10permission5testss_36test_implementer_allows_remove_files
FNDA:1,_RNvNtNtNtNtCs2XshHk0aCOj_9paperboat7backend6cursor10permission5testss_36test_implementer_denies_spawn_agents
FNDA:1,_RNvNtNtNtNtCs2XshHk0aCOj_9paperboat7backend6cursor10permission5testss_36test_orchestrator_allows_create_task
FNDA:1,_RNvNtNtNtNtCs2XshHk0aCOj_9paperboat7backend6cursor10permission5testss_36test_unknown_tool_not_denied_allowed
FNDA:1,_RNvNtNtNtNtCs2XshHk0aCOj_9paperboat7backend6cursor10permission5testss_37test_allow_all_has_empty_denied_tools
FNDA:1,_RNvNtNtNtNtCs2XshHk0aCOj_9paperboat7backend6cursor10permission5testss_37test_case_sensitive_mcp_tool_matching
FNDA:1,_RNvNtNtNtNtCs2XshHk0aCOj_9paperboat7backend6cursor10permission5testss_37test_implementer_allows_backend_tools
FNDA:1,_RNvNtNtNtNtCs2XshHk0aCOj_9paperboat7backend6cursor10permission5testss_37test_orchestrator_denies_file_editing
FNF:40
FNH:40
DA:52,28
DA:54,28
DA:55,196
DA:57,28
DA:63,93
DA:66,93
DA:67,93
DA:68,93
DA:69,711
DA:70,93
DA:72,255
DA:74,93
DA:80,15
DA:81,15
DA:82,15
DA:88,22
DA:89,22
DA:90,22
DA:96,56
DA:97,56
DA:98,56
DA:109,67
DA:111,67
DA:112,36
DA:113,31
DA:116,31
DA:117,67
DA:129,1
DA:130,1
DA:131,1
DA:132,1
DA:133,1
DA:134,1
DA:137,1
DA:138,1
DA:140,7
DA:141,7
DA:143,1
DA:146,1
DA:147,1
DA:149,1
DA:150,1
DA:151,1
DA:152,1
DA:155,1
DA:156,1
DA:157,1
DA:158,1
DA:161,1
DA:162,1
DA:163,1
DA:164,1
DA:171,1
DA:172,1
DA:174,1
DA:175,1
DA:176,1
DA:177,1
DA:180,1
DA:181,1
DA:184,1
DA:185,1
DA:186,1
DA:187,1
DA:190,1
DA:191,1
DA:192,1
DA:193,1
DA:196,1
DA:197,1
DA:198,1
DA:199,1
DA:202,1
DA:203,1
DA:205,1
DA:206,1
DA:209,1
DA:210,1
DA:212,1
DA:213,1
DA:220,1
DA:221,1
DA:223,1
DA:224,1
DA:226,1
DA:227,1
DA:230,1
DA:231,1
DA:233,1
DA:234,1
DA:235,1
DA:236,1
DA:239,1
DA:240,1
DA:242,1
DA:243,1
DA:246,1
DA:247,1
DA:249,1
DA:250,1
DA:253,1
DA:254,1
DA:255,1
DA:256,1
DA:263,1
DA:264,1
DA:266,1
DA:267,1
DA:268,1
DA:269,1
DA:272,1
DA:273,1
DA:275,1
DA:277,1
DA:278,1
DA:281,1
DA:282,1
DA:283,1
DA:284,1
DA:287,1
DA:288,1
DA:289,1
DA:290,1
DA:293,1
DA:294,1
DA:295,1
DA:296,1
DA:299,1
DA:300,1
DA:301,1
DA:302,1
DA:305,1
DA:306,1
DA:307,1
DA:308,1
DA:315,1
DA:316,1
DA:317,1
DA:318,1
DA:319,1
DA:320,1
DA:323,1
DA:324,1
DA:325,1
DA:326,1
DA:327,1
DA:330,1
DA:331,1
DA:333,1
DA:334,1
DA:335,1
DA:342,1
DA:344,1
DA:346,1
DA:347,1
DA:350,1
DA:351,1
DA:353,1
DA:354,1
DA:357,1
DA:358,1
DA:360,1
DA:365,1
DA:366,1
DA:367,1
DA:368,1
DA:371,1
DA:372,1
DA:374,1
DA:375,1
DA:378,1
DA:379,1
DA:381,1
DA:382,1
BRF:0
BRH:0
LF:177
LH:177
end_of_record
SF:/Users/dbmrq/Documents/Programação/Misc/paperboat/src/backend/mod.rs
FN:554,_RNCNvNtCs2XshHk0aCOj_9paperboat7backend24prompt_backend_selection0B5_
FN:525,_RNvNtCs2XshHk0aCOj_9paperboat7backend24prompt_backend_selection
FN:460,_RNvNtCs2XshHk0aCOj_9paperboat7backend27discover_available_backends
FN:708,_RNvNtNtCs2XshHk0aCOj_9paperboat7backend5testss_21test_backend_kind_all
FN:638,_RNvNtNtCs2XshHk0aCOj_9paperboat7backend5testss_24test_backend_kind_as_str
FN:644,_RNvNtNtCs2XshHk0aCOj_9paperboat7backend5testss_25test_backend_kind_display
FN:953,_RNvNtNtCs2XshHk0aCOj_9paperboat7backend5testss_27test_backend_config_display
FN:715,_RNvNtNtCs2XshHk0aCOj_9paperboat7backend5testss_28test_agent_cache_type_as_str
FN:780,_RNvNtNtCs2XshHk0aCOj_9paperboat7backend5testss_28test_all_backends_have_names
FN:723,_RNvNtNtCs2XshHk0aCOj_9paperboat7backend5testss_29test_agent_cache_type_display
FN:749,_RNvNtNtCs2XshHk0aCOj_9paperboat7backend5testss_31test_all_backends_are_send_sync
FN:735,_RNvNtNtCs2XshHk0aCOj_9paperboat7backend5testss_31test_backend_kind_create_auggie
FN:742,_RNvNtNtCs2XshHk0aCOj_9paperboat7backend5testss_31test_backend_kind_create_cursor
FN:872,_RNvNtNtCs2XshHk0aCOj_9paperboat7backend5testss_32test_backend_config_parse_simple
FN:650,_RNvNtNtCs2XshHk0aCOj_9paperboat7backend5testss_33test_backend_kind_from_str_auggie
FN:683,_RNvNtNtCs2XshHk0aCOj_9paperboat7backend5testss_33test_backend_kind_from_str_cursor
FN:767,_RNvNtNtCs2XshHk0aCOj_9paperboat7backend5testss_34test_all_backends_have_login_hints
FN:666,_RNvNtNtCs2XshHk0aCOj_9paperboat7backend5testss_34test_backend_kind_from_str_augment
FN:699,_RNvNtNtCs2XshHk0aCOj_9paperboat7backend5testss_34test_backend_kind_from_str_invalid
FN:633,_RNvNtNtCs2XshHk0aCOj_9paperboat7backend5testss_35test_backend_kind_default_is_auggie
FN:815,_RNvNtNtCs2XshHk0aCOj_9paperboat7backend5testss_35test_backend_kind_default_transport
FN:835,_RNvNtNtCs2XshHk0aCOj_9paperboat7backend5testss_36test_backend_kind_supports_transport
FN:846,_RNvNtNtCs2XshHk0aCOj_9paperboat7backend5testss_36test_backend_kind_validate_transport
FN:965,_RNvNtNtCs2XshHk0aCOj_9paperboat7backend5testss_38test_backend_kind_parse_with_transport
FN:821,_RNvNtNtCs2XshHk0aCOj_9paperboat7backend5testss_38test_backend_kind_supported_transports
FN:938,_RNvNtNtCs2XshHk0aCOj_9paperboat7backend5testss_39test_backend_config_effective_transport
FN:888,_RNvNtNtCs2XshHk0aCOj_9paperboat7backend5testss_40test_backend_config_parse_with_transport
FN:917,_RNvNtNtCs2XshHk0aCOj_9paperboat7backend5testss_41test_backend_config_parse_invalid_backend
FN:791,_RNvNtNtCs2XshHk0aCOj_9paperboat7backend5testss_42test_all_backends_have_auth_error_messages
FN:906,_RNvNtNtCs2XshHk0aCOj_9paperboat7backend5testss_42test_backend_config_parse_case_insensitive
FN:923,_RNvNtNtCs2XshHk0aCOj_9paperboat7backend5testss_43test_backend_config_parse_invalid_transport
FN:930,_RNvNtNtCs2XshHk0aCOj_9paperboat7backend5testss_47test_backend_config_parse_unsupported_transport
FN:757,_RNvNvNtNtCs2XshHk0aCOj_9paperboat7backend5testss_31test_all_backends_are_send_sync13takes_backend
FN:750,_RINvNvNtNtCs2XshHk0aCOj_9paperboat7backend5testss_31test_all_backends_are_send_sync16assert_send_syncNtNtB6_6auggie13AuggieBackendEB8_
FN:750,_RINvNvNtNtCs2XshHk0aCOj_9paperboat7backend5testss_31test_all_backends_are_send_sync16assert_send_syncNtNtB6_6cursor13CursorBackendEB8_
FN:158,_RNvMNtCs2XshHk0aCOj_9paperboat7backendNtB2_13BackendConfig14with_transport
FN:223,_RNvMNtCs2XshHk0aCOj_9paperboat7backendNtB2_13BackendConfig19effective_transport
FN:148,_RNvMNtCs2XshHk0aCOj_9paperboat7backendNtB2_13BackendConfig3new
FN:180,_RNvMNtCs2XshHk0aCOj_9paperboat7backendNtB2_13BackendConfig5parse
FN:330,_RNvMs3_NtCs2XshHk0aCOj_9paperboat7backendNtB5_11BackendKind17default_transport
FN:348,_RNvMs3_NtCs2XshHk0aCOj_9paperboat7backendNtB5_11BackendKind18supports_transport
FN:355,_RNvMs3_NtCs2XshHk0aCOj_9paperboat7backendNtB5_11BackendKind18validate_transport
FN:383,_RNvMs3_NtCs2XshHk0aCOj_9paperboat7backendNtB5_11BackendKind20parse_with_transport
FN:339,_RNvMs3_NtCs2XshHk0aCOj_9paperboat7backendNtB5_11BackendKind20supported_transports
FN:307,_RNvMs3_NtCs2XshHk0aCOj_9paperboat7backendNtB5_11BackendKind6as_str
FN:318,_RNvMs3_NtCs2XshHk0aCOj_9paperboat7backendNtB5_11BackendKind6create
FN:264,_RNvNtCs2XshHk0aCOj_9paperboat7backend20parse_transport_kind
FN:237,_RNvXs0_NtCs2XshHk0aCOj_9paperboat7backendNtB5_13BackendConfigNtNtCskpTlHb4dJmc_4core3fmt7Display3fmt
FN:256,_RNvXs1_NtCs2XshHk0aCOj_9paperboat7backendNtB5_23ParseBackendConfigErrorNtNtCskpTlHb4dJmc_4core3fmt7Display3fmt
FN:392,_RNvXs4_NtCs2XshHk0aCOj_9paperboat7backendNtB5_11BackendKindNtNtCskpTlHb4dJmc_4core3fmt7Display3fmt
FN:405,_RNvXs5_NtCs2XshHk0aCOj_9paperboat7backendNtB5_21ParseBackendKindErrorNtNtCskpTlHb4dJmc_4core3fmt7Display3fmt
FN:425,_RNvXs7_NtCs2XshHk0aCOj_9paperboat7backendNtB5_11BackendKindNtNtNtCskpTlHb4dJmc_4core3str6traits7FromStr8from_str
FN:231,_RNvXs_NtCs2XshHk0aCOj_9paperboat7backendNtB4_13BackendConfigNtNtCskpTlHb4dJmc_4core7default7Default7default
FN:225,_RNCNvMNtCs2XshHk0aCOj_9paperboat7backendNtB4_13BackendConfig19effective_transport0B6_
FN:189,_RNCNvMNtCs2XshHk0aCOj_9paperboat7backendNtB4_13BackendConfig5parse0B6_
FN:207,_RNCNvMNtCs2XshHk0aCOj_9paperboat7backendNtB4_13BackendConfig5parses0_0B6_
FN:197,_RNCNvMNtCs2XshHk0aCOj_9paperboat7backendNtB4_13BackendConfig5parses_0B6_
FN:362,_RNCNvMs3_NtCs2XshHk0aCOj_9paperboat7backendNtB7_11BackendKind18validate_transport0B9_
FN:460,_RNCNvNtCs2XshHk0aCOj_9paperboat7backend27discover_available_backends0B5_
FNDA:0,_RNCNvNtCs2XshHk0aCOj_9paperboat7backend24prompt_backend_selection0B5_
FNDA:0,_RNvNtCs2XshHk0aCOj_9paperboat7backend24prompt_backend_selection
FNDA:0,_RNvNtCs2XshHk0aCOj_9paperboat7backend27discover_available_backends
FNDA:1,_RNvNtNtCs2XshHk0aCOj_9paperboat7backend5testss_21test_backend_kind_all
FNDA:1,_RNvNtNtCs2XshHk0aCOj_9paperboat7backend5testss_24test_backend_kind_as_str
FNDA:1,_RNvNtNtCs2XshHk0aCOj_9paperboat7backend5testss_25test_backend_kind_display
FNDA:1,_RNvNtNtCs2XshHk0aCOj_9paperboat7backend5testss_27test_backend_config_display
FNDA:1,_RNvNtNtCs2XshHk0aCOj_9paperboat7backend5testss_28test_agent_cache_type_as_str
FNDA:1,_RNvNtNtCs2XshHk0aCOj_9paperboat7backend5testss_28test_all_backends_have_names
FNDA:1,_RNvNtNtCs2XshHk0aCOj_9paperboat7backend5testss_29test_agent_cache_type_display
FNDA:1,_RNvNtNtCs2XshHk0aCOj_9paperboat7backend5testss_31test_all_backends_are_send_sync
FNDA:1,_RNvNtNtCs2XshHk0aCOj_9paperboat7backend5testss_31test_backend_kind_create_auggie
FNDA:1,_RNvNtNtCs2XshHk0aCOj_9paperboat7backend5testss_31test_backend_kind_create_cursor
FNDA:1,_RNvNtNtCs2XshHk0aCOj_9paperboat7backend5testss_32test_backend_config_parse_simple
FNDA:1,_RNvNtNtCs2XshHk0aCOj_9paperboat7backend5testss_33test_backend_kind_from_str_auggie
FNDA:1,_RNvNtNtCs2XshHk0aCOj_9paperboat7backend5testss_33test_backend_kind_from_str_cursor
FNDA:1,_RNvNtNtCs2XshHk0aCOj_9paperboat7backend5testss_34test_all_backends_have_login_hints
FNDA:1,_RNvNtNtCs2XshHk0aCOj_9paperboat7backend5testss_34test_backend_kind_from_str_augment
FNDA:1,_RNvNtNtCs2XshHk0aCOj_9paperboat7backend5testss_34test_backend_kind_from_str_invalid
FNDA:1,_RNvNtNtCs2XshHk0aCOj_9paperboat7backend5testss_35test_backend_kind_default_is_auggie
FNDA:1,_RNvNtNtCs2XshHk0aCOj_9paperboat7backend5testss_35test_backend_kind_default_transport
FNDA:1,_RNvNtNtCs2XshHk0aCOj_9paperboat7backend5testss_36test_backend_kind_supports_transport
FNDA:1,_RNvNtNtCs2XshHk0aCOj_9paperboat7backend5testss_36test_backend_kind_validate_transport
FNDA:1,_RNvNtNtCs2XshHk0aCOj_9paperboat7backend5testss_38test_backend_kind_parse_with_transport
FNDA:1,_RNvNtNtCs2XshHk0aCOj_9paperboat7backend5testss_38test_backend_kind_supported_transports
FNDA:1,_RNvNtNtCs2XshHk0aCOj_9paperboat7backend5testss_39test_backend_config_effective_transport
FNDA:1,_RNvNtNtCs2XshHk0aCOj_9paperboat7backend5testss_40test_backend_config_parse_with_transport
FNDA:1,_RNvNtNtCs2XshHk0aCOj_9paperboat7backend5testss_41test_backend_config_parse_invalid_backend
FNDA:1,_RNvNtNtCs2XshHk0aCOj_9paperboat7backend5testss_42test_all_backends_have_auth_error_messages
FNDA:1,_RNvNtNtCs2XshHk0aCOj_9paperboat7backend5testss_42test_backend_config_parse_case_insensitive
FNDA:1,_RNvNtNtCs2XshHk0aCOj_9paperboat7backend5testss_43test_backend_config_parse_invalid_transport
FNDA:1,_RNvNtNtCs2XshHk0aCOj_9paperboat7backend5testss_47test_backend_config_parse_unsupported_transport
FNDA:2,_RNvNvNtNtCs2XshHk0aCOj_9paperboat7backend5testss_31test_all_backends_are_send_sync13takes_backend
FNDA:1,_RINvNvNtNtCs2XshHk0aCOj_9paperboat7backend5testss_31test_all_backends_are_send_sync16assert_send_syncNtNtB6_6auggie13AuggieBackendEB8_
FNDA:1,_RINvNvNtNtCs2XshHk0aCOj_9paperboat7backend5testss_31test_all_backends_are_send_sync16assert_send_syncNtNtB6_6cursor13CursorBackendEB8_
FNDA:2,_RNvMNtCs2XshHk0aCOj_9paperboat7backendNtB2_13BackendConfig14with_transport
FNDA:7,_RNvMNtCs2XshHk0aCOj_9paperboat7backendNtB2_13BackendConfig19effective_transport
FNDA:7,_RNvMNtCs2XshHk0aCOj_9paperboat7backendNtB2_13BackendConfig3new
FNDA:36,_RNvMNtCs2XshHk0aCOj_9paperboat7backendNtB2_13BackendConfig5parse
FNDA:6,_RNvMs3_NtCs2XshHk0aCOj_9paperboat7backendNtB5_11BackendKind17default_transport
FNDA:23,_RNvMs3_NtCs2XshHk0aCOj_9paperboat7backendNtB5_11BackendKind18supports_transport
FNDA:19,_RNvMs3_NtCs2XshHk0aCOj_9paperboat7backendNtB5_11BackendKind18validate_transport
FNDA:2,_RNvMs3_NtCs2XshHk0aCOj_9paperboat7backendNtB5_11BackendKind20parse_with_transport
FNDA:29,_RNvMs3_NtCs2XshHk0aCOj_9paperboat7backendNtB5_11BackendKind20supported_transports
FNDA:29,_RNvMs3_NtCs2XshHk0aCOj_9paperboat7backendNtB5_11BackendKind6as_str
FNDA:10,_RNvMs3_NtCs2XshHk0aCOj_9paperboat7backendNtB5_11BackendKind6create
FNDA:18,_RNvNtCs2XshHk0aCOj_9paperboat7backend20parse_transport_kind
FNDA:3,_RNvXs0_NtCs2XshHk0aCOj_9paperboat7backendNtB5_13BackendConfigNtNtCskpTlHb4dJmc_4core3fmt7Display3fmt
FNDA:0,_RNvXs1_NtCs2XshHk0aCOj_9paperboat7backendNtB5_23ParseBackendConfigErrorNtNtCskpTlHb4dJmc_4core3fmt7Display3fmt
FNDA:5,_RNvXs4_NtCs2XshHk0aCOj_9paperboat7backendNtB5_11BackendKindNtNtCskpTlHb4dJmc_4core3fmt7Display3fmt
FNDA:6,_RNvXs5_NtCs2XshHk0aCOj_9paperboat7backendNtB5_21ParseBackendKindErrorNtNtCskpTlHb4dJmc_4core3fmt7Display3fmt
FNDA:46,_RNvXs7_NtCs2XshHk0aCOj_9paperboat7backendNtB5_11BackendKindNtNtNtCskpTlHb4dJmc_4core3str6traits7FromStr8from_str
FNDA:6,_RNvXs_NtCs2XshHk0aCOj_9paperboat7backendNtB4_13BackendConfigNtNtCskpTlHb4dJmc_4core7default7Default7default
FNDA:4,_RNCNvMNtCs2XshHk0aCOj_9paperboat7backendNtB4_13BackendConfig19effective_transport0B6_
FNDA:3,_RNCNvMNtCs2XshHk0aCOj_9paperboat7backendNtB4_13BackendConfig5parse0B6_
FNDA:3,_RNCNvMNtCs2XshHk0aCOj_9paperboat7backendNtB4_13BackendConfig5parses0_0B6_
FNDA:3,_RNCNvMNtCs2XshHk0aCOj_9paperboat7backendNtB4_13BackendConfig5parses_0B6_
FNDA:4,_RNCNvMs3_NtCs2XshHk0aCOj_9paperboat7backendNtB7_11BackendKind18validate_transport0B9_
FNDA:0,_RNCNvNtCs2XshHk0aCOj_9paperboat7backend27discover_available_backends0B5_
FNF:58
FNH:53
DA:148,7
DA:149,7
DA:150,7
DA:151,7
DA:152,7
DA:153,7
DA:158,2
DA:159,2
DA:160,2
DA:161,2
DA:162,2
DA:163,2
DA:180,36
DA:181,36
DA:182,18
DA:184,18
DA:188,36
DA:189,3
DA:190,3
DA:191,3
DA:194,33
DA:195,15
DA:196,18
DA:197,3
DA:198,3
DA:202,3
DA:205,15
DA:206,15
DA:207,3
DA:208,3
DA:209,3
DA:211,12
DA:213,15
DA:216,27
DA:217,36
DA:223,7
DA:224,7
DA:225,7
DA:226,7
DA:231,6
DA:232,6
DA:233,6
DA:237,3
DA:238,3
DA:239,2
DA:241,1
DA:243,3
DA:256,0
DA:257,0
DA:258,0
DA:264,18
DA:265,18
DA:266,18
DA:267,12
DA:268,3
DA:270,18
DA:307,29
DA:308,29
DA:309,16
DA:310,13
DA:312,29
DA:318,10
DA:319,10
DA:320,5
DA:321,5
DA:323,10
DA:330,6
DA:331,6
DA:332,3
DA:333,3
DA:335,6
DA:339,29
DA:340,29
DA:341,13
DA:342,16
DA:344,29
DA:348,23
DA:349,23
DA:350,23
DA:355,19
DA:356,19
DA:357,15
DA:359,4
DA:360,4
DA:361,4
DA:362,4
DA:363,4
DA:364,4
DA:366,4
DA:367,4
DA:368,4
DA:369,4
DA:370,4
DA:371,4
DA:373,19
DA:383,2
DA:384,2
DA:385,2
DA:386,2
DA:387,2
DA:388,2
DA:392,5
DA:393,5
DA:394,5
DA:405,6
DA:406,6
DA:407,6
DA:412,6
DA:425,46
DA:426,46
DA:427,46
DA:428,28
DA:429,4
DA:430,4
DA:431,4
DA:433,46
DA:460,0
DA:463,0
DA:466,0
DA:467,0
DA:468,0
DA:469,0
DA:471,0
DA:472,0
DA:473,0
DA:474,0
DA:476,0
DA:482,0
DA:486,0
DA:487,0
DA:488,0
DA:489,0
DA:491,0
DA:492,0
DA:493,0
DA:494,0
DA:496,0
DA:502,0
DA:505,0
DA:506,0
DA:525,0
DA:531,0
DA:532,0
DA:533,0
DA:535,0
DA:537,0
DA:538,0
DA:539,0
DA:540,0
DA:542,0
DA:545,0
DA:546,0
DA:548,0
DA:550,0
DA:553,0
DA:554,0
DA:555,0
DA:556,0
DA:557,0
DA:558,0
DA:559,0
DA:560,0
DA:561,0
DA:562,0
DA:563,0
DA:564,0
DA:565,0
DA:566,0
DA:567,0
DA:568,0
DA:569,0
DA:571,0
DA:574,0
DA:575,0
DA:577,0
DA:578,0
DA:580,0
DA:581,0
DA:582,0
DA:585,0
DA:586,0
DA:587,0
DA:588,0
DA:589,0
DA:592,0
DA:594,0
DA:596,0
DA:603,0
DA:604,0
DA:605,0
DA:609,0
DA:610,0
DA:611,0
DA:615,0
DA:616,0
DA:617,0
DA:623,0
DA:625,0
DA:626,0
DA:633,1
DA:634,1
DA:635,1
DA:638,1
DA:639,1
DA:640,1
DA:641,1
DA:644,1
DA:645,1
DA:646,1
DA:647,1
DA:650,1
DA:651,1
DA:652,1
DA:655,1
DA:656,1
DA:659,1
DA:660,1
DA:663,1
DA:666,1
DA:668,1
DA:669,1
DA:672,1
DA:673,1
DA:676,1
DA:677,1
DA:680,1
DA:683,1
DA:684,1
DA:685,1
DA:688,1
DA:689,1
DA:692,1
DA:693,1
DA:696,1
DA:699,1
DA:700,1
DA:701,1
DA:702,1
DA:703,1
DA:704,1
DA:705,1
DA:708,1
DA:709,1
DA:710,1
DA:711,1
DA:712,1
DA:715,1
DA:717,1
DA:718,1
DA:719,1
DA:720,1
DA:723,1
DA:725,1
DA:726,1
DA:727,1
DA:728,1
DA:735,1
DA:736,1
DA:737,1
DA:738,1
DA:739,1
DA:742,1
DA:743,1
DA:744,1
DA:745,1
DA:746,1
DA:749,1
DA:750,2
DA:753,1
DA:754,1
DA:757,2
DA:758,1
DA:759,1
DA:762,1
DA:763,1
DA:764,1
DA:767,1
DA:768,2
DA:769,2
DA:770,2
DA:771,2
DA:772,2
DA:777,1
DA:780,1
DA:781,2
DA:782,2
DA:783,2
DA:784,2
DA:786,2
DA:788,1
DA:791,1
DA:792,2
DA:793,2
DA:794,2
DA:795,2
DA:796,2
DA:801,2
DA:802,2
DA:808,1
DA:815,1
DA:816,1
DA:817,1
DA:818,1
DA:821,1
DA:823,1
DA:824,1
DA:825,1
DA:828,1
DA:829,1
DA:830,1
DA:831,1
DA:832,1
DA:835,1
DA:837,1
DA:838,1
DA:841,1
DA:842,1
DA:843,1
DA:846,1
DA:848,1
DA:849,1
DA:850,1
DA:851,1
DA:852,1
DA:853,1
DA:854,1
DA:855,1
DA:856,1
DA:859,1
DA:860,1
DA:861,1
DA:862,1
DA:863,1
DA:864,1
DA:865,1
DA:872,1
DA:874,1
DA:875,1
DA:876,1
DA:878,1
DA:879,1
DA:880,1
DA:882,1
DA:883,1
DA:884,1
DA:885,1
DA:888,1
DA:890,1
DA:891,1
DA:892,1
DA:895,1
DA:896,1
DA:897,1
DA:900,1
DA:901,1
DA:902,1
DA:903,1
DA:906,1
DA:907,1
DA:908,1
DA:909,1
DA:911,1
DA:912,1
DA:913,1
DA:914,1
DA:917,1
DA:918,1
DA:919,1
DA:920,1
DA:923,1
DA:924,1
DA:925,1
DA:926,1
DA:927,1
DA:930,1
DA:932,1
DA:933,1
DA:934,1
DA:935,1
DA:938,1
DA:940,1
DA:941,1
DA:944,1
DA:945,1
DA:948,1
DA:949,1
DA:950,1
DA:953,1
DA:954,1
DA:955,1
DA:957,1
DA:958,1
DA:960,1
DA:961,1
DA:962,1
DA:965,1
DA:967,1
DA:968,1
DA:969,1
DA:971,1
DA:972,1
DA:973,1
DA:974,1
BRF:0
BRH:0
LF:410
LH:322
end_of_record
SF:/Users/dbmrq/Documents/Programação/Misc/paperboat/src/backend/trait.rs
FN:436,_RNvYNtNtNtCs2XshHk0aCOj_9paperboat7backend6auggie13AuggieBackendNtNtB6_5trait7Backend18auth_error_messageB8_
FN:53,_RNvMNtNtCs2XshHk0aCOj_9paperboat7backend5traitNtB2_14AgentCacheType6as_str
FN:166,_RNvMs0_NtNtCs2XshHk0aCOj_9paperboat7backend5traitNtB5_15TransportConfig15with_mcp_server
FN:158,_RNvMs0_NtNtCs2XshHk0aCOj_9paperboat7backend5traitNtB5_15TransportConfig16with_mcp_servers
FN:150,_RNvMs0_NtNtCs2XshHk0aCOj_9paperboat7backend5traitNtB5_15TransportConfig20with_request_timeout
FN:173,_RNvXs1_NtNtCs2XshHk0aCOj_9paperboat7backend5traitNtB5_15TransportConfigNtNtCskpTlHb4dJmc_4core7default7Default7default
FN:63,_RNvXs_NtNtCs2XshHk0aCOj_9paperboat7backend5traitNtB4_14AgentCacheTypeNtNtCskpTlHb4dJmc_4core3fmt7Display3fmt
FN:142,_RINvMs0_NtNtCs2XshHk0aCOj_9paperboat7backend5traitNtB6_15TransportConfig10with_modelNtNtCs9z9vVV76Yx7_5alloc6string6StringEBa_
FN:142,_RINvMs0_NtNtCs2XshHk0aCOj_9paperboat7backend5traitNtB6_15TransportConfig10with_modelReEBa_
FN:130,_RINvMs0_NtNtCs2XshHk0aCOj_9paperboat7backend5traitNtB6_15TransportConfig3newNtNtCs5mRiOBGo38Z_3std4path7PathBufEBa_
FN:130,_RINvMs0_NtNtCs2XshHk0aCOj_9paperboat7backend5traitNtB6_15TransportConfig3newReEBa_
FN:411,_RNCNCNvYNtNtNtCs2XshHk0aCOj_9paperboat7testing12mock_backend11MockBackendNtNtNtBc_7backend5trait7Backend16create_transport00Bc_
FN:452,_RNvNtNtNtCs2XshHk0aCOj_9paperboat7backend5trait5testss_25test_transport_config_new
FN:489,_RNvNtNtNtCs2XshHk0aCOj_9paperboat7backend5trait5testss_29test_transport_config_default
FN:461,_RNvNtNtNtCs2XshHk0aCOj_9paperboat7backend5trait5testss_32test_transport_config_with_model
FN:467,_RNvNtNtNtCs2XshHk0aCOj_9paperboat7backend5trait5testss_34test_transport_config_with_timeout
FN:481,_RNvNtNtNtCs2XshHk0aCOj_9paperboat7backend5trait5testss_37test_transport_config_with_mcp_server
FN:498,_RNvNtNtNtCs2XshHk0aCOj_9paperboat7backend5trait5testss_38test_transport_config_builder_chaining
FN:474,_RNvNtNtNtCs2XshHk0aCOj_9paperboat7backend5trait5testss_38test_transport_config_with_mcp_servers
FN:436,_RNvYNtNtNtNtCs2XshHk0aCOj_9paperboat3app13agent_spawner5tests16RecordingBackendNtNtNtBa_7backend5trait7Backend18auth_error_messageBa_
FN:348,_RNvYNtNtNtNtCs2XshHk0aCOj_9paperboat3app13agent_spawner5tests16RecordingBackendNtNtNtBa_7backend5trait7Backend20supported_transportsBa_
FN:400,_RNvYNtNtNtCs2XshHk0aCOj_9paperboat7testing12mock_backend11MockBackendNtNtNtB8_7backend5trait7Backend16create_transportB8_
FN:348,_RNvYNtNtNtCs2XshHk0aCOj_9paperboat7testing12mock_backend11MockBackendNtNtNtB8_7backend5trait7Backend20supported_transportsB8_
FNDA:2,_RNvYNtNtNtCs2XshHk0aCOj_9paperboat7backend6auggie13AuggieBackendNtNtB6_5trait7Backend18auth_error_messageB8_
FNDA:11,_RNvMNtNtCs2XshHk0aCOj_9paperboat7backend5traitNtB2_14AgentCacheType6as_str
FNDA:9,_RNvMs0_NtNtCs2XshHk0aCOj_9paperboat7backend5traitNtB5_15TransportConfig15with_mcp_server
FNDA:5,_RNvMs0_NtNtCs2XshHk0aCOj_9paperboat7backend5traitNtB5_15TransportConfig16with_mcp_servers
FNDA:9,_RNvMs0_NtNtCs2XshHk0aCOj_9paperboat7backend5traitNtB5_15TransportConfig20with_request_timeout
FNDA:1,_RNvXs1_NtNtCs2XshHk0aCOj_9paperboat7backend5traitNtB5_15TransportConfigNtNtCskpTlHb4dJmc_4core7default7Default7default
FNDA:3,_RNvXs_NtNtCs2XshHk0aCOj_9paperboat7backend5traitNtB4_14AgentCacheTypeNtNtCskpTlHb4dJmc_4core3fmt7Display3fmt
FNDA:4,_RINvMs0_NtNtCs2XshHk0aCOj_9paperboat7backend5traitNtB6_15TransportConfig10with_modelNtNtCs9z9vVV76Yx7_5alloc6string6StringEBa_
FNDA:10,_RINvMs0_NtNtCs2XshHk0aCOj_9paperboat7backend5traitNtB6_15TransportConfig10with_modelReEBa_
FNDA:4,_RINvMs0_NtNtCs2XshHk0aCOj_9paperboat7backend5traitNtB6_15TransportConfig3newNtNtCs5mRiOBGo38Z_3std4path7PathBufEBa_
FNDA:15,_RINvMs0_NtNtCs2XshHk0aCOj_9paperboat7backend5traitNtB6_15TransportConfig3newReEBa_
FNDA:0,_RNCNCNvYNtNtNtCs2XshHk0aCOj_9paperboat7testing12mock_backend11MockBackendNtNtNtBc_7backend5trait7Backend16create_transport00Bc_
FNDA:1,_RNvNtNtNtCs2XshHk0aCOj_9paperboat7backend5trait5testss_25test_transport_config_new
FNDA:1,_RNvNtNtNtCs2XshHk0aCOj_9paperboat7backend5trait5testss_29test_transport_config_default
FNDA:1,_RNvNtNtNtCs2XshHk0aCOj_9paperboat7backend5trait5testss_32test_transport_config_with_model
FNDA:1,_RNvNtNtNtCs2XshHk0aCOj_9paperboat7backend5trait5testss_34test_transport_config_with_timeout
FNDA:1,_RNvNtNtNtCs2XshHk0aCOj_9paperboat7backend5trait5testss_37test_transport_config_with_mcp_server
FNDA:1,_RNvNtNtNtCs2XshHk0aCOj_9paperboat7backend5trait5testss_38test_transport_config_builder_chaining
FNDA:1,_RNvNtNtNtCs2XshHk0aCOj_9paperboat7backend5trait5testss_38test_transport_config_with_mcp_servers
FNDA:0,_RNvYNtNtNtNtCs2XshHk0aCOj_9paperboat3app13agent_spawner5tests16RecordingBackendNtNtNtBa_7backend5trait7Backend18auth_error_messageBa_
FNDA:0,_RNvYNtNtNtNtCs2XshHk0aCOj_9paperboat3app13agent_spawner5tests16RecordingBackendNtNtNtBa_7backend5trait7Backend20supported_transportsBa_
FNDA:0,_RNvYNtNtNtCs2XshHk0aCOj_9paperboat7testing12mock_backend11MockBackendNtNtNtB8_7backend5trait7Backend16create_transportB8_
FNDA:0,_RNvYNtNtNtCs2XshHk0aCOj_9paperboat7testing12mock_backend11MockBackendNtNtNtB8_7backend5trait7Backend20supported_transportsB8_
FNF:19
FNH:16
DA:53,11
DA:54,11
DA:55,4
DA:56,3
DA:57,4
DA:59,11
DA:63,3
DA:64,3
DA:65,3
DA:130,19
DA:131,19
DA:132,19
DA:133,19
DA:134,19
DA:135,19
DA:136,19
DA:137,19
DA:142,14
DA:143,14
DA:144,14
DA:145,14
DA:150,9
DA:151,9
DA:152,9
DA:153,9
DA:158,5
DA:159,5
DA:160,5
DA:161,5
DA:166,9
DA:167,9
DA:168,9
DA:169,9
DA:173,1
DA:174,1
DA:175,1
DA:176,1
DA:177,1
DA:178,1
DA:179,1
DA:180,1
DA:348,0
DA:350,0
DA:351,0
DA:400,0
DA:411,0
DA:424,0
DA:436,2
DA:437,2
DA:440,2
DA:441,2
DA:443,2
DA:452,1
DA:453,1
DA:454,1
DA:455,1
DA:456,1
DA:457,1
DA:458,1
DA:461,1
DA:462,1
DA:463,1
DA:464,1
DA:467,1
DA:468,1
DA:469,1
DA:470,1
DA:471,1
DA:474,1
DA:475,1
DA:476,1
DA:477,1
DA:478,1
DA:481,1
DA:482,1
DA:483,1
DA:484,1
DA:485,1
DA:486,1
DA:489,1
DA:490,1
DA:491,1
DA:492,1
DA:493,1
DA:494,1
DA:495,1
DA:498,1
DA:499,1
DA:500,1
DA:501,1
DA:502,1
DA:504,1
DA:505,1
DA:506,1
DA:507,1
DA:508,1
BRF:0
BRH:0
LF:96
LH:90
end_of_record
SF:/Users/dbmrq/Documents/Programação/Misc/paperboat/src/backend/transport.rs
FN:601,_RNvYNtNtNtNtCs2XshHk0aCOj_9paperboat3app16orchestrator_acp5tests14QueueTransportNtNtNtBa_7backend9transport14AgentTransport20take_notification_rxBa_
FN:615,_RNvYNtNtNtNtCs2XshHk0aCOj_9paperboat3app16orchestrator_acp5tests14QueueTransportNtNtNtBa_7backend9transport14AgentTransport4kindBa_
FN:222,_RINvMs2_NtNtCs2XshHk0aCOj_9paperboat7backend9transportNtB6_13SessionConfig3newNtNtCs9z9vVV76Yx7_5alloc6string6StringB1e_EBa_
FN:222,_RINvMs2_NtNtCs2XshHk0aCOj_9paperboat7backend9transportNtB6_13SessionConfig3newRNtNtCs9z9vVV76Yx7_5alloc6string6StringReEBa_
FN:222,_RINvMs2_NtNtCs2XshHk0aCOj_9paperboat7backend9transportNtB6_13SessionConfig3newReB1e_EBa_
FN:259,_RINvMs3_NtNtCs2XshHk0aCOj_9paperboat7backend9transportNtB6_11SessionInfo3newNtNtCs9z9vVV76Yx7_5alloc6string6StringEBa_
FN:259,_RINvMs3_NtNtCs2XshHk0aCOj_9paperboat7backend9transportNtB6_11SessionInfo3newReEBa_
FN:425,_RINvMs5_NtNtCs2XshHk0aCOj_9paperboat7backend9transportNtB6_10ToolResult7failureReEBa_
FN:417,_RINvMs5_NtNtCs2XshHk0aCOj_9paperboat7backend9transportNtB6_10ToolResult7successNtNtCs9z9vVV76Yx7_5alloc6string6StringEBa_
FN:417,_RINvMs5_NtNtCs2XshHk0aCOj_9paperboat7backend9transportNtB6_10ToolResult7successReEBa_
FN:795,_RNvNtNtNtCs2XshHk0aCOj_9paperboat7backend9transport5testss_17test_session_info
FN:725,_RNvNtNtNtCs2XshHk0aCOj_9paperboat7backend9transport5testss_20test_agent_type_hash
FN:718,_RNvNtNtNtCs2XshHk0aCOj_9paperboat7backend9transport5testss_21test_agent_type_clone
FN:711,_RNvNtNtNtCs2XshHk0aCOj_9paperboat7backend9transport5testss_21test_agent_type_debug
FN:688,_RNvNtNtNtCs2XshHk0aCOj_9paperboat7backend9transport5testss_22test_agent_type_as_str
FN:695,_RNvNtNtNtCs2XshHk0aCOj_9paperboat7backend9transport5testss_23test_agent_type_display
FN:702,_RNvNtNtNtCs2XshHk0aCOj_9paperboat7backend9transport5testss_24test_agent_type_equality
FN:841,_RNvNtNtNtCs2XshHk0aCOj_9paperboat7backend9transport5testss_24test_tool_result_failure
FN:834,_RNvNtNtNtCs2XshHk0aCOj_9paperboat7backend9transport5testss_24test_tool_result_success
FN:673,_RNvNtNtNtCs2XshHk0aCOj_9paperboat7backend9transport5testss_24test_transport_kind_hash
FN:666,_RNvNtNtNtCs2XshHk0aCOj_9paperboat7backend9transport5testss_25test_transport_kind_clone
FN:658,_RNvNtNtNtCs2XshHk0aCOj_9paperboat7backend9transport5testss_25test_transport_kind_debug
FN:634,_RNvNtNtNtCs2XshHk0aCOj_9paperboat7backend9transport5testss_26test_transport_kind_as_str
FN:739,_RNvNtNtNtCs2XshHk0aCOj_9paperboat7backend9transport5testss_27test_session_config_builder
FN:822,_RNvNtNtNtCs2XshHk0aCOj_9paperboat7backend9transport5testss_27test_session_info_roundtrip
FN:646,_RNvNtNtNtCs2XshHk0aCOj_9paperboat7backend9transport5testss_27test_transport_kind_default
FN:640,_RNvNtNtNtCs2XshHk0aCOj_9paperboat7backend9transport5testss_27test_transport_kind_display
FN:769,_RNvNtNtNtCs2XshHk0aCOj_9paperboat7backend9transport5testss_28test_session_config_chaining
FN:855,_RNvNtNtNtCs2XshHk0aCOj_9paperboat7backend9transport5testss_28test_tool_result_from_string
FN:651,_RNvNtNtNtCs2XshHk0aCOj_9paperboat7backend9transport5testss_28test_transport_kind_equality
FN:801,_RNvNtNtNtCs2XshHk0aCOj_9paperboat7backend9transport5testss_29test_session_info_from_string
FN:882,_RNvNtNtNtCs2XshHk0aCOj_9paperboat7backend9transport5testss_30test_session_update_session_id
FN:862,_RNvNtNtNtCs2XshHk0aCOj_9paperboat7backend9transport5testss_30test_tool_result_serialization
FN:781,_RNvNtNtNtCs2XshHk0aCOj_9paperboat7backend9transport5testss_31test_session_config_from_string
FN:808,_RNvNtNtNtCs2XshHk0aCOj_9paperboat7backend9transport5testss_31test_session_info_serialization
FN:956,_RNvNtNtNtCs2XshHk0aCOj_9paperboat7backend9transport5testss_31test_session_update_is_tool_use
FN:763,_RNvNtNtNtCs2XshHk0aCOj_9paperboat7backend9transport5testss_32test_session_config_default_mode
FN:870,_RNvNtNtNtCs2XshHk0aCOj_9paperboat7backend9transport5testss_32test_tool_result_deserialization
FN:815,_RNvNtNtNtCs2XshHk0aCOj_9paperboat7backend9transport5testss_33test_session_info_deserialization
FN:940,_RNvNtNtNtCs2XshHk0aCOj_9paperboat7backend9transport5testss_33test_session_update_is_completion
FN:749,_RNvNtNtNtCs2XshHk0aCOj_9paperboat7backend9transport5testss_36test_session_config_with_mcp_servers
FN:1204,_RNvNtNtNtCs2XshHk0aCOj_9paperboat7backend9transport5testss_37test_session_update_raw_serialization
FN:1055,_RNvNtNtNtCs2XshHk0aCOj_9paperboat7backend9transport5testss_38test_session_update_text_serialization
FN:848,_RNvNtNtNtCs2XshHk0aCOj_9paperboat7backend9transport5testss_38test_tool_result_success_empty_content
FN:1215,_RNvNtNtNtCs2XshHk0aCOj_9paperboat7backend9transport5testss_39test_session_update_raw_deserialization
FN:1067,_RNvNtNtNtCs2XshHk0aCOj_9paperboat7backend9transport5testss_40test_session_update_text_deserialization
FN:1227,_RNvNtNtNtCs2XshHk0aCOj_9paperboat7backend9transport5testss_42test_session_update_roundtrip_all_variants
FN:1083,_RNvNtNtNtCs2XshHk0aCOj_9paperboat7backend9transport5testss_42test_session_update_tool_use_serialization
FN:897,_RNvNtNtNtCs2XshHk0aCOj_9paperboat7backend9transport5testss_43test_session_update_session_id_all_variants
FN:1162,_RNvNtNtNtCs2XshHk0aCOj_9paperboat7backend9transport5testss_44test_session_update_completion_serialization
FN:1012,_RNvNtNtNtCs2XshHk0aCOj_9paperboat7backend9transport5testss_44test_session_update_is_tool_use_all_variants
FN:1096,_RNvNtNtNtCs2XshHk0aCOj_9paperboat7backend9transport5testss_44test_session_update_tool_use_deserialization
FN:1116,_RNvNtNtNtCs2XshHk0aCOj_9paperboat7backend9transport5testss_45test_session_update_tool_result_serialization
FN:1192,_RNvNtNtNtCs2XshHk0aCOj_9paperboat7backend9transport5testss_46test_session_update_completion_default_success
FN:1174,_RNvNtNtNtCs2XshHk0aCOj_9paperboat7backend9transport5testss_46test_session_update_completion_deserialization
FN:973,_RNvNtNtNtCs2XshHk0aCOj_9paperboat7backend9transport5testss_46test_session_update_is_completion_all_variants
FN:1129,_RNvNtNtNtCs2XshHk0aCOj_9paperboat7backend9transport5testss_47test_session_update_tool_result_deserialization
FN:1149,_RNvNtNtNtCs2XshHk0aCOj_9paperboat7backend9transport5testss_50test_session_update_tool_result_default_is_success
FN:615,_RNvYNtNtNtCs2XshHk0aCOj_9paperboat7testing14mock_transport13MockTransportNtNtNtB8_7backend9transport14AgentTransport4kindB8_
FN:615,_RNvYNtNtNtNtCs2XshHk0aCOj_9paperboat7backend6cursor13acp_transport18CursorAcpTransportNtNtB8_9transport14AgentTransport4kindBa_
FN:118,_RNvMNtNtCs2XshHk0aCOj_9paperboat7backend9transportNtB2_13TransportKind6as_str
FN:172,_RNvMs0_NtNtCs2XshHk0aCOj_9paperboat7backend9transportNtB5_9AgentType6as_str
FN:233,_RNvMs2_NtNtCs2XshHk0aCOj_9paperboat7backend9transportNtB5_13SessionConfig16with_mcp_servers
FN:240,_RNvMs2_NtNtCs2XshHk0aCOj_9paperboat7backend9transportNtB5_13SessionConfig9with_mode
FN:371,_RNvMs4_NtNtCs2XshHk0aCOj_9paperboat7backend9transportNtB5_13SessionUpdate10session_id
FN:389,_RNvMs4_NtNtCs2XshHk0aCOj_9paperboat7backend9transportNtB5_13SessionUpdate11is_tool_use
FN:383,_RNvMs4_NtNtCs2XshHk0aCOj_9paperboat7backend9transportNtB5_13SessionUpdate13is_completion
FN:364,_RNvNtNtCs2XshHk0aCOj_9paperboat7backend9transport12default_true
FN:182,_RNvXs1_NtNtCs2XshHk0aCOj_9paperboat7backend9transportNtB5_9AgentTypeNtNtCskpTlHb4dJmc_4core3fmt7Display3fmt
FN:127,_RNvXs_NtNtCs2XshHk0aCOj_9paperboat7backend9transportNtB4_13TransportKindNtNtCskpTlHb4dJmc_4core3fmt7Display3fmt
FN:615,_RNvYNtNtNtNtCs2XshHk0aCOj_9paperboat7backend6auggie3acp18AuggieAcpTransportNtNtB8_9transport14AgentTransport4kindBa_
FN:601,_RNvYNtNtNtNtCs2XshHk0aCOj_9paperboat3app7session5tests16ChannelTransportNtNtNtBa_7backend9transport14AgentTransport20take_notification_rxBa_
FN:615,_RNvYNtNtNtNtCs2XshHk0aCOj_9paperboat3app7session5tests16ChannelTransportNtNtNtBa_7backend9transport14AgentTransport4kindBa_
FN:601,_RNvYNtNtNtNtCs2XshHk0aCOj_9paperboat3app13agent_spawner5tests18RecordingTransportNtNtNtBa_7backend9transport14AgentTransport20take_notification_rxBa_
FN:615,_RNvYNtNtNtNtCs2XshHk0aCOj_9paperboat3app13agent_spawner5tests18RecordingTransportNtNtNtBa_7backend9transport14AgentTransport4kindBa_
FN:582,_RNvYNtNtNtNtCs2XshHk0aCOj_9paperboat3app13agent_spawner5tests18RecordingTransportNtNtNtBa_7backend9transport14AgentTransport4recvBa_
FNDA:0,_RNvYNtNtNtNtCs2XshHk0aCOj_9paperboat3app16orchestrator_acp5tests14QueueTransportNtNtNtBa_7backend9transport14AgentTransport20take_notification_rxBa_
FNDA:0,_RNvYNtNtNtNtCs2XshHk0aCOj_9paperboat3app16orchestrator_acp5tests14QueueTransportNtNtNtBa_7backend9transport14AgentTransport4kindBa_
FNDA:5,_RINvMs2_NtNtCs2XshHk0aCOj_9paperboat7backend9transportNtB6_13SessionConfig3newNtNtCs9z9vVV76Yx7_5alloc6string6StringB1e_EBa_
FNDA:158,_RINvMs2_NtNtCs2XshHk0aCOj_9paperboat7backend9transportNtB6_13SessionConfig3newRNtNtCs9z9vVV76Yx7_5alloc6string6StringReEBa_
FNDA:21,_RINvMs2_NtNtCs2XshHk0aCOj_9paperboat7backend9transportNtB6_13SessionConfig3newReB1e_EBa_
FNDA:174,_RINvMs3_NtNtCs2XshHk0aCOj_9paperboat7backend9transportNtB6_11SessionInfo3newNtNtCs9z9vVV76Yx7_5alloc6string6StringEBa_
FNDA:5,_RINvMs3_NtNtCs2XshHk0aCOj_9paperboat7backend9transportNtB6_11SessionInfo3newReEBa_
FNDA:1,_RINvMs5_NtNtCs2XshHk0aCOj_9paperboat7backend9transportNtB6_10ToolResult7failureReEBa_
FNDA:1,_RINvMs5_NtNtCs2XshHk0aCOj_9paperboat7backend9transportNtB6_10ToolResult7successNtNtCs9z9vVV76Yx7_5alloc6string6StringEBa_
FNDA:6,_RINvMs5_NtNtCs2XshHk0aCOj_9paperboat7backend9transportNtB6_10ToolResult7successReEBa_
FNDA:1,_RNvNtNtNtCs2XshHk0aCOj_9paperboat7backend9transport5testss_17test_session_info
FNDA:1,_RNvNtNtNtCs2XshHk0aCOj_9paperboat7backend9transport5testss_20test_agent_type_hash
FNDA:1,_RNvNtNtNtCs2XshHk0aCOj_9paperboat7backend9transport5testss_21test_agent_type_clone
FNDA:1,_RNvNtNtNtCs2XshHk0aCOj_9paperboat7backend9transport5testss_21test_agent_type_debug
FNDA:1,_RNvNtNtNtCs2XshHk0aCOj_9paperboat7backend9transport5testss_22test_agent_type_as_str
FNDA:1,_RNvNtNtNtCs2XshHk0aCOj_9paperboat7backend9transport5testss_23test_agent_type_display
FNDA:1,_RNvNtNtNtCs2XshHk0aCOj_9paperboat7backend9transport5testss_24test_agent_type_equality
FNDA:1,_RNvNtNtNtCs2XshHk0aCOj_9paperboat7backend9transport5testss_24test_tool_result_failure
FNDA:1,_RNvNtNtNtCs2XshHk0aCOj_9paperboat7backend9transport5testss_24test_tool_result_success
FNDA:1,_RNvNtNtNtCs2XshHk0aCOj_9paperboat7backend9transport5testss_24test_transport_kind_hash
FNDA:1,_RNvNtNtNtCs2XshHk0aCOj_9paperboat7backend9transport5testss_25test_transport_kind_clone
FNDA:1,_RNvNtNtNtCs2XshHk0aCOj_9paperboat7backend9transport5testss_25test_transport_kind_debug
FNDA:1,_RNvNtNtNtCs2XshHk0aCOj_9paperboat7backend9transport5testss_26test_transport_kind_as_str
FNDA:1,_RNvNtNtNtCs2XshHk0aCOj_9paperboat7backend9transport5testss_27test_session_config_builder
FNDA:1,_RNvNtNtNtCs2XshHk0aCOj_9paperboat7backend9transport5testss_27test_session_info_roundtrip
FNDA:1,_RNvNtNtNtCs2XshHk0aCOj_9paperboat7backend9transport5testss_27test_transport_kind_default
FNDA:1,_RNvNtNtNtCs2XshHk0aCOj_9paperboat7backend9transport5testss_27test_transport_kind_display
FNDA:1,_RNvNtNtNtCs2XshHk0aCOj_9paperboat7backend9transport5testss_28test_session_config_chaining
FNDA:1,_RNvNtNtNtCs2XshHk0aCOj_9paperboat7backend9transport5testss_28test_tool_result_from_string
FNDA:1,_RNvNtNtNtCs2XshHk0aCOj_9paperboat7backend9transport5testss_28test_transport_kind_equality
FNDA:1,_RNvNtNtNtCs2XshHk0aCOj_9paperboat7backend9transport5testss_29test_session_info_from_string
FNDA:1,_RNvNtNtNtCs2XshHk0aCOj_9paperboat7backend9transport5testss_30test_session_update_session_id
FNDA:1,_RNvNtNtNtCs2XshHk0aCOj_9paperboat7backend9transport5testss_30test_tool_result_serialization
FNDA:1,_RNvNtNtNtCs2XshHk0aCOj_9paperboat7backend9transport5testss_31test_session_config_from_string
FNDA:1,_RNvNtNtNtCs2XshHk0aCOj_9paperboat7backend9transport5testss_31test_session_info_serialization
FNDA:1,_RNvNtNtNtCs2XshHk0aCOj_9paperboat7backend9transport5testss_31test_session_update_is_tool_use
FNDA:1,_RNvNtNtNtCs2XshHk0aCOj_9paperboat7backend9transport5testss_32test_session_config_default_mode
FNDA:1,_RNvNtNtNtCs2XshHk0aCOj_9paperboat7backend9transport5testss_32test_tool_result_deserialization
FNDA:1,_RNvNtNtNtCs2XshHk0aCOj_9paperboat7backend9transport5testss_33test_session_info_deserialization
FNDA:1,_RNvNtNtNtCs2XshHk0aCOj_9paperboat7backend9transport5testss_33test_session_update_is_completion
FNDA:1,_RNvNtNtNtCs2XshHk0aCOj_9paperboat7backend9transport5testss_36test_session_config_with_mcp_servers
FNDA:1,_RNvNtNtNtCs2XshHk0aCOj_9paperboat7backend9transport5testss_37test_session_update_raw_serialization
FNDA:1,_RNvNtNtNtCs2XshHk0aCOj_9paperboat7backend9transport5testss_38test_session_update_text_serialization
FNDA:1,_RNvNtNtNtCs2XshHk0aCOj_9paperboat7backend9transport5testss_38test_tool_result_success_empty_content
FNDA:1,_RNvNtNtNtCs2XshHk0aCOj_9paperboat7backend9transport5testss_39test_session_update_raw_deserialization
FNDA:1,_RNvNtNtNtCs2XshHk0aCOj_9paperboat7backend9transport5testss_40test_session_update_text_deserialization
FNDA:1,_RNvNtNtNtCs2XshHk0aCOj_9paperboat7backend9transport5testss_42test_session_update_roundtrip_all_variants
FNDA:1,_RNvNtNtNtCs2XshHk0aCOj_9paperboat7backend9transport5testss_42test_session_update_tool_use_serialization
FNDA:1,_RNvNtNtNtCs2XshHk0aCOj_9paperboat7backend9transport5testss_43test_session_update_session_id_all_variants
FNDA:1,_RNvNtNtNtCs2XshHk0aCOj_9paperboat7backend9transport5testss_44test_session_update_completion_serialization
FNDA:1,_RNvNtNtNtCs2XshHk0aCOj_9paperboat7backend9transport5testss_44test_session_update_is_tool_use_all_variants
FNDA:1,_RNvNtNtNtCs2XshHk0aCOj_9paperboat7backend9transport5testss_44test_session_update_tool_use_deserialization
FNDA:1,_RNvNtNtNtCs2XshHk0aCOj_9paperboat7backend9transport5testss_45test_session_update_tool_result_serialization
FNDA:1,_RNvNtNtNtCs2XshHk0aCOj_9paperboat7backend9transport5testss_46test_session_update_completion_default_success
FNDA:1,_RNvNtNtNtCs2XshHk0aCOj_9paperboat7backend9transport5testss_46test_session_update_completion_deserialization
FNDA:1,_RNvNtNtNtCs2XshHk0aCOj_9paperboat7backend9transport5testss_46test_session_update_is_completion_all_variants
FNDA:1,_RNvNtNtNtCs2XshHk0aCOj_9paperboat7backend9transport5testss_47test_session_update_tool_result_deserialization
FNDA:1,_RNvNtNtNtCs2XshHk0aCOj_9paperboat7backend9transport5testss_50test_session_update_tool_result_default_is_success
FNDA:158,_RNvYNtNtNtCs2XshHk0aCOj_9paperboat7testing14mock_transport13MockTransportNtNtNtB8_7backend9transport14AgentTransport4kindB8_
FNDA:3,_RNvYNtNtNtNtCs2XshHk0aCOj_9paperboat7backend6cursor13acp_transport18CursorAcpTransportNtNtB8_9transport14AgentTransport4kindBa_
FNDA:19,_RNvMNtNtCs2XshHk0aCOj_9paperboat7backend9transportNtB2_13TransportKind6as_str
FNDA:11,_RNvMs0_NtNtCs2XshHk0aCOj_9paperboat7backend9transportNtB5_9AgentType6as_str
FNDA:167,_RNvMs2_NtNtCs2XshHk0aCOj_9paperboat7backend9transportNtB5_13SessionConfig16with_mcp_servers
FNDA:171,_RNvMs2_NtNtCs2XshHk0aCOj_9paperboat7backend9transportNtB5_13SessionConfig9with_mode
FNDA:17,_RNvMs4_NtNtCs2XshHk0aCOj_9paperboat7backend9transportNtB5_13SessionUpdate10session_id
FNDA:7,_RNvMs4_NtNtCs2XshHk0aCOj_9paperboat7backend9transportNtB5_13SessionUpdate11is_tool_use
FNDA:7,_RNvMs4_NtNtCs2XshHk0aCOj_9paperboat7backend9transportNtB5_13SessionUpdate13is_completion
FNDA:2,_RNvNtNtCs2XshHk0aCOj_9paperboat7backend9transport12default_true
FNDA:3,_RNvXs1_NtNtCs2XshHk0aCOj_9paperboat7backend9transportNtB5_9AgentTypeNtNtCskpTlHb4dJmc_4core3fmt7Display3fmt
FNDA:5,_RNvXs_NtNtCs2XshHk0aCOj_9paperboat7backend9transportNtB4_13TransportKindNtNtCskpTlHb4dJmc_4core3fmt7Display3fmt
FNDA:0,_RNvYNtNtNtNtCs2XshHk0aCOj_9paperboat7backend6auggie3acp18AuggieAcpTransportNtNtB8_9transport14AgentTransport4kindBa_
FNDA:0,_RNvYNtNtNtNtCs2XshHk0aCOj_9paperboat3app7session5tests16ChannelTransportNtNtNtBa_7backend9transport14AgentTransport20take_notification_rxBa_
FNDA:0,_RNvYNtNtNtNtCs2XshHk0aCOj_9paperboat3app7session5tests16ChannelTransportNtNtNtBa_7backend9transport14AgentTransport4kindBa_
FNDA:0,_RNvYNtNtNtNtCs2XshHk0aCOj_9paperboat3app13agent_spawner5tests18RecordingTransportNtNtNtBa_7backend9transport14AgentTransport20take_notification_rxBa_
FNDA:0,_RNvYNtNtNtNtCs2XshHk0aCOj_9paperboat3app13agent_spawner5tests18RecordingTransportNtNtNtBa_7backend9transport14AgentTransport4kindBa_
FNDA:0,_RNvYNtNtNtNtCs2XshHk0aCOj_9paperboat3app13agent_spawner5tests18RecordingTransportNtNtNtBa_7backend9transport14AgentTransport4recvBa_
FNF:65
FNH:63
DA:118,19
DA:119,19
DA:120,9
DA:121,10
DA:123,19
DA:127,5
DA:128,5
DA:129,5
DA:172,11
DA:173,11
DA:174,3
DA:175,3
DA:176,5
DA:178,11
DA:182,3
DA:183,3
DA:184,3
DA:222,184
DA:223,184
DA:224,184
DA:225,184
DA:226,184
DA:227,184
DA:228,184
DA:229,184
DA:233,167
DA:234,167
DA:235,167
DA:236,167
DA:240,171
DA:241,171
DA:242,171
DA:243,171
DA:259,179
DA:260,179
DA:261,179
DA:262,179
DA:263,179
DA:364,2
DA:365,2
DA:366,2
DA:371,17
DA:372,17
DA:373,4
DA:374,3
DA:375,3
DA:376,13
DA:377,4
DA:379,17
DA:383,7
DA:384,7
DA:385,7
DA:389,7
DA:390,7
DA:391,7
DA:417,7
DA:418,7
DA:419,7
DA:420,7
DA:421,7
DA:422,7
DA:425,1
DA:426,1
DA:427,1
DA:428,1
DA:429,1
DA:430,1
DA:582,0
DA:586,0
DA:601,0
DA:602,0
DA:603,0
DA:615,161
DA:616,161
DA:617,161
DA:634,1
DA:635,1
DA:636,1
DA:637,1
DA:640,1
DA:641,1
DA:642,1
DA:643,1
DA:646,1
DA:647,1
DA:648,1
DA:651,1
DA:652,1
DA:653,1
DA:654,1
DA:655,1
DA:658,1
DA:659,1
DA:660,1
DA:661,1
DA:662,1
DA:663,1
DA:666,1
DA:667,1
DA:668,1
DA:669,1
DA:670,1
DA:673,1
DA:675,1
DA:676,1
DA:677,1
DA:678,1
DA:679,1
DA:680,1
DA:681,1
DA:688,1
DA:689,1
DA:690,1
DA:691,1
DA:692,1
DA:695,1
DA:696,1
DA:697,1
DA:698,1
DA:699,1
DA:702,1
DA:703,1
DA:704,1
DA:705,1
DA:706,1
DA:707,1
DA:708,1
DA:711,1
DA:712,1
DA:713,1
DA:714,1
DA:715,1
DA:718,1
DA:719,1
DA:720,1
DA:721,1
DA:722,1
DA:725,1
DA:727,1
DA:728,1
DA:729,1
DA:730,1
DA:731,1
DA:732,1
DA:739,1
DA:740,1
DA:742,1
DA:743,1
DA:744,1
DA:745,1
DA:746,1
DA:749,1
DA:750,1
DA:751,1
DA:752,1
DA:755,1
DA:757,1
DA:758,1
DA:759,1
DA:760,1
DA:763,1
DA:764,1
DA:765,1
DA:766,1
DA:769,1
DA:770,1
DA:771,1
DA:772,1
DA:774,1
DA:775,1
DA:776,1
DA:777,1
DA:778,1
DA:781,1
DA:782,1
DA:783,1
DA:784,1
DA:786,1
DA:787,1
DA:788,1
DA:795,1
DA:796,1
DA:797,1
DA:798,1
DA:801,1
DA:802,1
DA:803,1
DA:804,1
DA:805,1
DA:808,1
DA:809,1
DA:810,1
DA:811,1
DA:812,1
DA:815,1
DA:816,1
DA:817,1
DA:818,1
DA:819,1
DA:822,1
DA:823,1
DA:824,1
DA:825,1
DA:826,1
DA:827,1
DA:834,1
DA:835,1
DA:836,1
DA:837,1
DA:838,1
DA:841,1
DA:842,1
DA:843,1
DA:844,1
DA:845,1
DA:848,1
DA:849,1
DA:850,1
DA:851,1
DA:852,1
DA:855,1
DA:856,1
DA:857,1
DA:858,1
DA:859,1
DA:862,1
DA:863,1
DA:864,1
DA:865,1
DA:866,1
DA:867,1
DA:870,1
DA:871,1
DA:872,1
DA:873,1
DA:874,1
DA:875,1
DA:882,1
DA:883,1
DA:884,1
DA:885,1
DA:886,1
DA:887,1
DA:889,1
DA:890,1
DA:891,1
DA:892,1
DA:893,1
DA:894,1
DA:897,1
DA:899,1
DA:900,1
DA:901,1
DA:902,1
DA:903,1
DA:906,1
DA:907,1
DA:908,1
DA:909,1
DA:910,1
DA:911,1
DA:912,1
DA:915,1
DA:916,1
DA:917,1
DA:918,1
DA:919,1
DA:920,1
DA:921,1
DA:924,1
DA:925,1
DA:926,1
DA:927,1
DA:928,1
DA:929,1
DA:932,1
DA:933,1
DA:934,1
DA:935,1
DA:936,1
DA:937,1
DA:940,1
DA:941,1
DA:942,1
DA:943,1
DA:944,1
DA:945,1
DA:946,1
DA:948,1
DA:949,1
DA:950,1
DA:951,1
DA:952,1
DA:953,1
DA:956,1
DA:957,1
DA:958,1
DA:959,1
DA:960,1
DA:961,1
DA:962,1
DA:963,1
DA:965,1
DA:966,1
DA:967,1
DA:968,1
DA:969,1
DA:970,1
DA:973,1
DA:975,1
DA:976,1
DA:977,1
DA:978,1
DA:979,1
DA:980,1
DA:982,1
DA:983,1
DA:984,1
DA:985,1
DA:986,1
DA:988,1
DA:989,1
DA:990,1
DA:991,1
DA:992,1
DA:993,1
DA:994,1
DA:996,1
DA:997,1
DA:998,1
DA:999,1
DA:1000,1
DA:1001,1
DA:1002,1
DA:1004,1
DA:1005,1
DA:1006,1
DA:1007,1
DA:1008,1
DA:1009,1
DA:1012,1
DA:1014,1
DA:1015,1
DA:1016,1
DA:1017,1
DA:1018,1
DA:1019,1
DA:1020,1
DA:1022,1
DA:1023,1
DA:1024,1
DA:1025,1
DA:1026,1
DA:1028,1
DA:1029,1
DA:1030,1
DA:1031,1
DA:1032,1
DA:1033,1
DA:1035,1
DA:1036,1
DA:1037,1
DA:1038,1
DA:1039,1
DA:1040,1
DA:1041,1
DA:1043,1
DA:1044,1
DA:1045,1
DA:1046,1
DA:1047,1
DA:1048,1
DA:1055,1
DA:1056,1
DA:1057,1
DA:1058,1
DA:1059,1
DA:1060,1
DA:1061,1
DA:1062,1
DA:1063,1
DA:1064,1
DA:1067,1
DA:1068,1
DA:1069,1
DA:1071,1
DA:1072,1
DA:1073,1
DA:1075,1
DA:1076,1
DA:1078,0
DA:1080,1
DA:1083,1
DA:1084,1
DA:1085,1
DA:1086,1
DA:1087,1
DA:1088,1
DA:1089,1
DA:1090,1
DA:1091,1
DA:1092,1
DA:1093,1
DA:1096,1
DA:1097,1
DA:1098,1
DA:1100,1
DA:1101,1
DA:1102,1
DA:1103,1
DA:1104,1
DA:1106,1
DA:1107,1
DA:1108,1
DA:1109,1
DA:1111,0
DA:1113,1
DA:1116,1
DA:1117,1
DA:1118,1
DA:1119,1
DA:1120,1
DA:1121,1
DA:1122,1
DA:1123,1
DA:1124,1
DA:1125,1
DA:1126,1
DA:1129,1
DA:1130,1
DA:1131,1
DA:1133,1
DA:1134,1
DA:1135,1
DA:1136,1
DA:1137,1
DA:1139,1
DA:1140,1
DA:1141,1
DA:1142,1
DA:1144,0
DA:1146,1
DA:1149,1
DA:1151,1
DA:1152,1
DA:1153,1
DA:1154,1
DA:1155,1
DA:1157,0
DA:1159,1
DA:1162,1
DA:1163,1
DA:1164,1
DA:1165,1
DA:1166,1
DA:1167,1
DA:1168,1
DA:1169,1
DA:1170,1
DA:1171,1
DA:1174,1
DA:1175,1
DA:1176,1
DA:1178,1
DA:1179,1
DA:1180,1
DA:1181,1
DA:1183,1
DA:1184,1
DA:1185,1
DA:1187,0
DA:1189,1
DA:1192,1
DA:1194,1
DA:1195,1
DA:1196,1
DA:1197,1
DA:1199,0
DA:1201,1
DA:1204,1
DA:1205,1
DA:1206,1
DA:1207,1
DA:1208,1
DA:1209,1
DA:1210,1
DA:1211,1
DA:1212,1
DA:1215,1
DA:1216,1
DA:1217,1
DA:1218,1
DA:1219,1
DA:1220,1
DA:1222,0
DA:1224,1
DA:1227,1
DA:1228,1
DA:1229,1
DA:1230,1
DA:1231,1
DA:1232,1
DA:1233,1
DA:1234,1
DA:1235,1
DA:1236,1
DA:1237,1
DA:1238,1
DA:1239,1
DA:1240,1
DA:1241,1
DA:1242,1
DA:1243,1
DA:1244,1
DA:1245,1
DA:1246,1
DA:1247,1
DA:1248,1
DA:1249,1
DA:1250,1
DA:1251,1
DA:1252,1
DA:1253,1
DA:1256,5
DA:1257,5
DA:1258,5
DA:1261,5
DA:1263,1
BRF:0
BRH:0
LF:528
LH:516
end_of_record
SF:/Users/dbmrq/Documents/Programação/Misc/paperboat/src/config/loader.rs
FN:136,_RNvNtNtCs2XshHk0aCOj_9paperboat6config6loader15user_config_dir
FN:178,_RNvNtNtCs2XshHk0aCOj_9paperboat6config6loader18load_agent_configs
FN:142,_RNvNtNtCs2XshHk0aCOj_9paperboat6config6loader18project_config_dir
FN:422,_RNvNtNtCs2XshHk0aCOj_9paperboat6config6loader27get_explicit_backend_config
FN:1217,_RNvMNtNtNtCs2XshHk0aCOj_9paperboat6config6loader5testsNtB2_8EnvGuard3set
FN:1223,_RNvMNtNtNtCs2XshHk0aCOj_9paperboat6config6loader5testsNtB2_8EnvGuard6remove
FN:654,_RNvNtNtNtCs2XshHk0aCOj_9paperboat6config6loader5testss_27test_validate_invalid_model
FN:554,_RNvNtNtNtCs2XshHk0aCOj_9paperboat6config6loader5testss_27test_validate_known_aliases
FN:956,_RNvNtNtNtCs2XshHk0aCOj_9paperboat6config6loader5testss_28test_build_model_config_auto
FN:603,_RNvNtNtNtCs2XshHk0aCOj_9paperboat6config6loader5testss_28test_validate_fallback_chain
FN:594,_RNvNtNtNtCs2XshHk0aCOj_9paperboat6config6loader5testss_29test_validate_with_whitespace
FN:530,_RNvNtNtNtCs2XshHk0aCOj_9paperboat6config6loader5testss_30test_agent_file_config_default
FN:578,_RNvNtNtNtCs2XshHk0aCOj_9paperboat6config6loader5testss_30test_validate_case_insensitive
FN:638,_RNvNtNtNtCs2XshHk0aCOj_9paperboat6config6loader5testss_30test_validate_versioned_models
FN:847,_RNvNtNtNtCs2XshHk0aCOj_9paperboat6config6loader5testss_31test_build_model_config_default
FN:694,_RNvNtNtNtCs2XshHk0aCOj_9paperboat6config6loader5testss_31test_validate_empty_model_is_ok
FN:995,_RNvNtNtNtCs2XshHk0aCOj_9paperboat6config6loader5testss_32test_file_backend_config_default
FN:982,_RNvNtNtNtCs2XshHk0aCOj_9paperboat6config6loader5testss_33test_loaded_agent_configs_default
FN:834,_RNvNtNtNtCs2XshHk0aCOj_9paperboat6config6loader5testss_34test_merge_agent_config_both_empty
FN:676,_RNvNtNtNtCs2XshHk0aCOj_9paperboat6config6loader5testss_34test_validate_typo_with_suggestion
FN:755,_RNvNtNtNtCs2XshHk0aCOj_9paperboat6config6loader5testss_35test_load_agent_config_invalid_toml
FN:729,_RNvNtNtNtCs2XshHk0aCOj_9paperboat6config6loader5testss_36test_load_agent_config_existing_file
FN:740,_RNvNtNtNtCs2XshHk0aCOj_9paperboat6config6loader5testss_36test_load_agent_config_with_comments
FN:701,_RNvNtNtNtCs2XshHk0aCOj_9paperboat6config6loader5testss_37test_validate_with_path_includes_file
FN:536,_RNvNtNtNtCs2XshHk0aCOj_9paperboat6config6loader5testss_38test_agent_file_config_deserialization
FN:1026,_RNvNtNtNtCs2XshHk0aCOj_9paperboat6config6loader5testss_39test_file_backend_config_with_transport
FN:720,_RNvNtNtNtCs2XshHk0aCOj_9paperboat6config6loader5testss_39test_load_agent_config_nonexistent_file
FN:914,_RNvNtNtNtCs2XshHk0aCOj_9paperboat6config6loader5testss_40test_build_model_config_partial_settings
FN:1001,_RNvNtNtNtCs2XshHk0aCOj_9paperboat6config6loader5testss_40test_file_backend_config_deserialization
FN:862,_RNvNtNtNtCs2XshHk0aCOj_9paperboat6config6loader5testss_42test_build_model_config_with_model_strings
FN:766,_RNvNtNtNtCs2XshHk0aCOj_9paperboat6config6loader5testss_42test_load_agent_config_invalid_model_alias
FN:1135,_RNvNtNtNtCs2XshHk0aCOj_9paperboat6config6loader5testss_42test_load_backend_from_config_empty_string
FN:1168,_RNvNtNtNtCs2XshHk0aCOj_9paperboat6config6loader5testss_42test_load_backend_from_config_invalid_toml
FN:1047,_RNvNtNtNtCs2XshHk0aCOj_9paperboat6config6loader5testss_42test_load_backend_from_config_valid_auggie
FN:1059,_RNvNtNtNtCs2XshHk0aCOj_9paperboat6config6loader5testss_42test_load_backend_from_config_valid_cursor
FN:891,_RNvNtNtNtCs2XshHk0aCOj_9paperboat6config6loader5testss_43test_build_model_config_with_fallback_chain
FN:1190,_RNvNtNtNtCs2XshHk0aCOj_9paperboat6config6loader5testss_43test_load_backend_from_config_augment_alias
FN:543,_RNvNtNtNtCs2XshHk0aCOj_9paperboat6config6loader5testss_44test_agent_file_config_deserialization_empty
FN:938,_RNvNtNtNtCs2XshHk0aCOj_9paperboat6config6loader5testss_44test_build_model_config_invalid_model_string
FN:1157,_RNvNtNtNtCs2XshHk0aCOj_9paperboat6config6loader5testss_44test_load_backend_from_config_no_backend_key
FN:1101,_RNvNtNtNtCs2XshHk0aCOj_9paperboat6config6loader5testss_45test_load_backend_from_config_invalid_backend
FN:1146,_RNvNtNtNtCs2XshHk0aCOj_9paperboat6config6loader5testss_45test_load_backend_from_config_whitespace_only
FN:1008,_RNvNtNtNtCs2XshHk0aCOj_9paperboat6config6loader5testss_46test_file_backend_config_deserialization_empty
FN:1089,_RNvNtNtNtCs2XshHk0aCOj_9paperboat6config6loader5testss_46test_load_backend_from_config_case_insensitive
FN:1038,_RNvNtNtNtCs2XshHk0aCOj_9paperboat6config6loader5testss_46test_load_backend_from_config_nonexistent_file
FN:1112,_RNvNtNtNtCs2XshHk0aCOj_9paperboat6config6loader5testss_47test_load_backend_from_config_invalid_transport
FN:807,_RNvNtNtNtCs2XshHk0aCOj_9paperboat6config6loader5testss_47test_merge_agent_config_override_takes_priority
FN:626,_RNvNtNtNtCs2XshHk0aCOj_9paperboat6config6loader5testss_47test_validate_fallback_chain_with_invalid_model
FN:785,_RNvNtNtNtCs2XshHk0aCOj_9paperboat6config6loader5testss_49test_load_agent_config_typo_model_with_suggestion
FN:1071,_RNvNtNtNtCs2XshHk0aCOj_9paperboat6config6loader5testss_51test_load_backend_from_config_cursor_with_transport
FN:1123,_RNvNtNtNtCs2XshHk0aCOj_9paperboat6config6loader5testss_51test_load_backend_from_config_unsupported_transport
FN:822,_RNvNtNtNtCs2XshHk0aCOj_9paperboat6config6loader5testss_53test_merge_agent_config_base_used_when_override_empty
FN:1179,_RNvNtNtNtCs2XshHk0aCOj_9paperboat6config6loader5testss_54test_load_backend_from_config_with_whitespace_in_value
FN:1015,_RNvNtNtNtCs2XshHk0aCOj_9paperboat6config6loader5testss_58test_file_backend_config_deserialization_with_other_fields
FN:76,_RNCNvMNtNtCs2XshHk0aCOj_9paperboat6config6loaderNtB4_15AgentFileConfig14validate_model0B8_
FN:102,_RNCNvMNtNtCs2XshHk0aCOj_9paperboat6config6loaderNtB4_15AgentFileConfig21validate_single_model0B8_
FN:155,_RNCNvNtNtCs2XshHk0aCOj_9paperboat6config6loader17load_agent_config0B7_
FN:163,_RNCNvNtNtCs2XshHk0aCOj_9paperboat6config6loader17load_agent_configs0_0B7_
FN:158,_RNCNvNtNtCs2XshHk0aCOj_9paperboat6config6loader17load_agent_configs_0B7_
FN:215,_RNCNvNtNtCs2XshHk0aCOj_9paperboat6config6loader18build_model_config0B7_
FN:225,_RNCNvNtNtCs2XshHk0aCOj_9paperboat6config6loader18build_model_configs0_0B7_
FN:229,_RNCNvNtNtCs2XshHk0aCOj_9paperboat6config6loader18build_model_configs1_0B7_
FN:235,_RNCNvNtNtCs2XshHk0aCOj_9paperboat6config6loader18build_model_configs2_0B7_
FN:239,_RNCNvNtNtCs2XshHk0aCOj_9paperboat6config6loader18build_model_configs3_0B7_
FN:219,_RNCNvNtNtCs2XshHk0aCOj_9paperboat6config6loader18build_model_configs_0B7_
FN:1331,_RNCNvNtNtNtCs2XshHk0aCOj_9paperboat6config6loader5testss_43test_load_backend_config_env_var_cursor_acp0B9_
FN:1282,_RNCNvNtNtNtCs2XshHk0aCOj_9paperboat6config6loader5testss_44test_load_backend_kind_empty_env_var_ignored0B9_
FN:1252,_RNCNvNtNtNtCs2XshHk0aCOj_9paperboat6config6loader5testss_44test_load_backend_kind_env_var_augment_alias0B9_
FN:1241,_RNCNvNtNtNtCs2XshHk0aCOj_9paperboat6config6loader5testss_45test_load_backend_kind_env_var_takes_priority0B9_
FN:1319,_RNCNvNtNtNtCs2XshHk0aCOj_9paperboat6config6loader5testss_47test_load_backend_config_env_var_with_transport0B9_
FN:1261,_RNCNvNtNtNtCs2XshHk0aCOj_9paperboat6config6loader5testss_47test_load_backend_kind_env_var_case_insensitive0B9_
FN:1270,_RNCNvNtNtNtCs2XshHk0aCOj_9paperboat6config6loader5testss_49test_load_backend_kind_invalid_env_var_falls_back0B9_
FN:1292,_RNCNvNtNtNtCs2XshHk0aCOj_9paperboat6config6loader5testss_49test_load_backend_kind_whitespace_env_var_ignored0B9_
FN:1343,_RNCNvNtNtNtCs2XshHk0aCOj_9paperboat6config6loader5testss_50test_load_backend_config_env_var_default_transport0B9_
FN:1302,_RNCNvNtNtNtCs2XshHk0aCOj_9paperboat6config6loader5testss_52test_load_backend_kind_default_without_env_or_config0B9_
FN:1367,_RNCNvNtNtNtCs2XshHk0aCOj_9paperboat6config6loader5testss_53test_load_backend_config_invalid_transport_falls_back0B9_
FN:1355,_RNCNvNtNtNtCs2XshHk0aCOj_9paperboat6config6loader5testss_57test_load_backend_config_env_var_auggie_default_transport0B9_
FN:1379,_RNCNvNtNtNtCs2XshHk0aCOj_9paperboat6config6loader5testss_57test_load_backend_config_unsupported_transport_falls_back0B9_
FN:1231,_RNvXs_NtNtNtCs2XshHk0aCOj_9paperboat6config6loader5testsNtB4_8EnvGuardNtNtNtCskpTlHb4dJmc_4core3ops4drop4Drop4drop
FN:74,_RNvMNtNtCs2XshHk0aCOj_9paperboat6config6loaderNtB2_15AgentFileConfig14validate_model
FN:64,_RNvMNtNtCs2XshHk0aCOj_9paperboat6config6loaderNtB2_15AgentFileConfig18validate_with_path
FN:86,_RNvMNtNtCs2XshHk0aCOj_9paperboat6config6loaderNtB2_15AgentFileConfig21validate_single_model
FN:51,_RNvMNtNtCs2XshHk0aCOj_9paperboat6config6loaderNtB2_15AgentFileConfig8validate
FN:149,_RNvNtNtCs2XshHk0aCOj_9paperboat6config6loader17load_agent_config
FN:399,_RNvNtNtCs2XshHk0aCOj_9paperboat6config6loader17load_backend_kind
FN:250,_RNvNtNtCs2XshHk0aCOj_9paperboat6config6loader17parse_model_chain
FN:206,_RNvNtNtCs2XshHk0aCOj_9paperboat6config6loader18build_model_config
FN:169,_RNvNtNtCs2XshHk0aCOj_9paperboat6config6loader18merge_agent_config
FN:257,_RNvNtNtCs2XshHk0aCOj_9paperboat6config6loader18parse_effort_level
FN:331,_RNvNtNtCs2XshHk0aCOj_9paperboat6config6loader19load_backend_config
FN:471,_RNvNtNtCs2XshHk0aCOj_9paperboat6config6loader24load_backend_from_config
FN:448,_RNvNtNtCs2XshHk0aCOj_9paperboat6config6loader24user_backend_config_path
FN:454,_RNvNtNtCs2XshHk0aCOj_9paperboat6config6loader27project_backend_config_path
FNDA:0,_RNvNtNtCs2XshHk0aCOj_9paperboat6config6loader15user_config_dir
FNDA:0,_RNvNtNtCs2XshHk0aCOj_9paperboat6config6loader18load_agent_configs
FNDA:0,_RNvNtNtCs2XshHk0aCOj_9paperboat6config6loader18project_config_dir
FNDA:0,_RNvNtNtCs2XshHk0aCOj_9paperboat6config6loader27get_explicit_backend_config
FNDA:12,_RNvMNtNtNtCs2XshHk0aCOj_9paperboat6config6loader5testsNtB2_8EnvGuard3set
FNDA:1,_RNvMNtNtNtCs2XshHk0aCOj_9paperboat6config6loader5testsNtB2_8EnvGuard6remove
FNDA:1,_RNvNtNtNtCs2XshHk0aCOj_9paperboat6config6loader5testss_27test_validate_invalid_model
FNDA:1,_RNvNtNtNtCs2XshHk0aCOj_9paperboat6config6loader5testss_27test_validate_known_aliases
FNDA:1,_RNvNtNtNtCs2XshHk0aCOj_9paperboat6config6loader5testss_28test_build_model_config_auto
FNDA:1,_RNvNtNtNtCs2XshHk0aCOj_9paperboat6config6loader5testss_28test_validate_fallback_chain
FNDA:1,_RNvNtNtNtCs2XshHk0aCOj_9paperboat6config6loader5testss_29test_validate_with_whitespace
FNDA:1,_RNvNtNtNtCs2XshHk0aCOj_9paperboat6config6loader5testss_30test_agent_file_config_default
FNDA:1,_RNvNtNtNtCs2XshHk0aCOj_9paperboat6config6loader5testss_30test_validate_case_insensitive
FNDA:1,_RNvNtNtNtCs2XshHk0aCOj_9paperboat6config6loader5testss_30test_validate_versioned_models
FNDA:1,_RNvNtNtNtCs2XshHk0aCOj_9paperboat6config6loader5testss_31test_build_model_config_default
FNDA:1,_RNvNtNtNtCs2XshHk0aCOj_9paperboat6config6loader5testss_31test_validate_empty_model_is_ok
FNDA:1,_RNvNtNtNtCs2XshHk0aCOj_9paperboat6config6loader5testss_32test_file_backend_config_default
FNDA:1,_RNvNtNtNtCs2XshHk0aCOj_9paperboat6config6loader5testss_33test_loaded_agent_configs_default
FNDA:1,_RNvNtNtNtCs2XshHk0aCOj_9paperboat6config6loader5testss_34test_merge_agent_config_both_empty
FNDA:1,_RNvNtNtNtCs2XshHk0aCOj_9paperboat6config6loader5testss_34test_validate_typo_with_suggestion
FNDA:1,_RNvNtNtNtCs2XshHk0aCOj_9paperboat6config6loader5testss_35test_load_agent_config_invalid_toml
FNDA:1,_RNvNtNtNtCs2XshHk0aCOj_9paperboat6config6loader5testss_36test_load_agent_config_existing_file
FNDA:1,_RNvNtNtNtCs2XshHk0aCOj_9paperboat6config6loader5testss_36test_load_agent_config_with_comments
FNDA:1,_RNvNtNtNtCs2XshHk0aCOj_9paperboat6config6loader5testss_37test_validate_with_path_includes_file
FNDA:1,_RNvNtNtNtCs2XshHk0aCOj_9paperboat6config6loader5testss_38test_agent_file_config_deserialization
FNDA:1,_RNvNtNtNtCs2XshHk0aCOj_9paperboat6config6loader5testss_39test_file_backend_config_with_transport
FNDA:1,_RNvNtNtNtCs2XshHk0aCOj_9paperboat6config6loader5testss_39test_load_agent_config_nonexistent_file
FNDA:1,_RNvNtNtNtCs2XshHk0aCOj_9paperboat6config6loader5testss_40test_build_model_config_partial_settings
FNDA:1,_RNvNtNtNtCs2XshHk0aCOj_9paperboat6config6loader5testss_40test_file_backend_config_deserialization
FNDA:1,_RNvNtNtNtCs2XshHk0aCOj_9paperboat6config6loader5testss_42test_build_model_config_with_model_strings
FNDA:1,_RNvNtNtNtCs2XshHk0aCOj_9paperboat6config6loader5testss_42test_load_agent_config_invalid_model_alias
FNDA:1,_RNvNtNtNtCs2XshHk0aCOj_9paperboat6config6loader5testss_42test_load_backend_from_config_empty_string
FNDA:1,_RNvNtNtNtCs2XshHk0aCOj_9paperboat6config6loader5testss_42test_load_backend_from_config_invalid_toml
FNDA:1,_RNvNtNtNtCs2XshHk0aCOj_9paperboat6config6loader5testss_42test_load_backend_from_config_valid_auggie
FNDA:1,_RNvNtNtNtCs2XshHk0aCOj_9paperboat6config6loader5testss_42test_load_backend_from_config_valid_cursor
FNDA:1,_RNvNtNtNtCs2XshHk0aCOj_9paperboat6config6loader5testss_43test_build_model_config_with_fallback_chain
FNDA:1,_RNvNtNtNtCs2XshHk0aCOj_9paperboat6config6loader5testss_43test_load_backend_from_config_augment_alias
FNDA:1,_RNvNtNtNtCs2XshHk0aCOj_9paperboat6config6loader5testss_44test_agent_file_config_deserialization_empty
FNDA:1,_RNvNtNtNtCs2XshHk0aCOj_9paperboat6config6loader5testss_44test_build_model_config_invalid_model_string
FNDA:1,_RNvNtNtNtCs2XshHk0aCOj_9paperboat6config6loader5testss_44test_load_backend_from_config_no_backend_key
FNDA:1,_RNvNtNtNtCs2XshHk0aCOj_9paperboat6config6loader5testss_45test_load_backend_from_config_invalid_backend
FNDA:1,_RNvNtNtNtCs2XshHk0aCOj_9paperboat6config6loader5testss_45test_load_backend_from_config_whitespace_only
FNDA:1,_RNvNtNtNtCs2XshHk0aCOj_9paperboat6config6loader5testss_46test_file_backend_config_deserialization_empty
FNDA:1,_RNvNtNtNtCs2XshHk0aCOj_9paperboat6config6loader5testss_46test_load_backend_from_config_case_insensitive
FNDA:1,_RNvNtNtNtCs2XshHk0aCOj_9paperboat6config6loader5testss_46test_load_backend_from_config_nonexistent_file
FNDA:1,_RNvNtNtNtCs2XshHk0aCOj_9paperboat6config6loader5testss_47test_load_backend_from_config_invalid_transport
FNDA:1,_RNvNtNtNtCs2XshHk0aCOj_9paperboat6config6loader5testss_47test_merge_agent_config_override_takes_priority
FNDA:1,_RNvNtNtNtCs2XshHk0aCOj_9paperboat6config6loader5testss_47test_validate_fallback_chain_with_invalid_model
FNDA:1,_RNvNtNtNtCs2XshHk0aCOj_9paperboat6config6loader5testss_49test_load_agent_config_typo_model_with_suggestion
FNDA:1,_RNvNtNtNtCs2XshHk0aCOj_9paperboat6config6loader5testss_51test_load_backend_from_config_cursor_with_transport
FNDA:1,_RNvNtNtNtCs2XshHk0aCOj_9paperboat6config6loader5testss_51test_load_backend_from_config_unsupported_transport
FNDA:1,_RNvNtNtNtCs2XshHk0aCOj_9paperboat6config6loader5testss_53test_merge_agent_config_base_used_when_override_empty
FNDA:1,_RNvNtNtNtCs2XshHk0aCOj_9paperboat6config6loader5testss_54test_load_backend_from_config_with_whitespace_in_value
FNDA:1,_RNvNtNtNtCs2XshHk0aCOj_9paperboat6config6loader5testss_58test_file_backend_config_deserialization_with_other_fields
FNDA:30,_RNCNvMNtNtCs2XshHk0aCOj_9paperboat6config6loaderNtB4_15AgentFileConfig14validate_model0B8_
FNDA:51,_RNCNvMNtNtCs2XshHk0aCOj_9paperboat6config6loaderNtB4_15AgentFileConfig21validate_single_model0B8_
FNDA:0,_RNCNvNtNtCs2XshHk0aCOj_9paperboat6config6loader17load_agent_config0B7_
FNDA:2,_RNCNvNtNtCs2XshHk0aCOj_9paperboat6config6loader17load_agent_configs0_0B7_
FNDA:1,_RNCNvNtNtCs2XshHk0aCOj_9paperboat6config6loader17load_agent_configs_0B7_
FNDA:1,_RNCNvNtNtCs2XshHk0aCOj_9paperboat6config6loader18build_model_config0B7_
FNDA:0,_RNCNvNtNtCs2XshHk0aCOj_9paperboat6config6loader18build_model_configs0_0B7_
FNDA:0,_RNCNvNtNtCs2XshHk0aCOj_9paperboat6config6loader18build_model_configs1_0B7_
FNDA:0,_RNCNvNtNtCs2XshHk0aCOj_9paperboat6config6loader18build_model_configs2_0B7_
FNDA:0,_RNCNvNtNtCs2XshHk0aCOj_9paperboat6config6loader18build_model_configs3_0B7_
FNDA:0,_RNCNvNtNtCs2XshHk0aCOj_9paperboat6config6loader18build_model_configs_0B7_
FNDA:1,_RNCNvNtNtNtCs2XshHk0aCOj_9paperboat6config6loader5testss_43test_load_backend_config_env_var_cursor_acp0B9_
FNDA:1,_RNCNvNtNtNtCs2XshHk0aCOj_9paperboat6config6loader5testss_44test_load_backend_kind_empty_env_var_ignored0B9_
FNDA:1,_RNCNvNtNtNtCs2XshHk0aCOj_9paperboat6config6loader5testss_44test_load_backend_kind_env_var_augment_alias0B9_
FNDA:1,_RNCNvNtNtNtCs2XshHk0aCOj_9paperboat6config6loader5testss_45test_load_backend_kind_env_var_takes_priority0B9_
FNDA:1,_RNCNvNtNtNtCs2XshHk0aCOj_9paperboat6config6loader5testss_47test_load_backend_config_env_var_with_transport0B9_
FNDA:1,_RNCNvNtNtNtCs2XshHk0aCOj_9paperboat6config6loader5testss_47test_load_backend_kind_env_var_case_insensitive0B9_
FNDA:1,_RNCNvNtNtNtCs2XshHk0aCOj_9paperboat6config6loader5testss_49test_load_backend_kind_invalid_env_var_falls_back0B9_
FNDA:1,_RNCNvNtNtNtCs2XshHk0aCOj_9paperboat6config6loader5testss_49test_load_backend_kind_whitespace_env_var_ignored0B9_
FNDA:1,_RNCNvNtNtNtCs2XshHk0aCOj_9paperboat6config6loader5testss_50test_load_backend_config_env_var_default_transport0B9_
FNDA:1,_RNCNvNtNtNtCs2XshHk0aCOj_9paperboat6config6loader5testss_52test_load_backend_kind_default_without_env_or_config0B9_
FNDA:1,_RNCNvNtNtNtCs2XshHk0aCOj_9paperboat6config6loader5testss_53test_load_backend_config_invalid_transport_falls_back0B9_
FNDA:1,_RNCNvNtNtNtCs2XshHk0aCOj_9paperboat6config6loader5testss_57test_load_backend_config_env_var_auggie_default_transport0B9_
FNDA:1,_RNCNvNtNtNtCs2XshHk0aCOj_9paperboat6config6loader5testss_57test_load_backend_config_unsupported_transport_falls_back0B9_
FNDA:13,_RNvXs_NtNtNtCs2XshHk0aCOj_9paperboat6config6loader5testsNtB4_8EnvGuardNtNtNtCskpTlHb4dJmc_4core3ops4drop4Drop4drop
FNDA:23,_RNvMNtNtCs2XshHk0aCOj_9paperboat6config6loaderNtB2_15AgentFileConfig14validate_model
FNDA:5,_RNvMNtNtCs2XshHk0aCOj_9paperboat6config6loaderNtB2_15AgentFileConfig18validate_with_path
FNDA:29,_RNvMNtNtCs2XshHk0aCOj_9paperboat6config6loaderNtB2_15AgentFileConfig21validate_single_model
FNDA:19,_RNvMNtNtCs2XshHk0aCOj_9paperboat6config6loaderNtB2_15AgentFileConfig8validate
FNDA:6,_RNvNtNtCs2XshHk0aCOj_9paperboat6config6loader17load_agent_config
FNDA:7,_RNvNtNtCs2XshHk0aCOj_9paperboat6config6loader17load_backend_kind
FNDA:8,_RNvNtNtCs2XshHk0aCOj_9paperboat6config6loader17parse_model_chain
FNDA:6,_RNvNtNtCs2XshHk0aCOj_9paperboat6config6loader18build_model_config
FNDA:3,_RNvNtNtCs2XshHk0aCOj_9paperboat6config6loader18merge_agent_config
FNDA:0,_RNvNtNtCs2XshHk0aCOj_9paperboat6config6loader18parse_effort_level
FNDA:13,_RNvNtNtCs2XshHk0aCOj_9paperboat6config6loader19load_backend_config
FNDA:27,_RNvNtNtCs2XshHk0aCOj_9paperboat6config6loader24load_backend_from_config
FNDA:6,_RNvNtNtCs2XshHk0aCOj_9paperboat6config6loader24user_backend_config_path
FNDA:6,_RNvNtNtCs2XshHk0aCOj_9paperboat6config6loader27project_backend_config_path
FNF:93
FNH:82
DA:51,19
DA:52,19
DA:53,18
DA:54,1
DA:55,16
DA:56,19
DA:64,5
DA:65,5
DA:66,5
DA:67,0
DA:68,2
DA:69,5
DA:74,23
DA:76,30
DA:78,29
DA:79,29
DA:82,17
DA:83,23
DA:86,29
DA:87,29
DA:88,29
DA:89,29
DA:90,29
DA:91,29
DA:94,29
DA:95,22
DA:96,7
DA:100,7
DA:101,7
DA:102,51
DA:103,7
DA:105,7
DA:106,7
DA:109,1
DA:110,6
DA:113,6
DA:115,6
DA:116,3
DA:117,3
DA:118,3
DA:119,3
DA:120,3
DA:122,3
DA:124,29
DA:136,0
DA:137,0
DA:138,0
DA:139,0
DA:142,0
DA:143,0
DA:144,0
DA:149,6
DA:150,6
DA:151,1
DA:152,5
DA:154,5
DA:155,5
DA:157,5
DA:158,5
DA:161,4
DA:162,4
DA:163,4
DA:165,2
DA:166,6
DA:169,3
DA:170,3
DA:171,3
DA:172,3
DA:173,3
DA:174,3
DA:178,0
DA:179,0
DA:180,0
DA:183,0
DA:184,0
DA:185,0
DA:188,0
DA:189,0
DA:190,0
DA:193,0
DA:194,0
DA:195,0
DA:196,0
DA:197,0
DA:198,0
DA:206,6
DA:207,6
DA:208,6
DA:209,6
DA:210,6
DA:213,6
DA:214,5
DA:215,5
DA:216,1
DA:217,5
DA:218,0
DA:219,0
DA:220,5
DA:223,5
DA:224,2
DA:225,2
DA:226,3
DA:227,5
DA:228,0
DA:229,0
DA:230,5
DA:233,5
DA:234,1
DA:235,1
DA:236,4
DA:237,5
DA:238,0
DA:239,0
DA:240,5
DA:242,5
DA:243,6
DA:250,8
DA:251,8
DA:252,8
DA:257,0
DA:258,0
DA:259,0
DA:331,13
DA:333,13
DA:334,12
DA:335,12
DA:336,10
DA:337,7
DA:338,7
DA:341,0
DA:344,7
DA:346,3
DA:347,3
DA:355,2
DA:356,1
DA:359,6
DA:360,0
DA:363,0
DA:365,0
DA:366,6
DA:369,6
DA:370,0
DA:373,0
DA:375,0
DA:376,6
DA:379,6
DA:380,6
DA:383,0
DA:385,6
DA:386,13
DA:399,7
DA:400,7
DA:401,7
DA:422,0
DA:424,0
DA:425,0
DA:426,0
DA:427,0
DA:428,0
DA:429,0
DA:430,0
DA:431,0
DA:434,0
DA:435,0
DA:436,0
DA:439,0
DA:440,0
DA:441,0
DA:444,0
DA:445,0
DA:448,6
DA:449,6
DA:450,6
DA:451,6
DA:454,6
DA:455,6
DA:456,6
DA:471,27
DA:472,27
DA:473,13
DA:474,14
DA:476,14
DA:477,14
DA:478,0
DA:479,0
DA:481,0
DA:484,0
DA:488,14
DA:489,13
DA:490,1
DA:491,1
DA:493,0
DA:496,1
DA:500,13
DA:501,12
DA:502,12
DA:503,2
DA:504,10
DA:506,10
DA:507,7
DA:508,3
DA:509,3
DA:512,0
DA:515,3
DA:518,27
DA:530,1
DA:531,1
DA:532,1
DA:533,1
DA:536,1
DA:537,1
DA:538,1
DA:539,1
DA:540,1
DA:543,1
DA:544,1
DA:545,1
DA:546,1
DA:547,1
DA:554,1
DA:556,7
DA:557,1
DA:558,1
DA:559,1
DA:560,1
DA:561,1
DA:562,1
DA:563,1
DA:564,1
DA:565,7
DA:566,7
DA:567,7
DA:568,7
DA:569,7
DA:570,7
DA:575,1
DA:578,1
DA:580,1
DA:581,1
DA:582,1
DA:583,1
DA:584,1
DA:586,1
DA:587,1
DA:588,1
DA:589,1
DA:590,1
DA:591,1
DA:594,1
DA:595,1
DA:596,1
DA:597,1
DA:598,1
DA:599,1
DA:600,1
DA:603,1
DA:605,1
DA:606,1
DA:607,1
DA:608,1
DA:609,1
DA:611,1
DA:612,1
DA:613,1
DA:614,1
DA:615,1
DA:618,1
DA:619,1
DA:620,1
DA:621,1
DA:622,1
DA:623,1
DA:626,1
DA:628,1
DA:629,1
DA:630,1
DA:631,1
DA:632,1
DA:633,1
DA:634,1
DA:635,1
DA:638,1
DA:640,1
DA:641,1
DA:642,1
DA:643,1
DA:644,1
DA:646,1
DA:647,1
DA:648,1
DA:649,1
DA:650,1
DA:651,1
DA:654,1
DA:655,1
DA:656,1
DA:657,1
DA:658,1
DA:659,1
DA:660,1
DA:662,1
DA:663,1
DA:665,1
DA:666,1
DA:669,1
DA:670,1
DA:673,1
DA:676,1
DA:678,1
DA:679,1
DA:680,1
DA:681,1
DA:682,1
DA:683,1
DA:685,1
DA:686,1
DA:687,1
DA:688,1
DA:691,1
DA:694,1
DA:696,1
DA:697,1
DA:698,1
DA:701,1
DA:702,1
DA:703,1
DA:704,1
DA:705,1
DA:706,1
DA:707,1
DA:708,1
DA:710,1
DA:711,1
DA:712,1
DA:713,1
DA:720,1
DA:721,1
DA:722,1
DA:724,1
DA:725,1
DA:726,1
DA:729,1
DA:730,1
DA:731,1
DA:733,1
DA:735,1
DA:736,1
DA:737,1
DA:740,1
DA:741,1
DA:742,1
DA:744,1
DA:745,1
DA:746,1
DA:747,1
DA:748,1
DA:750,1
DA:751,1
DA:752,1
DA:755,1
DA:756,1
DA:757,1
DA:759,1
DA:761,1
DA:762,1
DA:763,1
DA:766,1
DA:767,1
DA:768,1
DA:770,1
DA:772,1
DA:773,1
DA:775,1
DA:776,1
DA:778,1
DA:779,1
DA:782,1
DA:785,1
DA:786,1
DA:787,1
DA:789,1
DA:791,1
DA:792,1
DA:794,1
DA:795,1
DA:796,1
DA:797,1
DA:800,1
DA:807,1
DA:808,1
DA:809,1
DA:810,1
DA:811,1
DA:812,1
DA:813,1
DA:814,1
DA:815,1
DA:817,1
DA:818,1
DA:819,1
DA:822,1
DA:823,1
DA:824,1
DA:825,1
DA:826,1
DA:827,1
DA:829,1
DA:830,1
DA:831,1
DA:834,1
DA:835,1
DA:836,1
DA:838,1
DA:839,1
DA:840,1
DA:847,1
DA:848,1
DA:849,1
DA:850,1
DA:852,1
DA:855,1
DA:856,1
DA:857,1
DA:858,1
DA:859,1
DA:862,1
DA:863,1
DA:864,1
DA:865,1
DA:866,1
DA:867,1
DA:868,1
DA:869,1
DA:870,1
DA:871,1
DA:872,1
DA:873,1
DA:874,1
DA:875,1
DA:876,1
DA:878,1
DA:879,1
DA:880,1
DA:881,1
DA:883,1
DA:885,1
DA:886,1
DA:887,1
DA:888,1
DA:891,1
DA:892,1
DA:893,1
DA:894,1
DA:895,1
DA:896,1
DA:897,1
DA:898,1
DA:899,1
DA:901,1
DA:902,1
DA:904,1
DA:907,1
DA:909,1
DA:911,1
DA:914,1
DA:915,1
DA:916,1
DA:917,1
DA:918,1
DA:919,1
DA:920,1
DA:921,1
DA:922,1
DA:924,1
DA:926,1
DA:929,1
DA:931,1
DA:933,1
DA:935,1
DA:938,1
DA:939,1
DA:940,1
DA:941,1
DA:942,1
DA:943,1
DA:944,1
DA:945,1
DA:946,1
DA:948,1
DA:951,1
DA:952,1
DA:953,1
DA:956,1
DA:957,1
DA:958,1
DA:959,1
DA:960,1
DA:961,1
DA:962,1
DA:963,1
DA:964,1
DA:965,1
DA:966,1
DA:967,1
DA:969,1
DA:971,1
DA:973,1
DA:974,1
DA:975,1
DA:982,1
DA:983,1
DA:985,1
DA:986,1
DA:987,1
DA:988,1
DA:995,1
DA:996,1
DA:997,1
DA:998,1
DA:1001,1
DA:1002,1
DA:1003,1
DA:1004,1
DA:1005,1
DA:1008,1
DA:1009,1
DA:1010,1
DA:1011,1
DA:1012,1
DA:1015,1
DA:1017,1
DA:1018,1
DA:1019,1
DA:1020,1
DA:1021,1
DA:1022,1
DA:1023,1
DA:1026,1
DA:1028,1
DA:1029,1
DA:1030,1
DA:1031,1
DA:1038,1
DA:1039,1
DA:1040,1
DA:1042,1
DA:1043,1
DA:1044,1
DA:1047,1
DA:1048,1
DA:1049,1
DA:1051,1
DA:1053,1
DA:1054,1
DA:1055,1
DA:1056,1
DA:1059,1
DA:1060,1
DA:1061,1
DA:1063,1
DA:1065,1
DA:1066,1
DA:1067,1
DA:1068,1
DA:1071,1
DA:1072,1
DA:1073,1
DA:1076,1
DA:1077,1
DA:1078,1
DA:1079,1
DA:1082,1
DA:1083,1
DA:1084,1
DA:1085,1
DA:1086,1
DA:1089,1
DA:1090,1
DA:1091,1
DA:1093,1
DA:1095,1
DA:1096,1
DA:1097,1
DA:1098,1
DA:1101,1
DA:1102,1
DA:1103,1
DA:1105,1
DA:1107,1
DA:1108,1
DA:1109,1
DA:1112,1
DA:1113,1
DA:1114,1
DA:1116,1
DA:1118,1
DA:1119,1
DA:1120,1
DA:1123,1
DA:1124,1
DA:1125,1
DA:1128,1
DA:1130,1
DA:1131,1
DA:1132,1
DA:1135,1
DA:1136,1
DA:1137,1
DA:1139,1
DA:1141,1
DA:1142,1
DA:1143,1
DA:1146,1
DA:1147,1
DA:1148,1
DA:1150,1
DA:1152,1
DA:1153,1
DA:1154,1
DA:1157,1
DA:1158,1
DA:1159,1
DA:1161,1
DA:1163,1
DA:1164,1
DA:1165,1
DA:1168,1
DA:1169,1
DA:1170,1
DA:1172,1
DA:1174,1
DA:1175,1
DA:1176,1
DA:1179,1
DA:1180,1
DA:1181,1
DA:1183,1
DA:1185,1
DA:1186,1
DA:1187,1
DA:1190,1
DA:1191,1
DA:1192,1
DA:1195,1
DA:1197,1
DA:1198,1
DA:1199,1
DA:1217,12
DA:1218,12
DA:1219,12
DA:1220,12
DA:1221,12
DA:1223,1
DA:1224,1
DA:1225,1
DA:1226,1
DA:1227,1
DA:1231,13
DA:1232,13
DA:1233,0
DA:1234,13
DA:1236,13
DA:1241,1
DA:1243,1
DA:1246,1
DA:1247,1
DA:1252,1
DA:1253,1
DA:1255,1
DA:1256,1
DA:1261,1
DA:1262,1
DA:1264,1
DA:1265,1
DA:1270,1
DA:1272,1
DA:1274,1
DA:1277,1
DA:1282,1
DA:1284,1
DA:1287,1
DA:1292,1
DA:1294,1
DA:1297,1
DA:1302,1
DA:1304,1
DA:1308,1
DA:1310,1
DA:1319,1
DA:1321,1
DA:1323,1
DA:1324,1
DA:1325,1
DA:1326,1
DA:1331,1
DA:1333,1
DA:1335,1
DA:1336,1
DA:1337,1
DA:1338,1
DA:1343,1
DA:1345,1
DA:1347,1
DA:1348,1
DA:1349,1
DA:1350,1
DA:1355,1
DA:1357,1
DA:1359,1
DA:1360,1
DA:1361,1
DA:1362,1
DA:1367,1
DA:1369,1
DA:1373,1
DA:1379,1
DA:1381,1
DA:1384,1
BRF:0
BRH:0
LF:729
LH:659
end_of_record
SF:/Users/dbmrq/Documents/Programação/Misc/paperboat/src/config/writer.rs
FN:31,_RNvNtNtCs2XshHk0aCOj_9paperboat6config6writer17ensure_config_dir
FN:127,_RNvNtNtCs2XshHk0aCOj_9paperboat6config6writer23generate_config_content
FN:209,_RNvNtNtNtCs2XshHk0aCOj_9paperboat6config6writer5testss_19test_tier_name_opus
FN:221,_RNvNtNtNtCs2XshHk0aCOj_9paperboat6config6writer5testss_20test_tier_name_codex
FN:227,_RNvNtNtNtCs2XshHk0aCOj_9paperboat6config6writer5testss_20test_tier_name_haiku
FN:215,_RNvNtNtNtCs2XshHk0aCOj_9paperboat6config6writer5testss_21test_tier_name_sonnet
FN:242,_RNvNtNtNtCs2XshHk0aCOj_9paperboat6config6writer5testss_27test_capitalize_first_empty
FN:237,_RNvNtNtNtCs2XshHk0aCOj_9paperboat6config6writer5testss_31test_capitalize_first_lowercase
FN:273,_RNvNtNtNtCs2XshHk0aCOj_9paperboat6config6writer5testss_33test_update_model_adds_if_missing
FN:247,_RNvNtNtNtCs2XshHk0aCOj_9paperboat6config6writer5testss_35test_capitalize_first_already_upper
FN:289,_RNvNtNtNtCs2XshHk0aCOj_9paperboat6config6writer5testss_35test_update_model_ends_with_newline
FN:256,_RNvNtNtNtCs2XshHk0aCOj_9paperboat6config6writer5testss_35test_update_model_replaces_existing
FN:264,_RNvNtNtNtCs2XshHk0aCOj_9paperboat6config6writer5testss_36test_update_model_preserves_comments
FN:375,_RNvNtNtNtCs2XshHk0aCOj_9paperboat6config6writer5testss_37test_save_agent_config_correct_format
FN:477,_RNvNtNtNtCs2XshHk0aCOj_9paperboat6config6writer5testss_40test_all_model_tiers_produce_valid_names
FN:358,_RNvNtNtNtCs2XshHk0aCOj_9paperboat6config6writer5testss_40test_save_agent_config_creates_directory
FN:443,_RNvNtNtNtCs2XshHk0aCOj_9paperboat6config6writer5testss_41test_generate_config_content_for_new_file
FN:419,_RNvNtNtNtCs2XshHk0aCOj_9paperboat6config6writer5testss_43test_ensure_config_dir_at_creates_directory
FN:281,_RNvNtNtNtCs2XshHk0aCOj_9paperboat6config6writer5testss_43test_update_model_adds_header_if_no_comment
FN:432,_RNvNtNtNtCs2XshHk0aCOj_9paperboat6config6writer5testss_44test_ensure_config_dir_at_existing_directory
FN:337,_RNvNtNtNtCs2XshHk0aCOj_9paperboat6config6writer5testss_44test_save_agent_config_updates_existing_file
FN:304,_RNvNtNtNtCs2XshHk0aCOj_9paperboat6config6writer5testss_45test_update_model_preserves_additional_config
FN:456,_RNvNtNtNtCs2XshHk0aCOj_9paperboat6config6writer5testss_47test_generate_config_content_preserves_existing
FN:398,_RNvNtNtNtCs2XshHk0aCOj_9paperboat6config6writer5testss_47test_save_agent_config_preserves_extra_settings
FN:296,_RNvNtNtNtCs2XshHk0aCOj_9paperboat6config6writer5testss_48test_update_model_handles_different_quote_styles
FN:316,_RNvNtNtNtCs2XshHk0aCOj_9paperboat6config6writer5testss_49test_save_agent_config_creates_file_if_not_exists
FN:41,_RNCNvNtNtCs2XshHk0aCOj_9paperboat6config6writer20ensure_config_dir_at0B7_
FN:175,_RNCNvNtNtCs2XshHk0aCOj_9paperboat6config6writer23update_model_in_content0B7_
FN:100,_RNCNvNtNtCs2XshHk0aCOj_9paperboat6config6writer24save_agent_config_to_dir0B7_
FN:108,_RNCNvNtNtCs2XshHk0aCOj_9paperboat6config6writer24save_agent_config_to_dirs0_0B7_
FN:111,_RNCNvNtNtCs2XshHk0aCOj_9paperboat6config6writer24save_agent_config_to_dirs1_0B7_
FN:104,_RNCNvNtNtCs2XshHk0aCOj_9paperboat6config6writer24save_agent_config_to_dirs_0B7_
FN:144,_RNCNvNtNtCs2XshHk0aCOj_9paperboat6config6writer31generate_config_content_for_dir0B7_
FN:192,_RNvNtNtCs2XshHk0aCOj_9paperboat6config6writer16capitalize_first
FN:79,_RNvNtNtCs2XshHk0aCOj_9paperboat6config6writer17save_agent_config
FN:21,_RNvNtNtCs2XshHk0aCOj_9paperboat6config6writer18project_config_dir
FN:38,_RNvNtNtCs2XshHk0aCOj_9paperboat6config6writer20ensure_config_dir_at
FN:156,_RNvNtNtCs2XshHk0aCOj_9paperboat6config6writer23update_model_in_content
FN:87,_RNvNtNtCs2XshHk0aCOj_9paperboat6config6writer24save_agent_config_to_dir
FN:134,_RNvNtNtCs2XshHk0aCOj_9paperboat6config6writer31generate_config_content_for_dir
FN:50,_RNvNtNtCs2XshHk0aCOj_9paperboat6config6writer9tier_name
FNDA:0,_RNvNtNtCs2XshHk0aCOj_9paperboat6config6writer17ensure_config_dir
FNDA:0,_RNvNtNtCs2XshHk0aCOj_9paperboat6config6writer23generate_config_content
FNDA:1,_RNvNtNtNtCs2XshHk0aCOj_9paperboat6config6writer5testss_19test_tier_name_opus
FNDA:1,_RNvNtNtNtCs2XshHk0aCOj_9paperboat6config6writer5testss_20test_tier_name_codex
FNDA:1,_RNvNtNtNtCs2XshHk0aCOj_9paperboat6config6writer5testss_20test_tier_name_haiku
FNDA:1,_RNvNtNtNtCs2XshHk0aCOj_9paperboat6config6writer5testss_21test_tier_name_sonnet
FNDA:1,_RNvNtNtNtCs2XshHk0aCOj_9paperboat6config6writer5testss_27test_capitalize_first_empty
FNDA:1,_RNvNtNtNtCs2XshHk0aCOj_9paperboat6config6writer5testss_31test_capitalize_first_lowercase
FNDA:1,_RNvNtNtNtCs2XshHk0aCOj_9paperboat6config6writer5testss_33test_update_model_adds_if_missing
FNDA:1,_RNvNtNtNtCs2XshHk0aCOj_9paperboat6config6writer5testss_35test_capitalize_first_already_upper
FNDA:1,_RNvNtNtNtCs2XshHk0aCOj_9paperboat6config6writer5testss_35test_update_model_ends_with_newline
FNDA:1,_RNvNtNtNtCs2XshHk0aCOj_9paperboat6config6writer5testss_35test_update_model_replaces_existing
FNDA:1,_RNvNtNtNtCs2XshHk0aCOj_9paperboat6config6writer5testss_36test_update_model_preserves_comments
FNDA:1,_RNvNtNtNtCs2XshHk0aCOj_9paperboat6config6writer5testss_37test_save_agent_config_correct_format
FNDA:1,_RNvNtNtNtCs2XshHk0aCOj_9paperboat6config6writer5testss_40test_all_model_tiers_produce_valid_names
FNDA:1,_RNvNtNtNtCs2XshHk0aCOj_9paperboat6config6writer5testss_40test_save_agent_config_creates_directory
FNDA:1,_RNvNtNtNtCs2XshHk0aCOj_9paperboat6config6writer5testss_41test_generate_config_content_for_new_file
FNDA:1,_RNvNtNtNtCs2XshHk0aCOj_9paperboat6config6writer5testss_43test_ensure_config_dir_at_creates_directory
FNDA:1,_RNvNtNtNtCs2XshHk0aCOj_9paperboat6config6writer5testss_43test_update_model_adds_header_if_no_comment
FNDA:1,_RNvNtNtNtCs2XshHk0aCOj_9paperboat6config6writer5testss_44test_ensure_config_dir_at_existing_directory
FNDA:1,_RNvNtNtNtCs2XshHk0aCOj_9paperboat6config6writer5testss_44test_save_agent_config_updates_existing_file
FNDA:1,_RNvNtNtNtCs2XshHk0aCOj_9paperboat6config6writer5testss_45test_update_model_preserves_additional_config
FNDA:1,_RNvNtNtNtCs2XshHk0aCOj_9paperboat6config6writer5testss_47test_generate_config_content_preserves_existing
FNDA:1,_RNvNtNtNtCs2XshHk0aCOj_9paperboat6config6writer5testss_47test_save_agent_config_preserves_extra_settings
FNDA:1,_RNvNtNtNtCs2XshHk0aCOj_9paperboat6config6writer5testss_48test_update_model_handles_different_quote_styles
FNDA:1,_RNvNtNtNtCs2XshHk0aCOj_9paperboat6config6writer5testss_49test_save_agent_config_creates_file_if_not_exists
FNDA:0,_RNCNvNtNtCs2XshHk0aCOj_9paperboat6config6writer20ensure_config_dir_at0B7_
FNDA:1,_RNCNvNtNtCs2XshHk0aCOj_9paperboat6config6writer23update_model_in_content0B7_
FNDA:0,_RNCNvNtNtCs2XshHk0aCOj_9paperboat6config6writer24save_agent_config_to_dir0B7_
FNDA:0,_RNCNvNtNtCs2XshHk0aCOj_9paperboat6config6writer24save_agent_config_to_dirs0_0B7_
FNDA:0,_RNCNvNtNtCs2XshHk0aCOj_9paperboat6config6writer24save_agent_config_to_dirs1_0B7_
FNDA:0,_RNCNvNtNtCs2XshHk0aCOj_9paperboat6config6writer24save_agent_config_to_dirs_0B7_
FNDA:0,_RNCNvNtNtCs2XshHk0aCOj_9paperboat6config6writer31generate_config_content_for_dir0B7_
FNDA:8,_RNvNtNtCs2XshHk0aCOj_9paperboat6config6writer16capitalize_first
FNDA:0,_RNvNtNtCs2XshHk0aCOj_9paperboat6config6writer17save_agent_config
FNDA:0,_RNvNtNtCs2XshHk0aCOj_9paperboat6config6writer18project_config_dir
FNDA:7,_RNvNtNtCs2XshHk0aCOj_9paperboat6config6writer20ensure_config_dir_at
FNDA:10,_RNvNtNtCs2XshHk0aCOj_9paperboat6config6writer23update_model_in_content
FNDA:5,_RNvNtNtCs2XshHk0aCOj_9paperboat6config6writer24save_agent_config_to_dir
FNDA:7,_RNvNtNtCs2XshHk0aCOj_9paperboat6config6writer31generate_config_content_for_dir
FNDA:15,_RNvNtNtCs2XshHk0aCOj_9paperboat6config6writer9tier_name
FNF:41
FNH:31
DA:21,0
DA:22,0
DA:23,0
DA:31,0
DA:32,0
DA:33,0
DA:38,7
DA:39,7
DA:40,4
DA:41,4
DA:42,3
DA:43,7
DA:44,7
DA:50,15
DA:51,15
DA:52,15
DA:79,0
DA:80,0
DA:81,0
DA:87,5
DA:88,5
DA:89,5
DA:90,5
DA:93,5
DA:96,5
DA:99,5
DA:100,5
DA:102,5
DA:103,5
DA:104,5
DA:106,5
DA:107,5
DA:108,5
DA:111,5
DA:112,0
DA:114,0
DA:115,0
DA:117,0
DA:119,5
DA:120,5
DA:127,0
DA:128,0
DA:129,0
DA:134,7
DA:135,7
DA:136,7
DA:137,7
DA:138,7
DA:139,7
DA:141,7
DA:143,3
DA:144,3
DA:145,3
DA:146,4
DA:149,4
DA:150,4
DA:151,4
DA:152,4
DA:153,7
DA:156,10
DA:157,10
DA:158,10
DA:160,16
DA:161,16
DA:163,16
DA:164,8
DA:165,8
DA:166,8
DA:167,8
DA:168,0
DA:169,8
DA:172,10
DA:175,2
DA:176,2
DA:177,1
DA:178,1
DA:179,1
DA:180,2
DA:181,8
DA:184,10
DA:185,10
DA:186,10
DA:187,10
DA:188,10
DA:189,10
DA:192,8
DA:193,8
DA:194,8
DA:195,1
DA:196,7
DA:198,8
DA:209,1
DA:210,1
DA:211,1
DA:212,1
DA:215,1
DA:216,1
DA:217,1
DA:218,1
DA:221,1
DA:222,1
DA:223,1
DA:224,1
DA:227,1
DA:228,1
DA:229,1
DA:230,1
DA:237,1
DA:238,1
DA:239,1
DA:242,1
DA:243,1
DA:244,1
DA:247,1
DA:248,1
DA:249,1
DA:256,1
DA:257,1
DA:258,1
DA:259,1
DA:260,1
DA:261,1
DA:264,1
DA:265,1
DA:266,1
DA:267,1
DA:268,1
DA:269,1
DA:270,1
DA:273,1
DA:274,1
DA:275,1
DA:276,1
DA:277,1
DA:278,1
DA:281,1
DA:282,1
DA:283,1
DA:284,1
DA:285,1
DA:286,1
DA:289,1
DA:290,1
DA:291,1
DA:292,1
DA:293,1
DA:296,1
DA:298,1
DA:299,1
DA:300,1
DA:301,1
DA:304,1
DA:305,1
DA:306,1
DA:307,1
DA:308,1
DA:309,1
DA:316,1
DA:317,1
DA:318,1
DA:321,1
DA:322,1
DA:325,1
DA:328,1
DA:331,1
DA:332,1
DA:333,1
DA:334,1
DA:337,1
DA:338,1
DA:339,1
DA:340,1
DA:342,1
DA:345,1
DA:348,1
DA:351,1
DA:352,1
DA:353,1
DA:354,1
DA:355,1
DA:358,1
DA:359,1
DA:360,1
DA:363,1
DA:366,1
DA:369,1
DA:370,1
DA:371,1
DA:372,1
DA:375,1
DA:376,1
DA:377,1
DA:379,1
DA:381,1
DA:382,1
DA:385,1
DA:386,1
DA:389,1
DA:390,1
DA:391,1
DA:392,1
DA:395,1
DA:398,1
DA:399,1
DA:400,1
DA:401,1
DA:403,1
DA:406,1
DA:407,1
DA:410,1
DA:413,1
DA:414,1
DA:415,1
DA:416,1
DA:419,1
DA:420,1
DA:421,1
DA:423,1
DA:425,1
DA:427,1
DA:428,1
DA:429,1
DA:432,1
DA:433,1
DA:434,1
DA:435,1
DA:438,1
DA:439,1
DA:440,1
DA:443,1
DA:444,1
DA:445,1
DA:448,1
DA:450,1
DA:451,1
DA:452,1
DA:453,1
DA:456,1
DA:457,1
DA:458,1
DA:459,1
DA:461,1
DA:462,1
DA:463,1
DA:466,1
DA:468,1
DA:470,1
DA:471,1
DA:472,1
DA:473,1
DA:474,1
DA:477,1
DA:479,1
DA:480,1
DA:481,1
DA:482,1
DA:483,1
DA:484,1
DA:485,1
DA:486,1
DA:488,6
DA:489,6
DA:490,6
DA:495,1
BRF:0
BRH:0
LF:272
LH:248
end_of_record
SF:/Users/dbmrq/Documents/Programação/Misc/paperboat/src/error/acp.rs
FN:140,_RNvNtNtNtCs2XshHk0aCOj_9paperboat5error3acp5testss_26test_session_error_display
FN:150,_RNvNtNtNtCs2XshHk0aCOj_9paperboat5error3acp5testss_27test_protocol_error_display
FN:119,_RNvNtNtNtCs2XshHk0aCOj_9paperboat5error3acp5testss_28test_request_timeout_display
FN:130,_RNvNtNtNtCs2XshHk0aCOj_9paperboat5error3acp5testss_29test_invalid_response_display
FN:109,_RNvNtNtNtCs2XshHk0aCOj_9paperboat5error3acp5testss_30test_connection_failed_display
FN:185,_RNvNtNtNtCs2XshHk0aCOj_9paperboat5error3acp5testss_30test_custom_suggestion_display
FN:160,_RNvNtNtNtCs2XshHk0aCOj_9paperboat5error3acp5testss_35test_install_cli_suggestion_display
FN:169,_RNvNtNtNtCs2XshHk0aCOj_9paperboat5error3acp5testss_37test_auth_required_suggestion_display
FN:177,_RNvNtNtNtCs2XshHk0aCOj_9paperboat5error3acp5testss_37test_check_process_suggestion_display
FNDA:1,_RNvNtNtNtCs2XshHk0aCOj_9paperboat5error3acp5testss_26test_session_error_display
FNDA:1,_RNvNtNtNtCs2XshHk0aCOj_9paperboat5error3acp5testss_27test_protocol_error_display
FNDA:1,_RNvNtNtNtCs2XshHk0aCOj_9paperboat5error3acp5testss_28test_request_timeout_display
FNDA:1,_RNvNtNtNtCs2XshHk0aCOj_9paperboat5error3acp5testss_29test_invalid_response_display
FNDA:1,_RNvNtNtNtCs2XshHk0aCOj_9paperboat5error3acp5testss_30test_connection_failed_display
FNDA:1,_RNvNtNtNtCs2XshHk0aCOj_9paperboat5error3acp5testss_30test_custom_suggestion_display
FNDA:1,_RNvNtNtNtCs2XshHk0aCOj_9paperboat5error3acp5testss_35test_install_cli_suggestion_display
FNDA:1,_RNvNtNtNtCs2XshHk0aCOj_9paperboat5error3acp5testss_37test_auth_required_suggestion_display
FNDA:1,_RNvNtNtNtCs2XshHk0aCOj_9paperboat5error3acp5testss_37test_check_process_suggestion_display
FNF:9
FNH:9
DA:109,1
DA:110,1
DA:111,1
DA:112,1
DA:113,1
DA:114,1
DA:115,1
DA:116,1
DA:119,1
DA:120,1
DA:121,1
DA:122,1
DA:123,1
DA:124,1
DA:125,1
DA:126,1
DA:127,1
DA:130,1
DA:131,1
DA:132,1
DA:133,1
DA:134,1
DA:135,1
DA:136,1
DA:137,1
DA:140,1
DA:141,1
DA:142,1
DA:143,1
DA:144,1
DA:145,1
DA:146,1
DA:147,1
DA:150,1
DA:151,1
DA:152,1
DA:153,1
DA:154,1
DA:155,1
DA:156,1
DA:157,1
DA:160,1
DA:161,1
DA:162,1
DA:163,1
DA:164,1
DA:165,1
DA:166,1
DA:169,1
DA:170,1
DA:171,1
DA:172,1
DA:173,1
DA:174,1
DA:177,1
DA:178,1
DA:179,1
DA:180,1
DA:181,1
DA:182,1
DA:185,1
DA:186,1
DA:187,1
DA:188,1
DA:189,1
BRF:0
BRH:0
LF:65
LH:65
end_of_record
SF:/Users/dbmrq/Documents/Programação/Misc/paperboat/src/error/config.rs
FN:167,_RNvMNtNtCs2XshHk0aCOj_9paperboat5error6configNtB2_11ConfigError13invalid_model
FN:185,_RNvMNtNtCs2XshHk0aCOj_9paperboat5error6configNtB2_11ConfigError21invalid_model_in_file
FN:35,_RNvNtNtCs2XshHk0aCOj_9paperboat5error6config19suggest_model_alias
FN:177,_RNCNvMNtNtCs2XshHk0aCOj_9paperboat5error6configNtB4_11ConfigError13invalid_model0B8_
FN:198,_RNCNvMNtNtCs2XshHk0aCOj_9paperboat5error6configNtB4_11ConfigError21invalid_model_in_file0B8_
FN:218,_RNvNtNtNtCs2XshHk0aCOj_9paperboat5error6config5testss_24test_parse_error_display
FN:230,_RNvNtNtNtCs2XshHk0aCOj_9paperboat5error6config5testss_26test_invalid_model_display
FN:209,_RNvNtNtNtCs2XshHk0aCOj_9paperboat5error6config5testss_27test_file_not_found_display
FN:247,_RNvNtNtNtCs2XshHk0aCOj_9paperboat5error6config5testss_27test_merge_conflict_display
FN:257,_RNvNtNtNtCs2XshHk0aCOj_9paperboat5error6config5testss_30test_validation_failed_display
FNDA:3,_RNvMNtNtCs2XshHk0aCOj_9paperboat5error6configNtB2_11ConfigError13invalid_model
FNDA:3,_RNvMNtNtCs2XshHk0aCOj_9paperboat5error6configNtB2_11ConfigError21invalid_model_in_file
FNDA:6,_RNvNtNtCs2XshHk0aCOj_9paperboat5error6config19suggest_model_alias
FNDA:54,_RNCNvMNtNtCs2XshHk0aCOj_9paperboat5error6configNtB4_11ConfigError13invalid_model0B8_
FNDA:54,_RNCNvMNtNtCs2XshHk0aCOj_9paperboat5error6configNtB4_11ConfigError21invalid_model_in_file0B8_
FNDA:1,_RNvNtNtNtCs2XshHk0aCOj_9paperboat5error6config5testss_24test_parse_error_display
FNDA:1,_RNvNtNtNtCs2XshHk0aCOj_9paperboat5error6config5testss_26test_invalid_model_display
FNDA:1,_RNvNtNtNtCs2XshHk0aCOj_9paperboat5error6config5testss_27test_file_not_found_display
FNDA:1,_RNvNtNtNtCs2XshHk0aCOj_9paperboat5error6config5testss_27test_merge_conflict_display
FNDA:1,_RNvNtNtNtCs2XshHk0aCOj_9paperboat5error6config5testss_30test_validation_failed_display
FNF:10
FNH:10
DA:35,6
DA:36,6
DA:39,6
DA:40,6
DA:41,6
DA:42,6
DA:43,6
DA:44,6
DA:45,6
DA:46,6
DA:47,6
DA:48,6
DA:49,6
DA:50,6
DA:51,6
DA:53,54
DA:54,54
DA:55,2
DA:56,52
DA:60,72
DA:61,72
DA:62,0
DA:63,72
DA:67,4
DA:68,12
DA:69,12
DA:70,0
DA:71,12
DA:74,4
DA:75,6
DA:167,3
DA:168,3
DA:169,1
DA:170,2
DA:173,3
DA:174,3
DA:175,3
DA:176,3
DA:177,54
DA:178,3
DA:180,3
DA:185,3
DA:186,3
DA:187,1
DA:189,1
DA:191,2
DA:194,3
DA:195,3
DA:196,3
DA:197,3
DA:198,54
DA:199,3
DA:201,3
DA:209,1
DA:210,1
DA:211,1
DA:212,1
DA:213,1
DA:214,1
DA:215,1
DA:218,1
DA:219,1
DA:220,1
DA:221,1
DA:222,1
DA:223,1
DA:224,1
DA:225,1
DA:226,1
DA:227,1
DA:230,1
DA:231,1
DA:232,1
DA:233,1
DA:234,1
DA:235,1
DA:236,1
DA:237,1
DA:238,1
DA:239,1
DA:240,1
DA:241,1
DA:242,1
DA:243,1
DA:244,1
DA:247,1
DA:248,1
DA:249,1
DA:250,1
DA:251,1
DA:252,1
DA:253,1
DA:254,1
DA:257,1
DA:258,1
DA:259,1
DA:260,1
DA:261,1
DA:262,1
DA:263,1
BRF:0
BRH:0
LF:102
LH:100
end_of_record
SF:/Users/dbmrq/Documents/Programação/Misc/paperboat/src/error/mcp.rs
FN:142,_RNvNtNtNtCs2XshHk0aCOj_9paperboat5error3mcp5testss_16test_error_codes
FN:121,_RNvNtNtNtCs2XshHk0aCOj_9paperboat5error3mcp5testss_27test_handler_failed_display
FN:132,_RNvNtNtNtCs2XshHk0aCOj_9paperboat5error3mcp5testss_27test_protocol_error_display
FN:97,_RNvNtNtNtCs2XshHk0aCOj_9paperboat5error3mcp5testss_27test_tool_not_found_display
FN:109,_RNvNtNtNtCs2XshHk0aCOj_9paperboat5error3mcp5testss_30test_invalid_arguments_display
FNDA:1,_RNvNtNtNtCs2XshHk0aCOj_9paperboat5error3mcp5testss_16test_error_codes
FNDA:1,_RNvNtNtNtCs2XshHk0aCOj_9paperboat5error3mcp5testss_27test_handler_failed_display
FNDA:1,_RNvNtNtNtCs2XshHk0aCOj_9paperboat5error3mcp5testss_27test_protocol_error_display
FNDA:1,_RNvNtNtNtCs2XshHk0aCOj_9paperboat5error3mcp5testss_27test_tool_not_found_display
FNDA:1,_RNvNtNtNtCs2XshHk0aCOj_9paperboat5error3mcp5testss_30test_invalid_arguments_display
FNF:5
FNH:5
DA:97,1
DA:98,1
DA:99,1
DA:100,1
DA:101,1
DA:102,1
DA:103,1
DA:104,1
DA:105,1
DA:106,1
DA:109,1
DA:110,1
DA:111,1
DA:112,1
DA:113,1
DA:114,1
DA:115,1
DA:116,1
DA:117,1
DA:118,1
DA:121,1
DA:122,1
DA:123,1
DA:124,1
DA:125,1
DA:126,1
DA:127,1
DA:128,1
DA:129,1
DA:132,1
DA:133,1
DA:134,1
DA:135,1
DA:136,1
DA:137,1
DA:138,1
DA:139,1
DA:142,1
DA:143,1
DA:144,1
DA:145,1
DA:146,1
DA:147,1
DA:148,1
BRF:0
BRH:0
LF:44
LH:44
end_of_record
SF:/Users/dbmrq/Documents/Programação/Misc/paperboat/src/error/mod.rs
FN:84,_RNvNtNtCs2XshHk0aCOj_9paperboat5error5testss_29test_paperboat_error_from_acp
FN:94,_RNvNtNtCs2XshHk0aCOj_9paperboat5error5testss_29test_paperboat_error_from_mcp
FN:104,_RNvNtNtCs2XshHk0aCOj_9paperboat5error5testss_30test_paperboat_error_from_task
FN:114,_RNvNtNtCs2XshHk0aCOj_9paperboat5error5testss_32test_paperboat_error_from_config
FN:123,_RNvNtNtCs2XshHk0aCOj_9paperboat5error5testss_38test_paperboat_error_from_orchestrator
FNDA:1,_RNvNtNtCs2XshHk0aCOj_9paperboat5error5testss_29test_paperboat_error_from_acp
FNDA:1,_RNvNtNtCs2XshHk0aCOj_9paperboat5error5testss_29test_paperboat_error_from_mcp
FNDA:1,_RNvNtNtCs2XshHk0aCOj_9paperboat5error5testss_30test_paperboat_error_from_task
FNDA:1,_RNvNtNtCs2XshHk0aCOj_9paperboat5error5testss_32test_paperboat_error_from_config
FNDA:1,_RNvNtNtCs2XshHk0aCOj_9paperboat5error5testss_38test_paperboat_error_from_orchestrator
FNF:5
FNH:5
DA:84,1
DA:85,1
DA:86,1
DA:87,1
DA:88,1
DA:89,1
DA:90,1
DA:91,1
DA:94,1
DA:95,1
DA:96,1
DA:97,1
DA:98,1
DA:99,1
DA:100,1
DA:101,1
DA:104,1
DA:105,1
DA:106,1
DA:107,1
DA:108,1
DA:109,1
DA:110,1
DA:111,1
DA:114,1
DA:115,1
DA:116,1
DA:117,1
DA:118,1
DA:119,1
DA:120,1
DA:123,1
DA:124,1
DA:125,1
DA:126,1
DA:127,1
DA:128,1
DA:129,1
DA:130,1
DA:131,1
BRF:0
BRH:0
LF:40
LH:40
end_of_record
SF:/Users/dbmrq/Documents/Programação/Misc/paperboat/src/error/orchestrator.rs
FN:112,_RNvMs0_NtNtCs2XshHk0aCOj_9paperboat5error12orchestratorNtB5_13TimeoutConfig10no_timeout
FN:74,_RNvMs0_NtNtCs2XshHk0aCOj_9paperboat5error12orchestratorNtB5_13TimeoutConfig3new
FN:86,_RNvMs0_NtNtCs2XshHk0aCOj_9paperboat5error12orchestratorNtB5_13TimeoutConfig8from_env
FN:39,_RNvXNtNtCs2XshHk0aCOj_9paperboat5error12orchestratorNtB2_16TimeoutOperationNtNtCskpTlHb4dJmc_4core3fmt7Display3fmt
FN:60,_RNvXs_NtNtCs2XshHk0aCOj_9paperboat5error12orchestratorNtB4_13TimeoutConfigNtNtCskpTlHb4dJmc_4core7default7Default7default
FN:89,_RNCNvMs0_NtNtCs2XshHk0aCOj_9paperboat5error12orchestratorNtB7_13TimeoutConfig8from_env0Bb_
FN:97,_RNCNvMs0_NtNtCs2XshHk0aCOj_9paperboat5error12orchestratorNtB7_13TimeoutConfig8from_envs0_0Bb_
FN:99,_RNCNvMs0_NtNtCs2XshHk0aCOj_9paperboat5error12orchestratorNtB7_13TimeoutConfig8from_envs1_0Bb_
FN:91,_RNCNvMs0_NtNtCs2XshHk0aCOj_9paperboat5error12orchestratorNtB7_13TimeoutConfig8from_envs_0Bb_
FN:134,_RNvNtNtNtCs2XshHk0aCOj_9paperboat5error12orchestrator5testss_26test_timeout_config_custom
FN:148,_RNvNtNtNtCs2XshHk0aCOj_9paperboat5error12orchestrator5testss_26test_timeout_error_display
FN:125,_RNvNtNtNtCs2XshHk0aCOj_9paperboat5error12orchestrator5testss_27test_timeout_config_default
FN:169,_RNvNtNtNtCs2XshHk0aCOj_9paperboat5error12orchestrator5testss_29test_timeout_config_constants
FN:141,_RNvNtNtNtCs2XshHk0aCOj_9paperboat5error12orchestrator5testss_30test_timeout_config_no_timeout
FN:161,_RNvNtNtNtCs2XshHk0aCOj_9paperboat5error12orchestrator5testss_30test_timeout_operation_display
FNDA:1,_RNvMs0_NtNtCs2XshHk0aCOj_9paperboat5error12orchestratorNtB5_13TimeoutConfig10no_timeout
FNDA:1,_RNvMs0_NtNtCs2XshHk0aCOj_9paperboat5error12orchestratorNtB5_13TimeoutConfig3new
FNDA:48,_RNvMs0_NtNtCs2XshHk0aCOj_9paperboat5error12orchestratorNtB5_13TimeoutConfig8from_env
FNDA:2,_RNvXNtNtCs2XshHk0aCOj_9paperboat5error12orchestratorNtB2_16TimeoutOperationNtNtCskpTlHb4dJmc_4core3fmt7Display3fmt
FNDA:48,_RNvXs_NtNtCs2XshHk0aCOj_9paperboat5error12orchestratorNtB4_13TimeoutConfigNtNtCskpTlHb4dJmc_4core7default7Default7default
FNDA:0,_RNCNvMs0_NtNtCs2XshHk0aCOj_9paperboat5error12orchestratorNtB7_13TimeoutConfig8from_env0Bb_
FNDA:0,_RNCNvMs0_NtNtCs2XshHk0aCOj_9paperboat5error12orchestratorNtB7_13TimeoutConfig8from_envs0_0Bb_
FNDA:48,_RNCNvMs0_NtNtCs2XshHk0aCOj_9paperboat5error12orchestratorNtB7_13TimeoutConfig8from_envs1_0Bb_
FNDA:48,_RNCNvMs0_NtNtCs2XshHk0aCOj_9paperboat5error12orchestratorNtB7_13TimeoutConfig8from_envs_0Bb_
FNDA:1,_RNvNtNtNtCs2XshHk0aCOj_9paperboat5error12orchestrator5testss_26test_timeout_config_custom
FNDA:1,_RNvNtNtNtCs2XshHk0aCOj_9paperboat5error12orchestrator5testss_26test_timeout_error_display
FNDA:1,_RNvNtNtNtCs2XshHk0aCOj_9paperboat5error12orchestrator5testss_27test_timeout_config_default
FNDA:1,_RNvNtNtNtCs2XshHk0aCOj_9paperboat5error12orchestrator5testss_29test_timeout_config_constants
FNDA:1,_RNvNtNtNtCs2XshHk0aCOj_9paperboat5error12orchestrator5testss_30test_timeout_config_no_timeout
FNDA:1,_RNvNtNtNtCs2XshHk0aCOj_9paperboat5error12orchestrator5testss_30test_timeout_operation_display
FNF:15
FNH:13
DA:39,2
DA:40,2
DA:41,2
DA:42,0
DA:44,2
DA:60,48
DA:61,48
DA:62,48
DA:74,1
DA:75,1
DA:76,1
DA:77,1
DA:78,1
DA:79,1
DA:86,48
DA:87,48
DA:88,48
DA:89,48
DA:90,48
DA:91,48
DA:95,48
DA:96,48
DA:97,48
DA:98,48
DA:99,48
DA:103,48
DA:104,48
DA:105,48
DA:106,48
DA:107,48
DA:112,1
DA:113,1
DA:114,1
DA:115,1
DA:116,1
DA:117,1
DA:125,1
DA:127,1
DA:129,1
DA:130,1
DA:131,1
DA:134,1
DA:135,1
DA:136,1
DA:137,1
DA:138,1
DA:141,1
DA:142,1
DA:143,1
DA:144,1
DA:145,1
DA:148,1
DA:149,1
DA:150,1
DA:151,1
DA:152,1
DA:153,1
DA:154,1
DA:155,1
DA:156,1
DA:157,1
DA:158,1
DA:161,1
DA:162,1
DA:163,1
DA:166,1
DA:169,1
DA:171,1
DA:172,1
DA:173,1
BRF:0
BRH:0
LF:72
LH:69
end_of_record
SF:/Users/dbmrq/Documents/Programação/Misc/paperboat/src/error/task.rs
FN:89,_RNvNtNtNtCs2XshHk0aCOj_9paperboat5error4task5testss_22test_not_found_display
FN:147,_RNvNtNtNtCs2XshHk0aCOj_9paperboat5error4task5testss_26test_pending_tasks_display
FN:112,_RNvNtNtNtCs2XshHk0aCOj_9paperboat5error4task5testss_30test_dependency_failed_display
FN:124,_RNvNtNtNtCs2XshHk0aCOj_9paperboat5error4task5testss_30test_validation_failed_display
FN:134,_RNvNtNtNtCs2XshHk0aCOj_9paperboat5error4task5testss_32test_circular_dependency_display
FN:99,_RNvNtNtNtCs2XshHk0aCOj_9paperboat5error4task5testss_38test_invalid_status_transition_display
FNDA:1,_RNvNtNtNtCs2XshHk0aCOj_9paperboat5error4task5testss_22test_not_found_display
FNDA:1,_RNvNtNtNtCs2XshHk0aCOj_9paperboat5error4task5testss_26test_pending_tasks_display
FNDA:1,_RNvNtNtNtCs2XshHk0aCOj_9paperboat5error4task5testss_30test_dependency_failed_display
FNDA:1,_RNvNtNtNtCs2XshHk0aCOj_9paperboat5error4task5testss_30test_validation_failed_display
FNDA:1,_RNvNtNtNtCs2XshHk0aCOj_9paperboat5error4task5testss_32test_circular_dependency_display
FNDA:1,_RNvNtNtNtCs2XshHk0aCOj_9paperboat5error4task5testss_38test_invalid_status_transition_display
FNF:6
FNH:6
DA:89,1
DA:90,1
DA:91,1
DA:92,1
DA:93,1
DA:94,1
DA:95,1
DA:96,1
DA:99,1
DA:100,1
DA:101,1
DA:102,1
DA:103,1
DA:104,1
DA:105,1
DA:106,1
DA:107,1
DA:108,1
DA:109,1
DA:112,1
DA:113,1
DA:114,1
DA:115,1
DA:116,1
DA:117,1
DA:118,1
DA:119,1
DA:120,1
DA:121,1
DA:124,1
DA:125,1
DA:126,1
DA:127,1
DA:128,1
DA:129,1
DA:130,1
DA:131,1
DA:134,1
DA:135,1
DA:136,1
DA:137,1
DA:138,1
DA:139,1
DA:140,1
DA:141,1
DA:142,1
DA:143,1
DA:144,1
DA:147,1
DA:148,1
DA:149,1
DA:150,1
DA:151,1
DA:152,1
DA:153,1
DA:154,1
DA:155,1
DA:156,1
BRF:0
BRH:0
LF:58
LH:58
end_of_record
SF:/Users/dbmrq/Documents/Programação/Misc/paperboat/src/ipc/address.rs
FN:150,_RNvXs0_NtNtCs2XshHk0aCOj_9paperboat3ipc7addressNtB5_10IpcAddressINtNtCskpTlHb4dJmc_4core7convert4FromNtNtCs5mRiOBGo38Z_3std4path7PathBufE4from
FN:156,_RNvXs1_NtNtCs2XshHk0aCOj_9paperboat3ipc7addressNtB5_10IpcAddressINtNtCskpTlHb4dJmc_4core7convert4FromReE4from
FN:83,_RNvMNtNtCs2XshHk0aCOj_9paperboat3ipc7addressNtB2_10IpcAddress11from_string
FN:94,_RNvMNtNtCs2XshHk0aCOj_9paperboat3ipc7addressNtB2_10IpcAddress6as_str
FN:112,_RNvMNtNtCs2XshHk0aCOj_9paperboat3ipc7addressNtB2_10IpcAddress6exists
FN:103,_RNvMNtNtCs2XshHk0aCOj_9paperboat3ipc7addressNtB2_10IpcAddress7as_path
FN:130,_RNvMNtNtCs2XshHk0aCOj_9paperboat3ipc7addressNtB2_10IpcAddress7cleanup
FN:57,_RNvMNtNtCs2XshHk0aCOj_9paperboat3ipc7addressNtB2_10IpcAddress8generate
FN:144,_RNvXs_NtNtCs2XshHk0aCOj_9paperboat3ipc7addressNtB4_10IpcAddressNtNtCskpTlHb4dJmc_4core3fmt7Display3fmt
FNDA:0,_RNvXs0_NtNtCs2XshHk0aCOj_9paperboat3ipc7addressNtB5_10IpcAddressINtNtCskpTlHb4dJmc_4core7convert4FromNtNtCs5mRiOBGo38Z_3std4path7PathBufE4from
FNDA:0,_RNvXs1_NtNtCs2XshHk0aCOj_9paperboat3ipc7addressNtB5_10IpcAddressINtNtCskpTlHb4dJmc_4core7convert4FromReE4from
FNDA:55,_RNvMNtNtCs2XshHk0aCOj_9paperboat3ipc7addressNtB2_10IpcAddress11from_string
FNDA:162,_RNvMNtNtCs2XshHk0aCOj_9paperboat3ipc7addressNtB2_10IpcAddress6as_str
FNDA:7,_RNvMNtNtCs2XshHk0aCOj_9paperboat3ipc7addressNtB2_10IpcAddress6exists
FNDA:13,_RNvMNtNtCs2XshHk0aCOj_9paperboat3ipc7addressNtB2_10IpcAddress7as_path
FNDA:60,_RNvMNtNtCs2XshHk0aCOj_9paperboat3ipc7addressNtB2_10IpcAddress7cleanup
FNDA:24,_RNvMNtNtCs2XshHk0aCOj_9paperboat3ipc7addressNtB2_10IpcAddress8generate
FNDA:3,_RNvXs_NtNtCs2XshHk0aCOj_9paperboat3ipc7addressNtB4_10IpcAddressNtNtCskpTlHb4dJmc_4core3fmt7Display3fmt
FNF:9
FNH:7
DA:57,24
DA:58,24
DA:64,24
DA:65,24
DA:66,24
DA:76,24
DA:83,55
DA:84,55
DA:85,55
DA:86,55
DA:87,55
DA:94,162
DA:95,162
DA:96,162
DA:103,13
DA:104,13
DA:105,13
DA:112,7
DA:115,7
DA:124,7
DA:130,60
DA:132,60
DA:133,60
DA:134,60
DA:140,60
DA:144,3
DA:145,3
DA:146,3
DA:150,0
DA:151,0
DA:152,0
DA:156,0
DA:157,0
DA:158,0
BRF:0
BRH:0
LF:34
LH:28
end_of_record
SF:/Users/dbmrq/Documents/Programação/Misc/paperboat/src/ipc/error.rs
FN:52,_RNvXNtNtCs2XshHk0aCOj_9paperboat3ipc5errorNtB2_8IpcErrorNtNtCskpTlHb4dJmc_4core3fmt7Display3fmt
FN:68,_RNvXs_NtNtCs2XshHk0aCOj_9paperboat3ipc5errorNtB4_8IpcErrorNtNtCskpTlHb4dJmc_4core5error5Error6source
FNDA:0,_RNvXNtNtCs2XshHk0aCOj_9paperboat3ipc5errorNtB2_8IpcErrorNtNtCskpTlHb4dJmc_4core3fmt7Display3fmt
FNDA:0,_RNvXs_NtNtCs2XshHk0aCOj_9paperboat3ipc5errorNtB4_8IpcErrorNtNtCskpTlHb4dJmc_4core5error5Error6source
FNF:2
FNH:0
DA:52,0
DA:53,0
DA:54,0
DA:55,0
DA:57,0
DA:58,0
DA:60,0
DA:61,0
DA:64,0
DA:68,0
DA:69,0
DA:70,0
DA:71,0
DA:72,0
DA:74,0
BRF:0
BRH:0
LF:15
LH:0
end_of_record
SF:/Users/dbmrq/Documents/Programação/Misc/paperboat/src/ipc/stream.rs
FN:349,_RNvMs3_NtNtCs2XshHk0aCOj_9paperboat3ipc6streamNtB5_11IpcListener7address
FN:150,_RNvXs0_NtNtCs2XshHk0aCOj_9paperboat3ipc6streamNtB5_12IpcWriteHalfNtNtNtCskqwJ56VVSQA_5tokio2io11async_write10AsyncWrite13poll_shutdown
FN:213,_RNvXs2_NtNtCs2XshHk0aCOj_9paperboat3ipc6streamNtB5_9IpcStreamNtNtNtCskqwJ56VVSQA_5tokio2io11async_write10AsyncWrite13poll_shutdown
FN:86,_RNCNCNvMNtNtCs2XshHk0aCOj_9paperboat3ipc6streamNtB6_9IpcStream7connect00Ba_
FN:88,_RNCNCNvMNtNtCs2XshHk0aCOj_9paperboat3ipc6streamNtB6_9IpcStream7connect0s_0Ba_
FN:309,_RNCNCNvMs3_NtNtCs2XshHk0aCOj_9paperboat3ipc6streamNtB9_11IpcListener4bind00Bd_
FN:311,_RNCNCNvMs3_NtNtCs2XshHk0aCOj_9paperboat3ipc6streamNtB9_11IpcListener4bind0s_0Bd_
FN:337,_RNCNCNvMs3_NtNtCs2XshHk0aCOj_9paperboat3ipc6streamNtB9_11IpcListener6accept00Bd_
FN:338,_RNCNCNvMs3_NtNtCs2XshHk0aCOj_9paperboat3ipc6streamNtB9_11IpcListener6accept0s_0Bd_
FN:81,_RNCNvMNtNtCs2XshHk0aCOj_9paperboat3ipc6streamNtB4_9IpcStream7connect0B8_
FN:302,_RNCNvMs3_NtNtCs2XshHk0aCOj_9paperboat3ipc6streamNtB7_11IpcListener4bind0Bb_
FN:331,_RNCNvMs3_NtNtCs2XshHk0aCOj_9paperboat3ipc6streamNtB7_11IpcListener6accept0Bb_
FN:103,_RNvMNtNtCs2XshHk0aCOj_9paperboat3ipc6streamNtB2_9IpcStream10into_split
FN:81,_RNvMNtNtCs2XshHk0aCOj_9paperboat3ipc6streamNtB2_9IpcStream7connect
FN:302,_RNvMs3_NtNtCs2XshHk0aCOj_9paperboat3ipc6streamNtB5_11IpcListener4bind
FN:331,_RNvMs3_NtNtCs2XshHk0aCOj_9paperboat3ipc6streamNtB5_11IpcListener6accept
FN:146,_RNvXs0_NtNtCs2XshHk0aCOj_9paperboat3ipc6streamNtB5_12IpcWriteHalfNtNtNtCskqwJ56VVSQA_5tokio2io11async_write10AsyncWrite10poll_flush
FN:138,_RNvXs0_NtNtCs2XshHk0aCOj_9paperboat3ipc6streamNtB5_12IpcWriteHalfNtNtNtCskqwJ56VVSQA_5tokio2io11async_write10AsyncWrite10poll_write
FN:157,_RNvXs1_NtNtCs2XshHk0aCOj_9paperboat3ipc6streamNtB5_9IpcStreamNtNtNtCskqwJ56VVSQA_5tokio2io10async_read9AsyncRead9poll_read
FN:198,_RNvXs2_NtNtCs2XshHk0aCOj_9paperboat3ipc6streamNtB5_9IpcStreamNtNtNtCskqwJ56VVSQA_5tokio2io11async_write10AsyncWrite10poll_flush
FN:179,_RNvXs2_NtNtCs2XshHk0aCOj_9paperboat3ipc6streamNtB5_9IpcStreamNtNtNtCskqwJ56VVSQA_5tokio2io11async_write10AsyncWrite10poll_write
FN:128,_RNvXs_NtNtCs2XshHk0aCOj_9paperboat3ipc6streamNtB4_11IpcReadHalfNtNtNtCskqwJ56VVSQA_5tokio2io10async_read9AsyncRead9poll_read
FNDA:0,_RNvMs3_NtNtCs2XshHk0aCOj_9paperboat3ipc6streamNtB5_11IpcListener7address
FNDA:0,_RNvXs0_NtNtCs2XshHk0aCOj_9paperboat3ipc6streamNtB5_12IpcWriteHalfNtNtNtCskqwJ56VVSQA_5tokio2io11async_write10AsyncWrite13poll_shutdown
FNDA:0,_RNvXs2_NtNtCs2XshHk0aCOj_9paperboat3ipc6streamNtB5_9IpcStreamNtNtNtCskqwJ56VVSQA_5tokio2io11async_write10AsyncWrite13poll_shutdown
FNDA:4,_RNCNCNvMNtNtCs2XshHk0aCOj_9paperboat3ipc6streamNtB6_9IpcStream7connect00Ba_
FNDA:0,_RNCNCNvMNtNtCs2XshHk0aCOj_9paperboat3ipc6streamNtB6_9IpcStream7connect0s_0Ba_
FNDA:9,_RNCNCNvMs3_NtNtCs2XshHk0aCOj_9paperboat3ipc6streamNtB9_11IpcListener4bind00Bd_
FNDA:0,_RNCNCNvMs3_NtNtCs2XshHk0aCOj_9paperboat3ipc6streamNtB9_11IpcListener4bind0s_0Bd_
FNDA:4,_RNCNCNvMs3_NtNtCs2XshHk0aCOj_9paperboat3ipc6streamNtB9_11IpcListener6accept00Bd_
FNDA:0,_RNCNCNvMs3_NtNtCs2XshHk0aCOj_9paperboat3ipc6streamNtB9_11IpcListener6accept0s_0Bd_
FNDA:4,_RNCNvMNtNtCs2XshHk0aCOj_9paperboat3ipc6streamNtB4_9IpcStream7connect0B8_
FNDA:9,_RNCNvMs3_NtNtCs2XshHk0aCOj_9paperboat3ipc6streamNtB7_11IpcListener4bind0Bb_
FNDA:12,_RNCNvMs3_NtNtCs2XshHk0aCOj_9paperboat3ipc6streamNtB7_11IpcListener6accept0Bb_
FNDA:7,_RNvMNtNtCs2XshHk0aCOj_9paperboat3ipc6streamNtB2_9IpcStream10into_split
FNDA:4,_RNvMNtNtCs2XshHk0aCOj_9paperboat3ipc6streamNtB2_9IpcStream7connect
FNDA:9,_RNvMs3_NtNtCs2XshHk0aCOj_9paperboat3ipc6streamNtB5_11IpcListener4bind
FNDA:12,_RNvMs3_NtNtCs2XshHk0aCOj_9paperboat3ipc6streamNtB5_11IpcListener6accept
FNDA:5,_RNvXs0_NtNtCs2XshHk0aCOj_9paperboat3ipc6streamNtB5_12IpcWriteHalfNtNtNtCskqwJ56VVSQA_5tokio2io11async_write10AsyncWrite10poll_flush
FNDA:7,_RNvXs0_NtNtCs2XshHk0aCOj_9paperboat3ipc6streamNtB5_12IpcWriteHalfNtNtNtCskqwJ56VVSQA_5tokio2io11async_write10AsyncWrite10poll_write
FNDA:12,_RNvXs1_NtNtCs2XshHk0aCOj_9paperboat3ipc6streamNtB5_9IpcStreamNtNtNtCskqwJ56VVSQA_5tokio2io10async_read9AsyncRead9poll_read
FNDA:5,_RNvXs2_NtNtCs2XshHk0aCOj_9paperboat3ipc6streamNtB5_9IpcStreamNtNtNtCskqwJ56VVSQA_5tokio2io11async_write10AsyncWrite10poll_flush
FNDA:7,_RNvXs2_NtNtCs2XshHk0aCOj_9paperboat3ipc6streamNtB5_9IpcStreamNtNtNtCskqwJ56VVSQA_5tokio2io11async_write10AsyncWrite10poll_write
FNDA:12,_RNvXs_NtNtCs2XshHk0aCOj_9paperboat3ipc6streamNtB4_11IpcReadHalfNtNtNtCskqwJ56VVSQA_5tokio2io10async_read9AsyncRead9poll_read
FNF:22
FNH:16
DA:81,4
DA:84,4
DA:85,4
DA:86,4
DA:87,4
DA:88,0
DA:89,0
DA:90,0
DA:97,4
DA:103,7
DA:104,7
DA:105,7
DA:106,7
DA:128,12
DA:129,12
DA:130,12
DA:131,12
DA:132,12
DA:133,12
DA:134,12
DA:138,7
DA:139,7
DA:140,7
DA:141,7
DA:142,7
DA:143,7
DA:144,7
DA:146,5
DA:147,5
DA:148,5
DA:150,0
DA:151,0
DA:152,0
DA:157,12
DA:158,12
DA:159,12
DA:160,12
DA:161,12
DA:164,12
DA:174,12
DA:179,7
DA:180,7
DA:181,7
DA:182,7
DA:183,7
DA:186,7
DA:196,7
DA:198,5
DA:201,5
DA:211,5
DA:213,0
DA:216,0
DA:226,0
DA:302,9
DA:306,9
DA:308,9
DA:309,9
DA:310,9
DA:311,0
DA:312,0
DA:313,0
DA:320,9
DA:331,12
DA:334,12
DA:335,12
DA:336,12
DA:337,4
DA:338,4
DA:345,4
DA:349,0
DA:353,0
DA:360,0
BRF:0
BRH:0
LF:79
LH:63
end_of_record
SF:/Users/dbmrq/Documents/Programação/Misc/paperboat/src/ipc/unix.rs
FN:80,_RNvNtNtNtCs2XshHk0aCOj_9paperboat3ipc4unix5testss_19test_ipc_round_trip
FN:63,_RNCNCNvNtNtCs2XshHk0aCOj_9paperboat3ipc4unix18connect_with_retry00B9_
FN:31,_RNCNvNtNtCs2XshHk0aCOj_9paperboat3ipc4unix18connect_with_retry0B7_
FN:31,_RNvNtNtCs2XshHk0aCOj_9paperboat3ipc4unix18connect_with_retry
FN:89,_RNCNCNvNtNtNtCs2XshHk0aCOj_9paperboat3ipc4unix5testss_19test_ipc_round_trip00Bb_
FN:80,_RNCNvNtNtNtCs2XshHk0aCOj_9paperboat3ipc4unix5testss_19test_ipc_round_trip0B9_
FNDA:1,_RNvNtNtNtCs2XshHk0aCOj_9paperboat3ipc4unix5testss_19test_ipc_round_trip
FNDA:0,_RNCNCNvNtNtCs2XshHk0aCOj_9paperboat3ipc4unix18connect_with_retry00B9_
FNDA:0,_RNCNvNtNtCs2XshHk0aCOj_9paperboat3ipc4unix18connect_with_retry0B7_
FNDA:0,_RNvNtNtCs2XshHk0aCOj_9paperboat3ipc4unix18connect_with_retry
FNDA:1,_RNCNCNvNtNtNtCs2XshHk0aCOj_9paperboat3ipc4unix5testss_19test_ipc_round_trip00Bb_
FNDA:1,_RNCNvNtNtNtCs2XshHk0aCOj_9paperboat3ipc4unix5testss_19test_ipc_round_trip0B9_
FNF:6
FNH:3
DA:31,0
DA:33,0
DA:34,0
DA:37,0
DA:38,0
DA:39,0
DA:41,0
DA:42,0
DA:43,0
DA:44,0
DA:45,0
DA:46,0
DA:47,0
DA:48,0
DA:50,0
DA:51,0
DA:52,0
DA:55,0
DA:56,0
DA:62,0
DA:63,0
DA:64,0
DA:67,0
DA:70,0
DA:71,0
DA:80,1
DA:82,1
DA:85,1
DA:88,1
DA:89,1
DA:90,1
DA:91,1
DA:92,1
DA:94,1
DA:95,1
DA:96,1
DA:98,1
DA:99,1
DA:100,1
DA:103,1
DA:106,1
DA:107,1
DA:108,1
DA:111,1
DA:112,1
DA:115,1
DA:116,1
DA:117,1
DA:120,1
DA:123,1
DA:124,1
BRF:0
BRH:0
LF:56
LH:29
end_of_record
SF:/Users/dbmrq/Documents/Programação/Misc/paperboat/src/logging/manager.rs
FN:63,_RNvMNtNtCs2XshHk0aCOj_9paperboat7logging7managerNtB2_13RunLogManager12event_sender
FN:111,_RNvNtNtNtCs2XshHk0aCOj_9paperboat7logging7manager5testss_14test_subscribe
FN:101,_RNvNtNtNtCs2XshHk0aCOj_9paperboat7logging7manager5testss_15test_root_scope
FN:74,_RNvNtNtNtCs2XshHk0aCOj_9paperboat7logging7manager5testss_21test_run_dir_creation
FN:137,_RNvNtNtNtCs2XshHk0aCOj_9paperboat7logging7manager5testss_35test_always_planner_first_structure
FN:52,_RNvMNtNtCs2XshHk0aCOj_9paperboat7logging7managerNtB2_13RunLogManager10root_scope
FN:38,_RNvMNtNtCs2XshHk0aCOj_9paperboat7logging7managerNtB2_13RunLogManager12with_run_dir
FN:24,_RNvMNtNtCs2XshHk0aCOj_9paperboat7logging7managerNtB2_13RunLogManager3new
FN:45,_RNvMNtNtCs2XshHk0aCOj_9paperboat7logging7managerNtB2_13RunLogManager7run_dir
FN:58,_RNvMNtNtCs2XshHk0aCOj_9paperboat7logging7managerNtB2_13RunLogManager9subscribe
FN:111,_RNCNvNtNtNtCs2XshHk0aCOj_9paperboat7logging7manager5testss_14test_subscribe0B9_
FN:137,_RNCNvNtNtNtCs2XshHk0aCOj_9paperboat7logging7manager5testss_35test_always_planner_first_structure0B9_
FNDA:0,_RNvMNtNtCs2XshHk0aCOj_9paperboat7logging7managerNtB2_13RunLogManager12event_sender
FNDA:1,_RNvNtNtNtCs2XshHk0aCOj_9paperboat7logging7manager5testss_14test_subscribe
FNDA:1,_RNvNtNtNtCs2XshHk0aCOj_9paperboat7logging7manager5testss_15test_root_scope
FNDA:1,_RNvNtNtNtCs2XshHk0aCOj_9paperboat7logging7manager5testss_21test_run_dir_creation
FNDA:1,_RNvNtNtNtCs2XshHk0aCOj_9paperboat7logging7manager5testss_35test_always_planner_first_structure
FNDA:50,_RNvMNtNtCs2XshHk0aCOj_9paperboat7logging7managerNtB2_13RunLogManager10root_scope
FNDA:3,_RNvMNtNtCs2XshHk0aCOj_9paperboat7logging7managerNtB2_13RunLogManager12with_run_dir
FNDA:48,_RNvMNtNtCs2XshHk0aCOj_9paperboat7logging7managerNtB2_13RunLogManager3new
FNDA:46,_RNvMNtNtCs2XshHk0aCOj_9paperboat7logging7managerNtB2_13RunLogManager7run_dir
FNDA:1,_RNvMNtNtCs2XshHk0aCOj_9paperboat7logging7managerNtB2_13RunLogManager9subscribe
FNDA:1,_RNCNvNtNtNtCs2XshHk0aCOj_9paperboat7logging7manager5testss_14test_subscribe0B9_
FNDA:1,_RNCNvNtNtNtCs2XshHk0aCOj_9paperboat7logging7manager5testss_35test_always_planner_first_structure0B9_
FNF:12
FNH:11
DA:24,48
DA:25,48
DA:26,48
DA:27,48
DA:29,48
DA:31,48
DA:33,48
DA:34,48
DA:38,3
DA:39,3
DA:40,3
DA:41,3
DA:42,3
DA:45,46
DA:46,46
DA:47,46
DA:52,50
DA:53,50
DA:54,50
DA:58,1
DA:59,1
DA:60,1
DA:63,0
DA:64,0
DA:65,0
DA:74,1
DA:75,1
DA:76,1
DA:79,1
DA:82,1
DA:83,1
DA:86,1
DA:89,1
DA:90,1
DA:93,1
DA:94,1
DA:97,1
DA:98,1
DA:101,1
DA:102,1
DA:103,1
DA:105,1
DA:106,1
DA:107,1
DA:108,1
DA:111,1
DA:112,1
DA:113,1
DA:115,1
DA:116,1
DA:119,1
DA:122,1
DA:123,1
DA:124,1
DA:125,1
DA:126,1
DA:127,1
DA:128,1
DA:129,1
DA:130,1
DA:131,1
DA:132,1
DA:133,1
DA:134,1
DA:137,1
DA:138,1
DA:139,1
DA:140,1
DA:141,1
DA:144,1
DA:145,1
DA:146,1
DA:149,1
DA:150,1
DA:151,1
DA:152,1
BRF:0
BRH:0
LF:85
LH:81
end_of_record
SF:/Users/dbmrq/Documents/Programação/Misc/paperboat/src/logging/scope.rs
FN:196,_RNCNvNtNtNtCs2XshHk0aCOj_9paperboat7logging5scope5testss_19test_full_hierarchy0B9_
FN:184,_RNCNvNtNtNtCs2XshHk0aCOj_9paperboat7logging5scope5testss_25test_self_improver_writer0B9_
FN:129,_RNCNvNtNtNtCs2XshHk0aCOj_9paperboat7logging5scope5testss_28test_concurrent_implementers0B9_
FN:149,_RNCNvNtNtNtCs2XshHk0aCOj_9paperboat7logging5scope5testss_37test_child_scope_creates_subdirectory0B9_
FN:171,_RNCNvNtNtNtCs2XshHk0aCOj_9paperboat7logging5scope5testss_37test_planner_and_orchestrator_writers0B9_
FN:93,_RNCNvMNtNtCs2XshHk0aCOj_9paperboat7logging5scopeNtB4_8LogScope11child_scope0B8_
FN:41,_RNCNvMNtNtCs2XshHk0aCOj_9paperboat7logging5scopeNtB4_8LogScope14planner_writer0B8_
FN:65,_RNCNvMNtNtCs2XshHk0aCOj_9paperboat7logging5scopeNtB4_8LogScope18implementer_writer0B8_
FN:53,_RNCNvMNtNtCs2XshHk0aCOj_9paperboat7logging5scopeNtB4_8LogScope19orchestrator_writer0B8_
FN:81,_RNCNvMNtNtCs2XshHk0aCOj_9paperboat7logging5scopeNtB4_8LogScope20self_improver_writer0B8_
FN:196,_RNvNtNtNtCs2XshHk0aCOj_9paperboat7logging5scope5testss_19test_full_hierarchy
FN:184,_RNvNtNtNtCs2XshHk0aCOj_9paperboat7logging5scope5testss_25test_self_improver_writer
FN:129,_RNvNtNtNtCs2XshHk0aCOj_9paperboat7logging5scope5testss_28test_concurrent_implementers
FN:149,_RNvNtNtNtCs2XshHk0aCOj_9paperboat7logging5scope5testss_37test_child_scope_creates_subdirectory
FN:171,_RNvNtNtNtCs2XshHk0aCOj_9paperboat7logging5scope5testss_37test_planner_and_orchestrator_writers
FN:93,_RNvMNtNtCs2XshHk0aCOj_9paperboat7logging5scopeNtB2_8LogScope11child_scope
FN:41,_RNvMNtNtCs2XshHk0aCOj_9paperboat7logging5scopeNtB2_8LogScope14planner_writer
FN:65,_RNvMNtNtCs2XshHk0aCOj_9paperboat7logging5scopeNtB2_8LogScope18implementer_writer
FN:53,_RNvMNtNtCs2XshHk0aCOj_9paperboat7logging5scopeNtB2_8LogScope19orchestrator_writer
FN:81,_RNvMNtNtCs2XshHk0aCOj_9paperboat7logging5scopeNtB2_8LogScope20self_improver_writer
FN:112,_RNvMNtNtCs2XshHk0aCOj_9paperboat7logging5scopeNtB2_8LogScope3dir
FN:29,_RNvMNtNtCs2XshHk0aCOj_9paperboat7logging5scopeNtB2_8LogScope3new
FN:118,_RNvMNtNtCs2XshHk0aCOj_9paperboat7logging5scopeNtB2_8LogScope5depth
FNDA:1,_RNCNvNtNtNtCs2XshHk0aCOj_9paperboat7logging5scope5testss_19test_full_hierarchy0B9_
FNDA:1,_RNCNvNtNtNtCs2XshHk0aCOj_9paperboat7logging5scope5testss_25test_self_improver_writer0B9_
FNDA:1,_RNCNvNtNtNtCs2XshHk0aCOj_9paperboat7logging5scope5testss_28test_concurrent_implementers0B9_
FNDA:1,_RNCNvNtNtNtCs2XshHk0aCOj_9paperboat7logging5scope5testss_37test_child_scope_creates_subdirectory0B9_
FNDA:1,_RNCNvNtNtNtCs2XshHk0aCOj_9paperboat7logging5scope5testss_37test_planner_and_orchestrator_writers0B9_
FNDA:10,_RNCNvMNtNtCs2XshHk0aCOj_9paperboat7logging5scopeNtB4_8LogScope11child_scope0B8_
FNDA:52,_RNCNvMNtNtCs2XshHk0aCOj_9paperboat7logging5scopeNtB4_8LogScope14planner_writer0B8_
FNDA:74,_RNCNvMNtNtCs2XshHk0aCOj_9paperboat7logging5scopeNtB4_8LogScope18implementer_writer0B8_
FNDA:50,_RNCNvMNtNtCs2XshHk0aCOj_9paperboat7logging5scopeNtB4_8LogScope19orchestrator_writer0B8_
FNDA:2,_RNCNvMNtNtCs2XshHk0aCOj_9paperboat7logging5scopeNtB4_8LogScope20self_improver_writer0B8_
FNDA:1,_RNvNtNtNtCs2XshHk0aCOj_9paperboat7logging5scope5testss_19test_full_hierarchy
FNDA:1,_RNvNtNtNtCs2XshHk0aCOj_9paperboat7logging5scope5testss_25test_self_improver_writer
FNDA:1,_RNvNtNtNtCs2XshHk0aCOj_9paperboat7logging5scope5testss_28test_concurrent_implementers
FNDA:1,_RNvNtNtNtCs2XshHk0aCOj_9paperboat7logging5scope5testss_37test_child_scope_creates_subdirectory
FNDA:1,_RNvNtNtNtCs2XshHk0aCOj_9paperboat7logging5scope5testss_37test_planner_and_orchestrator_writers
FNDA:10,_RNvMNtNtCs2XshHk0aCOj_9paperboat7logging5scopeNtB2_8LogScope11child_scope
FNDA:52,_RNvMNtNtCs2XshHk0aCOj_9paperboat7logging5scopeNtB2_8LogScope14planner_writer
FNDA:74,_RNvMNtNtCs2XshHk0aCOj_9paperboat7logging5scopeNtB2_8LogScope18implementer_writer
FNDA:50,_RNvMNtNtCs2XshHk0aCOj_9paperboat7logging5scopeNtB2_8LogScope19orchestrator_writer
FNDA:2,_RNvMNtNtCs2XshHk0aCOj_9paperboat7logging5scopeNtB2_8LogScope20self_improver_writer
FNDA:44,_RNvMNtNtCs2XshHk0aCOj_9paperboat7logging5scopeNtB2_8LogScope3dir
FNDA:66,_RNvMNtNtCs2XshHk0aCOj_9paperboat7logging5scopeNtB2_8LogScope3new
FNDA:225,_RNvMNtNtCs2XshHk0aCOj_9paperboat7logging5scopeNtB2_8LogScope5depth
FNF:23
FNH:23
DA:29,66
DA:30,66
DA:31,66
DA:32,66
DA:33,66
DA:34,66
DA:35,66
DA:36,66
DA:37,66
DA:41,52
DA:42,52
DA:43,52
DA:44,52
DA:45,52
DA:46,52
DA:47,52
DA:48,52
DA:49,52
DA:53,50
DA:54,50
DA:55,50
DA:56,50
DA:57,50
DA:58,50
DA:59,50
DA:60,50
DA:61,50
DA:65,74
DA:66,74
DA:67,74
DA:68,74
DA:70,74
DA:71,74
DA:72,74
DA:73,74
DA:74,74
DA:75,74
DA:76,74
DA:77,74
DA:81,2
DA:82,2
DA:83,2
DA:84,2
DA:85,2
DA:86,2
DA:87,2
DA:88,2
DA:89,2
DA:93,10
DA:94,10
DA:95,10
DA:96,10
DA:98,10
DA:101,10
DA:102,10
DA:103,10
DA:104,10
DA:105,10
DA:106,10
DA:108,10
DA:109,10
DA:112,44
DA:113,44
DA:114,44
DA:118,225
DA:119,225
DA:120,225
DA:129,1
DA:130,1
DA:131,1
DA:132,1
DA:134,1
DA:135,1
DA:136,1
DA:138,1
DA:139,1
DA:140,1
DA:143,1
DA:144,1
DA:145,1
DA:146,1
DA:149,1
DA:150,1
DA:151,1
DA:152,1
DA:154,1
DA:155,1
DA:157,1
DA:158,1
DA:161,1
DA:162,1
DA:165,1
DA:166,1
DA:167,1
DA:168,1
DA:171,1
DA:172,1
DA:173,1
DA:174,1
DA:176,1
DA:177,1
DA:179,1
DA:180,1
DA:181,1
DA:184,1
DA:185,1
DA:186,1
DA:187,1
DA:189,1
DA:191,1
DA:192,1
DA:193,1
DA:196,1
DA:197,1
DA:198,1
DA:199,1
DA:202,1
DA:203,1
DA:204,1
DA:207,1
DA:208,1
DA:209,1
DA:210,1
DA:213,1
DA:214,1
DA:217,1
DA:218,1
DA:219,1
DA:220,1
DA:221,1
DA:222,1
DA:223,1
DA:224,1
DA:225,1
DA:226,1
DA:227,1
BRF:0
BRH:0
LF:154
LH:154
end_of_record
SF:/Users/dbmrq/Documents/Programação/Misc/paperboat/src/logging/stream.rs
FN:109,_RNvNtNtNtCs2XshHk0aCOj_9paperboat7logging6stream5testss_23test_all_event_variants
FN:94,_RNvNtNtNtCs2XshHk0aCOj_9paperboat7logging6stream5testss_30test_log_event_clone_and_debug
FNDA:1,_RNvNtNtNtCs2XshHk0aCOj_9paperboat7logging6stream5testss_23test_all_event_variants
FNDA:1,_RNvNtNtNtCs2XshHk0aCOj_9paperboat7logging6stream5testss_30test_log_event_clone_and_debug
FNF:2
FNH:2
DA:94,1
DA:95,1
DA:96,1
DA:97,1
DA:98,1
DA:99,1
DA:100,1
DA:103,1
DA:104,1
DA:105,1
DA:106,1
DA:109,1
DA:110,1
DA:111,1
DA:112,1
DA:113,1
DA:114,1
DA:115,1
DA:116,1
DA:117,1
DA:118,1
DA:119,1
DA:120,1
DA:121,1
DA:122,1
DA:123,1
DA:124,1
DA:125,1
DA:126,1
DA:127,1
DA:128,1
DA:129,1
DA:130,1
DA:131,1
DA:132,1
DA:133,1
DA:134,1
DA:135,1
DA:136,1
DA:137,1
DA:138,1
DA:139,1
DA:140,1
DA:141,1
DA:142,1
DA:143,1
DA:144,1
DA:145,1
DA:146,1
DA:147,1
DA:148,1
DA:149,1
DA:150,1
DA:151,1
DA:152,1
DA:153,1
DA:154,1
DA:155,1
DA:156,1
DA:157,1
DA:158,1
DA:159,1
DA:160,1
DA:161,1
DA:162,1
DA:163,1
DA:164,1
DA:165,1
DA:166,1
DA:167,1
DA:168,1
DA:171,9
DA:172,9
DA:173,9
DA:174,9
DA:175,9
DA:176,1
BRF:0
BRH:0
LF:77
LH:77
end_of_record
SF:/Users/dbmrq/Documents/Programação/Misc/paperboat/src/logging/writer.rs
FN:394,_RNCNvNtNtNtCs2XshHk0aCOj_9paperboat7logging6writer5testss_21test_agent_type_names0B9_
FN:440,_RNCNvNtNtNtCs2XshHk0aCOj_9paperboat7logging6writer5testss_21test_broadcast_events0B9_
FN:409,_RNCNvNtNtNtCs2XshHk0aCOj_9paperboat7logging6writer5testss_22test_tool_call_logging0B9_
FN:475,_RNCNvNtNtNtCs2XshHk0aCOj_9paperboat7logging6writer5testss_29test_write_header_with_prompt0B9_
FN:369,_RNCNvNtNtNtCs2XshHk0aCOj_9paperboat7logging6writer5testss_30test_agent_writer_creates_file0B9_
FN:116,_RNCNCNvMs_NtNtCs2XshHk0aCOj_9paperboat7logging6writerNtB8_11AgentWriter12write_header00Bc_
FN:121,_RNCNCNvMs_NtNtCs2XshHk0aCOj_9paperboat7logging6writerNtB8_11AgentWriter12write_header0s_0Bc_
FN:147,_RNCNCNvMs_NtNtCs2XshHk0aCOj_9paperboat7logging6writerNtB8_11AgentWriter24write_header_with_prompt00Bc_
FN:152,_RNCNCNvMs_NtNtCs2XshHk0aCOj_9paperboat7logging6writerNtB8_11AgentWriter24write_header_with_prompt0s_0Bc_
FN:111,_RNCNvMs_NtNtCs2XshHk0aCOj_9paperboat7logging6writerNtB6_11AgentWriter12write_header0Ba_
FN:305,_RNCNvMs_NtNtCs2XshHk0aCOj_9paperboat7logging6writerNtB6_11AgentWriter12write_result0Ba_
FN:190,_RNCNvMs_NtNtCs2XshHk0aCOj_9paperboat7logging6writerNtB6_11AgentWriter15write_tool_call0Ba_
FN:313,_RNCNvMs_NtNtCs2XshHk0aCOj_9paperboat7logging6writerNtB6_11AgentWriter17write_spawn_error0Ba_
FN:253,_RNCNvMs_NtNtCs2XshHk0aCOj_9paperboat7logging6writerNtB6_11AgentWriter17write_tool_result0Ba_
FN:213,_RNCNvMs_NtNtCs2XshHk0aCOj_9paperboat7logging6writerNtB6_11AgentWriter19write_mcp_tool_call0Ba_
FN:170,_RNCNvMs_NtNtCs2XshHk0aCOj_9paperboat7logging6writerNtB6_11AgentWriter19write_message_chunk0Ba_
FN:234,_RNCNvMs_NtNtCs2XshHk0aCOj_9paperboat7logging6writerNtB6_11AgentWriter19write_tool_progress0Ba_
FN:280,_RNCNvMs_NtNtCs2XshHk0aCOj_9paperboat7logging6writerNtB6_11AgentWriter21write_mcp_tool_result0Ba_
FN:142,_RNCNvMs_NtNtCs2XshHk0aCOj_9paperboat7logging6writerNtB6_11AgentWriter24write_header_with_prompt0Ba_
FN:56,_RNCNvMs_NtNtCs2XshHk0aCOj_9paperboat7logging6writerNtB6_11AgentWriter3new0Ba_
FN:322,_RNCNvMs_NtNtCs2XshHk0aCOj_9paperboat7logging6writerNtB6_11AgentWriter8finalize0Ba_
FN:394,_RNvNtNtNtCs2XshHk0aCOj_9paperboat7logging6writer5testss_21test_agent_type_names
FN:440,_RNvNtNtNtCs2XshHk0aCOj_9paperboat7logging6writer5testss_21test_broadcast_events
FN:409,_RNvNtNtNtCs2XshHk0aCOj_9paperboat7logging6writer5testss_22test_tool_call_logging
FN:475,_RNvNtNtNtCs2XshHk0aCOj_9paperboat7logging6writer5testss_29test_write_header_with_prompt
FN:369,_RNvNtNtNtCs2XshHk0aCOj_9paperboat7logging6writer5testss_30test_agent_writer_creates_file
FN:23,_RNvMNtNtCs2XshHk0aCOj_9paperboat7logging6writerNtB2_9AgentType4name
FN:104,_RNvMs_NtNtCs2XshHk0aCOj_9paperboat7logging6writerNtB4_11AgentWriter10agent_name
FN:111,_RNvMs_NtNtCs2XshHk0aCOj_9paperboat7logging6writerNtB4_11AgentWriter12write_header
FN:305,_RNvMs_NtNtCs2XshHk0aCOj_9paperboat7logging6writerNtB4_11AgentWriter12write_result
FN:83,_RNvMs_NtNtCs2XshHk0aCOj_9paperboat7logging6writerNtB4_11AgentWriter14set_session_id
FN:190,_RNvMs_NtNtCs2XshHk0aCOj_9paperboat7logging6writerNtB4_11AgentWriter15write_tool_call
FN:313,_RNvMs_NtNtCs2XshHk0aCOj_9paperboat7logging6writerNtB4_11AgentWriter17write_spawn_error
FN:248,_RNvMs_NtNtCs2XshHk0aCOj_9paperboat7logging6writerNtB4_11AgentWriter17write_tool_result
FN:94,_RNvMs_NtNtCs2XshHk0aCOj_9paperboat7logging6writerNtB4_11AgentWriter18emit_agent_started
FN:209,_RNvMs_NtNtCs2XshHk0aCOj_9paperboat7logging6writerNtB4_11AgentWriter19write_mcp_tool_call
FN:170,_RNvMs_NtNtCs2XshHk0aCOj_9paperboat7logging6writerNtB4_11AgentWriter19write_message_chunk
FN:230,_RNvMs_NtNtCs2XshHk0aCOj_9paperboat7logging6writerNtB4_11AgentWriter19write_tool_progress
FN:275,_RNvMs_NtNtCs2XshHk0aCOj_9paperboat7logging6writerNtB4_11AgentWriter21write_mcp_tool_result
FN:138,_RNvMs_NtNtCs2XshHk0aCOj_9paperboat7logging6writerNtB4_11AgentWriter24write_header_with_prompt
FN:51,_RNvMs_NtNtCs2XshHk0aCOj_9paperboat7logging6writerNtB4_11AgentWriter3new
FN:73,_RNvMs_NtNtCs2XshHk0aCOj_9paperboat7logging6writerNtB4_11AgentWriter4path
FN:78,_RNvMs_NtNtCs2XshHk0aCOj_9paperboat7logging6writerNtB4_11AgentWriter5depth
FN:322,_RNvMs_NtNtCs2XshHk0aCOj_9paperboat7logging6writerNtB4_11AgentWriter8finalize
FN:88,_RNvMs_NtNtCs2XshHk0aCOj_9paperboat7logging6writerNtB4_11AgentWriter9set_model
FN:349,_RNvNtNtCs2XshHk0aCOj_9paperboat7logging6writer15format_duration
FNDA:1,_RNCNvNtNtNtCs2XshHk0aCOj_9paperboat7logging6writer5testss_21test_agent_type_names0B9_
FNDA:1,_RNCNvNtNtNtCs2XshHk0aCOj_9paperboat7logging6writer5testss_21test_broadcast_events0B9_
FNDA:1,_RNCNvNtNtNtCs2XshHk0aCOj_9paperboat7logging6writer5testss_22test_tool_call_logging0B9_
FNDA:1,_RNCNvNtNtNtCs2XshHk0aCOj_9paperboat7logging6writer5testss_29test_write_header_with_prompt0B9_
FNDA:1,_RNCNvNtNtNtCs2XshHk0aCOj_9paperboat7logging6writer5testss_30test_agent_writer_creates_file0B9_
FNDA:0,_RNCNCNvMs_NtNtCs2XshHk0aCOj_9paperboat7logging6writerNtB8_11AgentWriter12write_header00Bc_
FNDA:0,_RNCNCNvMs_NtNtCs2XshHk0aCOj_9paperboat7logging6writerNtB8_11AgentWriter12write_header0s_0Bc_
FNDA:159,_RNCNCNvMs_NtNtCs2XshHk0aCOj_9paperboat7logging6writerNtB8_11AgentWriter24write_header_with_prompt00Bc_
FNDA:158,_RNCNCNvMs_NtNtCs2XshHk0aCOj_9paperboat7logging6writerNtB8_11AgentWriter24write_header_with_prompt0s_0Bc_
FNDA:2,_RNCNvMs_NtNtCs2XshHk0aCOj_9paperboat7logging6writerNtB6_11AgentWriter12write_header0Ba_
FNDA:154,_RNCNvMs_NtNtCs2XshHk0aCOj_9paperboat7logging6writerNtB6_11AgentWriter12write_result0Ba_
FNDA:42,_RNCNvMs_NtNtCs2XshHk0aCOj_9paperboat7logging6writerNtB6_11AgentWriter15write_tool_call0Ba_
FNDA:1,_RNCNvMs_NtNtCs2XshHk0aCOj_9paperboat7logging6writerNtB6_11AgentWriter17write_spawn_error0Ba_
FNDA:43,_RNCNvMs_NtNtCs2XshHk0aCOj_9paperboat7logging6writerNtB6_11AgentWriter17write_tool_result0Ba_
FNDA:144,_RNCNvMs_NtNtCs2XshHk0aCOj_9paperboat7logging6writerNtB6_11AgentWriter19write_mcp_tool_call0Ba_
FNDA:481,_RNCNvMs_NtNtCs2XshHk0aCOj_9paperboat7logging6writerNtB6_11AgentWriter19write_message_chunk0Ba_
FNDA:0,_RNCNvMs_NtNtCs2XshHk0aCOj_9paperboat7logging6writerNtB6_11AgentWriter19write_tool_progress0Ba_
FNDA:144,_RNCNvMs_NtNtCs2XshHk0aCOj_9paperboat7logging6writerNtB6_11AgentWriter21write_mcp_tool_result0Ba_
FNDA:159,_RNCNvMs_NtNtCs2XshHk0aCOj_9paperboat7logging6writerNtB6_11AgentWriter24write_header_with_prompt0Ba_
FNDA:185,_RNCNvMs_NtNtCs2XshHk0aCOj_9paperboat7logging6writerNtB6_11AgentWriter3new0Ba_
FNDA:162,_RNCNvMs_NtNtCs2XshHk0aCOj_9paperboat7logging6writerNtB6_11AgentWriter8finalize0Ba_
FNDA:1,_RNvNtNtNtCs2XshHk0aCOj_9paperboat7logging6writer5testss_21test_agent_type_names
FNDA:1,_RNvNtNtNtCs2XshHk0aCOj_9paperboat7logging6writer5testss_21test_broadcast_events
FNDA:1,_RNvNtNtNtCs2XshHk0aCOj_9paperboat7logging6writer5testss_22test_tool_call_logging
FNDA:1,_RNvNtNtNtCs2XshHk0aCOj_9paperboat7logging6writer5testss_29test_write_header_with_prompt
FNDA:1,_RNvNtNtNtCs2XshHk0aCOj_9paperboat7logging6writer5testss_30test_agent_writer_creates_file
FNDA:282,_RNvMNtNtCs2XshHk0aCOj_9paperboat7logging6writerNtB2_9AgentType4name
FNDA:68,_RNvMs_NtNtCs2XshHk0aCOj_9paperboat7logging6writerNtB4_11AgentWriter10agent_name
FNDA:2,_RNvMs_NtNtCs2XshHk0aCOj_9paperboat7logging6writerNtB4_11AgentWriter12write_header
FNDA:154,_RNvMs_NtNtCs2XshHk0aCOj_9paperboat7logging6writerNtB4_11AgentWriter12write_result
FNDA:160,_RNvMs_NtNtCs2XshHk0aCOj_9paperboat7logging6writerNtB4_11AgentWriter14set_session_id
FNDA:42,_RNvMs_NtNtCs2XshHk0aCOj_9paperboat7logging6writerNtB4_11AgentWriter15write_tool_call
FNDA:1,_RNvMs_NtNtCs2XshHk0aCOj_9paperboat7logging6writerNtB4_11AgentWriter17write_spawn_error
FNDA:43,_RNvMs_NtNtCs2XshHk0aCOj_9paperboat7logging6writerNtB4_11AgentWriter17write_tool_result
FNDA:158,_RNvMs_NtNtCs2XshHk0aCOj_9paperboat7logging6writerNtB4_11AgentWriter18emit_agent_started
FNDA:144,_RNvMs_NtNtCs2XshHk0aCOj_9paperboat7logging6writerNtB4_11AgentWriter19write_mcp_tool_call
FNDA:481,_RNvMs_NtNtCs2XshHk0aCOj_9paperboat7logging6writerNtB4_11AgentWriter19write_message_chunk
FNDA:0,_RNvMs_NtNtCs2XshHk0aCOj_9paperboat7logging6writerNtB4_11AgentWriter19write_tool_progress
FNDA:144,_RNvMs_NtNtCs2XshHk0aCOj_9paperboat7logging6writerNtB4_11AgentWriter21write_mcp_tool_result
FNDA:159,_RNvMs_NtNtCs2XshHk0aCOj_9paperboat7logging6writerNtB4_11AgentWriter24write_header_with_prompt
FNDA:185,_RNvMs_NtNtCs2XshHk0aCOj_9paperboat7logging6writerNtB4_11AgentWriter3new
FNDA:5,_RNvMs_NtNtCs2XshHk0aCOj_9paperboat7logging6writerNtB4_11AgentWriter4path
FNDA:0,_RNvMs_NtNtCs2XshHk0aCOj_9paperboat7logging6writerNtB4_11AgentWriter5depth
FNDA:162,_RNvMs_NtNtCs2XshHk0aCOj_9paperboat7logging6writerNtB4_11AgentWriter8finalize
FNDA:158,_RNvMs_NtNtCs2XshHk0aCOj_9paperboat7logging6writerNtB4_11AgentWriter9set_model
FNDA:162,_RNvNtNtCs2XshHk0aCOj_9paperboat7logging6writer15format_duration
FNF:46
FNH:41
DA:23,282
DA:24,282
DA:25,77
DA:26,54
DA:27,148
DA:28,3
DA:30,282
DA:51,185
DA:52,185
DA:53,185
DA:54,185
DA:55,185
DA:56,185
DA:57,185
DA:59,185
DA:60,185
DA:61,185
DA:62,185
DA:63,185
DA:64,185
DA:65,185
DA:66,185
DA:67,185
DA:68,185
DA:69,185
DA:73,5
DA:74,5
DA:75,5
DA:78,0
DA:79,0
DA:80,0
DA:83,160
DA:84,160
DA:85,160
DA:88,158
DA:89,158
DA:90,158
DA:94,158
DA:95,158
DA:96,158
DA:97,158
DA:98,158
DA:99,158
DA:100,158
DA:101,158
DA:104,68
DA:105,68
DA:106,68
DA:111,2
DA:112,2
DA:113,2
DA:114,2
DA:115,2
DA:116,2
DA:117,2
DA:118,2
DA:119,2
DA:120,2
DA:121,2
DA:122,2
DA:123,2
DA:125,2
DA:130,2
DA:132,2
DA:133,2
DA:134,2
DA:138,159
DA:139,159
DA:140,159
DA:141,159
DA:142,159
DA:143,159
DA:144,159
DA:145,159
DA:146,159
DA:147,159
DA:148,159
DA:149,159
DA:150,159
DA:151,159
DA:152,159
DA:153,159
DA:154,159
DA:156,159
DA:161,159
DA:163,159
DA:165,159
DA:166,159
DA:167,159
DA:170,481
DA:171,481
DA:173,481
DA:176,481
DA:177,481
DA:178,481
DA:179,481
DA:180,481
DA:181,481
DA:183,481
DA:184,481
DA:190,42
DA:191,42
DA:192,42
DA:193,42
DA:195,42
DA:196,42
DA:197,42
DA:198,42
DA:199,42
DA:200,42
DA:202,42
DA:203,42
DA:209,144
DA:210,144
DA:211,144
DA:212,144
DA:213,144
DA:214,144
DA:215,144
DA:216,144
DA:218,144
DA:219,144
DA:220,144
DA:221,144
DA:222,144
DA:223,144
DA:225,144
DA:226,144
DA:230,0
DA:231,0
DA:232,0
DA:233,0
DA:234,0
DA:236,0
DA:237,0
DA:238,0
DA:239,0
DA:240,0
DA:241,0
DA:242,0
DA:244,0
DA:245,0
DA:248,43
DA:249,43
DA:250,43
DA:251,43
DA:252,43
DA:253,43
DA:255,43
DA:256,4
DA:258,4
DA:259,4
DA:260,39
DA:262,43
DA:263,43
DA:264,43
DA:265,43
DA:266,43
DA:267,43
DA:268,43
DA:270,43
DA:271,43
DA:275,144
DA:276,144
DA:277,144
DA:278,144
DA:279,144
DA:280,144
DA:281,144
DA:282,144
DA:283,134
DA:285,10
DA:288,144
DA:289,144
DA:290,144
DA:291,144
DA:293,144
DA:294,144
DA:295,144
DA:296,144
DA:297,144
DA:298,144
DA:299,144
DA:301,144
DA:302,144
DA:305,154
DA:306,154
DA:307,154
DA:308,154
DA:309,154
DA:313,1
DA:314,1
DA:316,1
DA:317,1
DA:318,1
DA:319,1
DA:322,162
DA:323,162
DA:324,162
DA:325,162
DA:326,162
DA:327,162
DA:329,162
DA:334,162
DA:335,162
DA:337,162
DA:338,162
DA:339,162
DA:340,162
DA:341,162
DA:342,162
DA:344,162
DA:345,162
DA:349,162
DA:350,162
DA:351,162
DA:352,162
DA:353,0
DA:354,0
DA:355,0
DA:356,162
DA:357,0
DA:359,162
DA:361,162
DA:369,1
DA:370,1
DA:371,1
DA:373,1
DA:374,1
DA:375,1
DA:376,1
DA:377,1
DA:378,1
DA:379,1
DA:380,1
DA:382,1
DA:383,1
DA:384,1
DA:386,1
DA:387,1
DA:388,1
DA:389,1
DA:390,1
DA:391,1
DA:394,1
DA:395,1
DA:396,1
DA:397,1
DA:398,1
DA:401,1
DA:402,1
DA:405,1
DA:406,1
DA:409,1
DA:410,1
DA:411,1
DA:413,1
DA:414,1
DA:415,1
DA:417,1
DA:418,1
DA:419,1
DA:420,1
DA:421,1
DA:422,1
DA:423,1
DA:424,1
DA:425,1
DA:426,1
DA:428,1
DA:429,1
DA:430,1
DA:434,1
DA:435,1
DA:436,1
DA:437,1
DA:440,1
DA:441,1
DA:442,1
DA:444,1
DA:445,1
DA:446,1
DA:447,1
DA:448,1
DA:449,1
DA:450,1
DA:451,1
DA:453,1
DA:454,1
DA:457,1
DA:458,1
DA:459,1
DA:460,1
DA:461,1
DA:462,1
DA:463,1
DA:464,1
DA:465,1
DA:466,1
DA:467,1
DA:468,1
DA:469,1
DA:470,1
DA:471,1
DA:472,1
DA:475,1
DA:476,1
DA:477,1
DA:479,1
DA:480,1
DA:481,1
DA:482,1
DA:483,1
DA:484,1
DA:485,1
DA:486,1
DA:488,1
DA:489,1
DA:490,1
DA:491,1
DA:492,1
DA:493,1
DA:495,1
DA:496,1
DA:497,1
DA:498,1
DA:499,1
DA:500,1
DA:501,1
DA:502,1
DA:503,1
BRF:0
BRH:0
LF:366
LH:341
end_of_record
SF:/Users/dbmrq/Documents/Programação/Misc/paperboat/src/main.rs
FN:312,_RNCNCNvCs2XshHk0aCOj_9paperboat4main00B5_
FN:315,_RNCNCNvCs2XshHk0aCOj_9paperboat4main0s0_0B5_
FN:333,_RNCNCNvCs2XshHk0aCOj_9paperboat4main0s1_0B5_
FN:423,_RNCNCNvCs2XshHk0aCOj_9paperboat4main0s2_0B5_
FN:431,_RNCNCNvCs2XshHk0aCOj_9paperboat4main0s3_0B5_
FN:617,_RNCNCNvCs2XshHk0aCOj_9paperboat4main0s4_0B5_
FN:718,_RNCNCNvCs2XshHk0aCOj_9paperboat4main0s5_0B5_
FN:313,_RNCNCNvCs2XshHk0aCOj_9paperboat4main0s_0B5_
FN:77,_RNCNvCs2XshHk0aCOj_9paperboat10parse_args0B3_
FN:84,_RNCNvCs2XshHk0aCOj_9paperboat10parse_argss0_0B3_
FN:90,_RNCNvCs2XshHk0aCOj_9paperboat10parse_argss1_0B3_
FN:91,_RNCNvCs2XshHk0aCOj_9paperboat10parse_argss2_0B3_
FN:92,_RNCNvCs2XshHk0aCOj_9paperboat10parse_argss3_0B3_
FN:124,_RNCNvCs2XshHk0aCOj_9paperboat10parse_argss4_0B3_
FN:139,_RNCNvCs2XshHk0aCOj_9paperboat10parse_argss5_0B3_
FN:143,_RNCNvCs2XshHk0aCOj_9paperboat10parse_argss6_0B3_
FN:81,_RNCNvCs2XshHk0aCOj_9paperboat10parse_argss_0B3_
FN:216,_RNCNvCs2XshHk0aCOj_9paperboat25prompt_goal_interactively0B3_
FN:285,_RNCNvCs2XshHk0aCOj_9paperboat4main0B3_
FN:72,_RNvCs2XshHk0aCOj_9paperboat10parse_args
FN:844,_RNvCs2XshHk0aCOj_9paperboat10print_help
FN:163,_RNvCs2XshHk0aCOj_9paperboat21resolve_goal_argument
FN:890,_RNvCs2XshHk0aCOj_9paperboat24run_validate_config_mode
FN:203,_RNvCs2XshHk0aCOj_9paperboat25prompt_goal_interactively
FN:285,_RNvCs2XshHk0aCOj_9paperboat4main
FNDA:0,_RNCNCNvCs2XshHk0aCOj_9paperboat4main00B5_
FNDA:0,_RNCNCNvCs2XshHk0aCOj_9paperboat4main0s0_0B5_
FNDA:0,_RNCNCNvCs2XshHk0aCOj_9paperboat4main0s1_0B5_
FNDA:0,_RNCNCNvCs2XshHk0aCOj_9paperboat4main0s2_0B5_
FNDA:0,_RNCNCNvCs2XshHk0aCOj_9paperboat4main0s3_0B5_
FNDA:0,_RNCNCNvCs2XshHk0aCOj_9paperboat4main0s4_0B5_
FNDA:0,_RNCNCNvCs2XshHk0aCOj_9paperboat4main0s5_0B5_
FNDA:0,_RNCNCNvCs2XshHk0aCOj_9paperboat4main0s_0B5_
FNDA:0,_RNCNvCs2XshHk0aCOj_9paperboat10parse_args0B3_
FNDA:0,_RNCNvCs2XshHk0aCOj_9paperboat10parse_argss0_0B3_
FNDA:0,_RNCNvCs2XshHk0aCOj_9paperboat10parse_argss1_0B3_
FNDA:0,_RNCNvCs2XshHk0aCOj_9paperboat10parse_argss2_0B3_
FNDA:0,_RNCNvCs2XshHk0aCOj_9paperboat10parse_argss3_0B3_
FNDA:0,_RNCNvCs2XshHk0aCOj_9paperboat10parse_argss4_0B3_
FNDA:0,_RNCNvCs2XshHk0aCOj_9paperboat10parse_argss5_0B3_
FNDA:0,_RNCNvCs2XshHk0aCOj_9paperboat10parse_argss6_0B3_
FNDA:0,_RNCNvCs2XshHk0aCOj_9paperboat10parse_argss_0B3_
FNDA:0,_RNCNvCs2XshHk0aCOj_9paperboat25prompt_goal_interactively0B3_
FNDA:0,_RNCNvCs2XshHk0aCOj_9paperboat4main0B3_
FNDA:0,_RNvCs2XshHk0aCOj_9paperboat10parse_args
FNDA:0,_RNvCs2XshHk0aCOj_9paperboat10print_help
FNDA:0,_RNvCs2XshHk0aCOj_9paperboat21resolve_goal_argument
FNDA:0,_RNvCs2XshHk0aCOj_9paperboat24run_validate_config_mode
FNDA:0,_RNvCs2XshHk0aCOj_9paperboat25prompt_goal_interactively
FNDA:0,_RNvCs2XshHk0aCOj_9paperboat4main
FNF:25
FNH:0
DA:72,0
DA:74,0
DA:76,0
DA:77,0
DA:78,0
DA:80,0
DA:81,0
DA:83,0
DA:84,0
DA:88,0
DA:89,0
DA:90,0
DA:91,0
DA:92,0
DA:93,0
DA:94,0
DA:95,0
DA:97,0
DA:112,0
DA:115,0
DA:119,0
DA:120,0
DA:121,0
DA:122,0
DA:123,0
DA:124,0
DA:126,0
DA:127,0
DA:128,0
DA:130,0
DA:131,0
DA:132,0
DA:133,0
DA:134,0
DA:135,0
DA:136,0
DA:137,0
DA:138,0
DA:139,0
DA:140,0
DA:143,0
DA:145,0
DA:146,0
DA:147,0
DA:148,0
DA:149,0
DA:150,0
DA:151,0
DA:152,0
DA:153,0
DA:154,0
DA:155,0
DA:163,0
DA:164,0
DA:167,0
DA:168,0
DA:169,0
DA:170,0
DA:171,0
DA:172,0
DA:173,0
DA:174,0
DA:175,0
DA:176,0
DA:178,0
DA:179,0
DA:180,0
DA:185,0
DA:186,0
DA:187,0
DA:189,0
DA:192,0
DA:203,0
DA:205,0
DA:206,0
DA:207,0
DA:209,0
DA:210,0
DA:211,0
DA:212,0
DA:215,0
DA:216,0
DA:217,0
DA:218,0
DA:222,0
DA:223,0
DA:224,0
DA:227,0
DA:231,0
DA:232,0
DA:233,0
DA:234,0
DA:238,0
DA:239,0
DA:244,0
DA:245,0
DA:246,0
DA:247,0
DA:248,0
DA:249,0
DA:250,0
DA:251,0
DA:254,0
DA:255,0
DA:256,0
DA:257,0
DA:261,0
DA:262,0
DA:263,0
DA:266,0
DA:267,0
DA:268,0
DA:272,0
DA:273,0
DA:274,0
DA:279,0
DA:281,0
DA:282,0
DA:285,0
DA:287,0
DA:288,0
DA:291,0
DA:292,0
DA:293,0
DA:294,0
DA:297,0
DA:298,0
DA:299,0
DA:303,0
DA:305,0
DA:306,0
DA:307,0
DA:310,0
DA:311,0
DA:312,0
DA:313,0
DA:314,0
DA:315,0
DA:316,0
DA:318,0
DA:319,0
DA:320,0
DA:321,0
DA:325,0
DA:326,0
DA:327,0
DA:328,0
DA:329,0
DA:332,0
DA:333,0
DA:334,0
DA:335,0
DA:338,0
DA:339,0
DA:344,0
DA:351,0
DA:352,0
DA:353,0
DA:355,0
DA:358,0
DA:369,0
DA:380,0
DA:382,0
DA:383,0
DA:384,0
DA:387,0
DA:390,0
DA:391,0
DA:392,0
DA:393,0
DA:394,0
DA:395,0
DA:396,0
DA:397,0
DA:398,0
DA:399,0
DA:400,0
DA:401,0
DA:402,0
DA:403,0
DA:404,0
DA:405,0
DA:406,0
DA:407,0
DA:408,0
DA:409,0
DA:410,0
DA:411,0
DA:412,0
DA:413,0
DA:416,0
DA:419,0
DA:420,0
DA:423,0
DA:424,0
DA:425,0
DA:427,0
DA:429,0
DA:430,0
DA:431,0
DA:434,0
DA:435,0
DA:436,0
DA:437,0
DA:438,0
DA:439,0
DA:440,0
DA:441,0
DA:442,0
DA:443,0
DA:444,0
DA:445,0
DA:446,0
DA:447,0
DA:448,0
DA:449,0
DA:450,0
DA:451,0
DA:452,0
DA:453,0
DA:454,0
DA:455,0
DA:456,0
DA:457,0
DA:458,0
DA:459,0
DA:460,0
DA:461,0
DA:462,0
DA:463,0
DA:464,0
DA:465,0
DA:466,0
DA:467,0
DA:468,0
DA:470,0
DA:476,0
DA:478,0
DA:479,0
DA:480,0
DA:482,0
DA:483,0
DA:486,0
DA:488,0
DA:490,0
DA:497,0
DA:503,0
DA:504,0
DA:505,0
DA:506,0
DA:507,0
DA:508,0
DA:513,0
DA:515,0
DA:516,0
DA:518,0
DA:519,0
DA:520,0
DA:523,0
DA:524,0
DA:525,0
DA:526,0
DA:530,0
DA:531,0
DA:532,0
DA:533,0
DA:553,0
DA:554,0
DA:555,0
DA:557,0
DA:558,0
DA:559,0
DA:613,0
DA:615,0
DA:616,0
DA:617,0
DA:618,0
DA:619,0
DA:620,0
DA:622,0
DA:626,0
DA:627,0
DA:628,0
DA:631,0
DA:638,0
DA:640,0
DA:643,0
DA:644,0
DA:646,0
DA:648,0
DA:649,0
DA:650,0
DA:653,0
DA:654,0
DA:655,0
DA:656,0
DA:657,0
DA:661,0
DA:663,0
DA:665,0
DA:666,0
DA:669,0
DA:671,0
DA:672,0
DA:673,0
DA:674,0
DA:678,0
DA:682,0
DA:684,0
DA:685,0
DA:694,0
DA:695,0
DA:696,0
DA:698,0
DA:700,0
DA:703,0
DA:704,0
DA:708,0
DA:709,0
DA:710,0
DA:713,0
DA:714,0
DA:717,0
DA:718,0
DA:722,0
DA:723,0
DA:724,0
DA:725,0
DA:726,0
DA:728,0
DA:729,0
DA:730,0
DA:732,0
DA:733,0
DA:735,0
DA:736,0
DA:741,0
DA:742,0
DA:743,0
DA:744,0
DA:762,0
DA:765,0
DA:766,0
DA:767,0
DA:768,0
DA:769,0
DA:770,0
DA:775,0
DA:780,0
DA:781,0
DA:782,0
DA:783,0
DA:784,0
DA:785,0
DA:786,0
DA:787,0
DA:788,0
DA:789,0
DA:790,0
DA:791,0
DA:792,0
DA:793,0
DA:794,0
DA:795,0
DA:796,0
DA:797,0
DA:798,0
DA:799,0
DA:800,0
DA:801,0
DA:802,0
DA:803,0
DA:804,0
DA:805,0
DA:806,0
DA:807,0
DA:808,0
DA:809,0
DA:810,0
DA:811,0
DA:812,0
DA:813,0
DA:814,0
DA:815,0
DA:816,0
DA:817,0
DA:818,0
DA:819,0
DA:820,0
DA:821,0
DA:822,0
DA:823,0
DA:824,0
DA:825,0
DA:826,0
DA:827,0
DA:828,0
DA:829,0
DA:830,0
DA:831,0
DA:832,0
DA:833,0
DA:834,0
DA:835,0
DA:836,0
DA:837,0
DA:838,0
DA:839,0
DA:840,0
DA:841,0
DA:844,0
DA:845,0
DA:883,0
DA:890,0
DA:891,0
DA:894,0
DA:895,0
DA:896,0
DA:897,0
DA:898,0
DA:901,0
DA:902,0
DA:903,0
DA:904,0
DA:905,0
DA:908,0
DA:909,0
DA:910,0
DA:911,0
DA:912,0
DA:915,0
DA:916,0
DA:917,0
DA:918,0
DA:919,0
DA:921,0
DA:922,0
DA:926,0
DA:928,0
DA:929,0
DA:930,0
DA:933,0
DA:934,0
DA:935,0
DA:936,0
DA:937,0
DA:939,0
DA:942,0
BRF:0
BRH:0
LF:499
LH:0
end_of_record
SF:/Users/dbmrq/Documents/Programação/Misc/paperboat/src/mcp_server/error.rs
FN:42,_RNvNtNtCs2XshHk0aCOj_9paperboat10mcp_server5error11parse_error
FN:97,_RNvNtNtCs2XshHk0aCOj_9paperboat10mcp_server5error14internal_error
FN:17,_RNvNtNtCs2XshHk0aCOj_9paperboat10mcp_server5error14json_rpc_error
FN:84,_RNvNtNtCs2XshHk0aCOj_9paperboat10mcp_server5error20invalid_params_error
FN:58,_RNvNtNtCs2XshHk0aCOj_9paperboat10mcp_server5error21invalid_request_error
FN:71,_RNvNtNtCs2XshHk0aCOj_9paperboat10mcp_server5error22method_not_found_error
FN:26,_RNvNtNtCs2XshHk0aCOj_9paperboat10mcp_server5error24json_rpc_error_with_data
FN:218,_RNvNtNtNtCs2XshHk0aCOj_9paperboat10mcp_server5error5testss_19test_internal_error
FN:200,_RNvNtNtNtCs2XshHk0aCOj_9paperboat10mcp_server5error5testss_25test_invalid_params_error
FN:169,_RNvNtNtNtCs2XshHk0aCOj_9paperboat10mcp_server5error5testss_26test_invalid_request_error
FN:116,_RNvNtNtNtCs2XshHk0aCOj_9paperboat10mcp_server5error5testss_27test_json_rpc_error_with_id
FN:182,_RNvNtNtNtCs2XshHk0aCOj_9paperboat10mcp_server5error5testss_27test_method_not_found_error
FN:136,_RNvNtNtNtCs2XshHk0aCOj_9paperboat10mcp_server5error5testss_29test_json_rpc_error_with_data
FN:149,_RNvNtNtNtCs2XshHk0aCOj_9paperboat10mcp_server5error5testss_29test_parse_error_with_preview
FN:127,_RNvNtNtNtCs2XshHk0aCOj_9paperboat10mcp_server5error5testss_30test_json_rpc_error_without_id
FN:161,_RNvNtNtNtCs2XshHk0aCOj_9paperboat10mcp_server5error5testss_32test_parse_error_without_preview
FN:240,_RNvNtNtNtCs2XshHk0aCOj_9paperboat10mcp_server5error5testss_38test_error_codes_are_standard_json_rpc
FNDA:2,_RNvNtNtCs2XshHk0aCOj_9paperboat10mcp_server5error11parse_error
FNDA:1,_RNvNtNtCs2XshHk0aCOj_9paperboat10mcp_server5error14internal_error
FNDA:2,_RNvNtNtCs2XshHk0aCOj_9paperboat10mcp_server5error14json_rpc_error
FNDA:6,_RNvNtNtCs2XshHk0aCOj_9paperboat10mcp_server5error20invalid_params_error
FNDA:3,_RNvNtNtCs2XshHk0aCOj_9paperboat10mcp_server5error21invalid_request_error
FNDA:3,_RNvNtNtCs2XshHk0aCOj_9paperboat10mcp_server5error22method_not_found_error
FNDA:16,_RNvNtNtCs2XshHk0aCOj_9paperboat10mcp_server5error24json_rpc_error_with_data
FNDA:1,_RNvNtNtNtCs2XshHk0aCOj_9paperboat10mcp_server5error5testss_19test_internal_error
FNDA:1,_RNvNtNtNtCs2XshHk0aCOj_9paperboat10mcp_server5error5testss_25test_invalid_params_error
FNDA:1,_RNvNtNtNtCs2XshHk0aCOj_9paperboat10mcp_server5error5testss_26test_invalid_request_error
FNDA:1,_RNvNtNtNtCs2XshHk0aCOj_9paperboat10mcp_server5error5testss_27test_json_rpc_error_with_id
FNDA:1,_RNvNtNtNtCs2XshHk0aCOj_9paperboat10mcp_server5error5testss_27test_method_not_found_error
FNDA:1,_RNvNtNtNtCs2XshHk0aCOj_9paperboat10mcp_server5error5testss_29test_json_rpc_error_with_data
FNDA:1,_RNvNtNtNtCs2XshHk0aCOj_9paperboat10mcp_server5error5testss_29test_parse_error_with_preview
FNDA:1,_RNvNtNtNtCs2XshHk0aCOj_9paperboat10mcp_server5error5testss_30test_json_rpc_error_without_id
FNDA:1,_RNvNtNtNtCs2XshHk0aCOj_9paperboat10mcp_server5error5testss_32test_parse_error_without_preview
FNDA:1,_RNvNtNtNtCs2XshHk0aCOj_9paperboat10mcp_server5error5testss_38test_error_codes_are_standard_json_rpc
FNF:17
FNH:17
DA:17,2
DA:18,2
DA:19,2
DA:20,2
DA:21,2
DA:23,2
DA:26,16
DA:27,16
DA:28,16
DA:29,16
DA:30,16
DA:31,16
DA:32,16
DA:33,16
DA:34,16
DA:35,16
DA:37,16
DA:42,2
DA:43,2
DA:44,1
DA:45,1
DA:47,2
DA:48,2
DA:50,2
DA:51,2
DA:53,2
DA:58,3
DA:59,3
DA:60,3
DA:61,3
DA:63,3
DA:64,3
DA:66,3
DA:71,3
DA:72,3
DA:73,3
DA:74,3
DA:76,3
DA:77,3
DA:79,3
DA:84,6
DA:85,6
DA:86,6
DA:87,6
DA:89,6
DA:90,6
DA:92,6
DA:97,1
DA:98,1
DA:99,1
DA:100,1
DA:102,1
DA:103,1
DA:105,1
DA:116,1
DA:117,1
DA:118,1
DA:120,1
DA:121,1
DA:122,1
DA:123,1
DA:124,1
DA:127,1
DA:128,1
DA:130,1
DA:131,1
DA:132,1
DA:133,1
DA:136,1
DA:137,1
DA:138,1
DA:139,1
DA:141,1
DA:142,1
DA:143,1
DA:144,1
DA:145,1
DA:146,1
DA:149,1
DA:150,1
DA:152,1
DA:153,1
DA:154,1
DA:155,1
DA:156,1
DA:157,1
DA:158,1
DA:161,1
DA:162,1
DA:164,1
DA:165,1
DA:166,1
DA:169,1
DA:170,1
DA:171,1
DA:173,1
DA:174,1
DA:175,1
DA:176,1
DA:177,1
DA:178,1
DA:179,1
DA:182,1
DA:183,1
DA:184,1
DA:186,1
DA:187,1
DA:188,1
DA:189,1
DA:190,1
DA:191,1
DA:192,1
DA:195,1
DA:196,1
DA:197,1
DA:200,1
DA:201,1
DA:202,1
DA:204,1
DA:205,1
DA:206,1
DA:207,1
DA:208,1
DA:209,1
DA:210,1
DA:211,1
DA:212,1
DA:213,1
DA:214,1
DA:215,1
DA:218,1
DA:219,1
DA:220,1
DA:222,1
DA:223,1
DA:224,1
DA:225,1
DA:226,1
DA:227,1
DA:228,1
DA:229,1
DA:230,1
DA:231,1
DA:232,1
DA:233,1
DA:240,1
DA:242,1
DA:243,1
DA:244,1
DA:245,1
DA:246,1
DA:247,1
BRF:0
BRH:0
LF:152
LH:152
end_of_record
SF:/Users/dbmrq/Documents/Programação/Misc/paperboat/src/mcp_server/handlers/mod.rs
FN:24,_RNvNtNtCs2XshHk0aCOj_9paperboat10mcp_server8handlers14handle_request
FN:128,_RNvNtNtCs2XshHk0aCOj_9paperboat10mcp_server8handlers16handle_tool_call
FN:57,_RNvNtNtCs2XshHk0aCOj_9paperboat10mcp_server8handlers17handle_initialize
FN:77,_RNvNtNtCs2XshHk0aCOj_9paperboat10mcp_server8handlers17handle_tools_list
FN:145,_RNCNCNvNtNtCs2XshHk0aCOj_9paperboat10mcp_server8handlers16handle_tool_call00B9_
FN:157,_RNCNCNvNtNtCs2XshHk0aCOj_9paperboat10mcp_server8handlers16handle_tool_call0s_0B9_
FN:24,_RNCNvNtNtCs2XshHk0aCOj_9paperboat10mcp_server8handlers14handle_request0B7_
FN:132,_RNCNvNtNtCs2XshHk0aCOj_9paperboat10mcp_server8handlers16handle_tool_call0B7_
FN:80,_RNCNvNtNtCs2XshHk0aCOj_9paperboat10mcp_server8handlers17handle_tools_list0B7_
FN:629,_RNCNCNCNvNtNtNtCs2XshHk0aCOj_9paperboat10mcp_server8handlers5testss_31test_skip_tasks_tool_definition000Bd_
FN:294,_RNCNCNvNtNtNtCs2XshHk0aCOj_9paperboat10mcp_server8handlers5tests18extract_tool_names00Bb_
FN:304,_RNCNCNvNtNtNtCs2XshHk0aCOj_9paperboat10mcp_server8handlers5testss_24test_planner_tool_access00Bb_
FN:422,_RNCNCNvNtNtNtCs2XshHk0aCOj_9paperboat10mcp_server8handlers5testss_28test_implementer_tool_access00Bb_
FN:363,_RNCNCNvNtNtNtCs2XshHk0aCOj_9paperboat10mcp_server8handlers5testss_29test_orchestrator_tool_access00Bb_
FN:610,_RNCNCNvNtNtNtCs2XshHk0aCOj_9paperboat10mcp_server8handlers5testss_31test_skip_tasks_tool_definition00Bb_
FN:540,_RNCNCNvNtNtNtCs2XshHk0aCOj_9paperboat10mcp_server8handlers5testss_39test_mcp_tools_match_centralized_config00Bb_
FN:657,_RNCNCNvNtNtNtCs2XshHk0aCOj_9paperboat10mcp_server8handlers5testss_41test_skip_tasks_not_available_to_planners00Bb_
FN:511,_RNCNCNvNtNtNtCs2XshHk0aCOj_9paperboat10mcp_server8handlers5testss_48test_missing_agent_type_defaults_to_orchestrator00Bb_
FN:475,_RNCNCNvNtNtNtCs2XshHk0aCOj_9paperboat10mcp_server8handlers5testss_48test_unknown_agent_type_defaults_to_orchestrator00Bb_
FN:291,_RNCNvNtNtNtCs2XshHk0aCOj_9paperboat10mcp_server8handlers5tests18extract_tool_names0B9_
FN:304,_RNCNvNtNtNtCs2XshHk0aCOj_9paperboat10mcp_server8handlers5testss_24test_planner_tool_access0B9_
FN:422,_RNCNvNtNtNtCs2XshHk0aCOj_9paperboat10mcp_server8handlers5testss_28test_implementer_tool_access0B9_
FN:363,_RNCNvNtNtNtCs2XshHk0aCOj_9paperboat10mcp_server8handlers5testss_29test_orchestrator_tool_access0B9_
FN:610,_RNCNvNtNtNtCs2XshHk0aCOj_9paperboat10mcp_server8handlers5testss_31test_skip_tasks_tool_definition0B9_
FN:540,_RNCNvNtNtNtCs2XshHk0aCOj_9paperboat10mcp_server8handlers5testss_39test_mcp_tools_match_centralized_config0B9_
FN:657,_RNCNvNtNtNtCs2XshHk0aCOj_9paperboat10mcp_server8handlers5testss_41test_skip_tasks_not_available_to_planners0B9_
FN:511,_RNCNvNtNtNtCs2XshHk0aCOj_9paperboat10mcp_server8handlers5testss_48test_missing_agent_type_defaults_to_orchestrator0B9_
FN:475,_RNCNvNtNtNtCs2XshHk0aCOj_9paperboat10mcp_server8handlers5testss_48test_unknown_agent_type_defaults_to_orchestrator0B9_
FN:288,_RNvNtNtNtCs2XshHk0aCOj_9paperboat10mcp_server8handlers5tests18extract_tool_names
FN:681,_RNvNtNtNtCs2XshHk0aCOj_9paperboat10mcp_server8handlers5testss_27test_parse_skip_tasks_valid
FN:706,_RNvNtNtNtCs2XshHk0aCOj_9paperboat10mcp_server8handlers5testss_36test_parse_skip_tasks_without_reason
FNDA:23,_RNvNtNtCs2XshHk0aCOj_9paperboat10mcp_server8handlers14handle_request
FNDA:7,_RNvNtNtCs2XshHk0aCOj_9paperboat10mcp_server8handlers16handle_tool_call
FNDA:1,_RNvNtNtCs2XshHk0aCOj_9paperboat10mcp_server8handlers17handle_initialize
FNDA:12,_RNvNtNtCs2XshHk0aCOj_9paperboat10mcp_server8handlers17handle_tools_list
FNDA:5,_RNCNCNvNtNtCs2XshHk0aCOj_9paperboat10mcp_server8handlers16handle_tool_call00B9_
FNDA:4,_RNCNCNvNtNtCs2XshHk0aCOj_9paperboat10mcp_server8handlers16handle_tool_call0s_0B9_
FNDA:23,_RNCNvNtNtCs2XshHk0aCOj_9paperboat10mcp_server8handlers14handle_request0B7_
FNDA:7,_RNCNvNtNtCs2XshHk0aCOj_9paperboat10mcp_server8handlers16handle_tool_call0B7_
FNDA:1,_RNCNvNtNtCs2XshHk0aCOj_9paperboat10mcp_server8handlers17handle_tools_list0B7_
FNDA:5,_RNCNCNCNvNtNtNtCs2XshHk0aCOj_9paperboat10mcp_server8handlers5testss_31test_skip_tasks_tool_definition000Bd_
FNDA:39,_RNCNCNvNtNtNtCs2XshHk0aCOj_9paperboat10mcp_server8handlers5tests18extract_tool_names00Bb_
FNDA:1,_RNCNCNvNtNtNtCs2XshHk0aCOj_9paperboat10mcp_server8handlers5testss_24test_planner_tool_access00Bb_
FNDA:1,_RNCNCNvNtNtNtCs2XshHk0aCOj_9paperboat10mcp_server8handlers5testss_28test_implementer_tool_access00Bb_
FNDA:1,_RNCNCNvNtNtNtCs2XshHk0aCOj_9paperboat10mcp_server8handlers5testss_29test_orchestrator_tool_access00Bb_
FNDA:1,_RNCNCNvNtNtNtCs2XshHk0aCOj_9paperboat10mcp_server8handlers5testss_31test_skip_tasks_tool_definition00Bb_
FNDA:1,_RNCNCNvNtNtNtCs2XshHk0aCOj_9paperboat10mcp_server8handlers5testss_39test_mcp_tools_match_centralized_config00Bb_
FNDA:1,_RNCNCNvNtNtNtCs2XshHk0aCOj_9paperboat10mcp_server8handlers5testss_41test_skip_tasks_not_available_to_planners00Bb_
FNDA:1,_RNCNCNvNtNtNtCs2XshHk0aCOj_9paperboat10mcp_server8handlers5testss_48test_missing_agent_type_defaults_to_orchestrator00Bb_
FNDA:1,_RNCNCNvNtNtNtCs2XshHk0aCOj_9paperboat10mcp_server8handlers5testss_48test_unknown_agent_type_defaults_to_orchestrator00Bb_
FNDA:9,_RNCNvNtNtNtCs2XshHk0aCOj_9paperboat10mcp_server8handlers5tests18extract_tool_names0B9_
FNDA:1,_RNCNvNtNtNtCs2XshHk0aCOj_9paperboat10mcp_server8handlers5testss_24test_planner_tool_access0B9_
FNDA:1,_RNCNvNtNtNtCs2XshHk0aCOj_9paperboat10mcp_server8handlers5testss_28test_implementer_tool_access0B9_
FNDA:1,_RNCNvNtNtNtCs2XshHk0aCOj_9paperboat10mcp_server8handlers5testss_29test_orchestrator_tool_access0B9_
FNDA:1,_RNCNvNtNtNtCs2XshHk0aCOj_9paperboat10mcp_server8handlers5testss_31test_skip_tasks_tool_definition0B9_
FNDA:1,_RNCNvNtNtNtCs2XshHk0aCOj_9paperboat10mcp_server8handlers5testss_39test_mcp_tools_match_centralized_config0B9_
FNDA:1,_RNCNvNtNtNtCs2XshHk0aCOj_9paperboat10mcp_server8handlers5testss_41test_skip_tasks_not_available_to_planners0B9_
FNDA:1,_RNCNvNtNtNtCs2XshHk0aCOj_9paperboat10mcp_server8handlers5testss_48test_missing_agent_type_defaults_to_orchestrator0B9_
FNDA:1,_RNCNvNtNtNtCs2XshHk0aCOj_9paperboat10mcp_server8handlers5testss_48test_unknown_agent_type_defaults_to_orchestrator0B9_
FNDA:9,_RNvNtNtNtCs2XshHk0aCOj_9paperboat10mcp_server8handlers5tests18extract_tool_names
FNDA:1,_RNvNtNtNtCs2XshHk0aCOj_9paperboat10mcp_server8handlers5testss_27test_parse_skip_tasks_valid
FNDA:1,_RNvNtNtNtCs2XshHk0aCOj_9paperboat10mcp_server8handlers5testss_36test_parse_skip_tasks_without_reason
FNF:23
FNH:23
DA:24,23
DA:25,23
DA:28,23
DA:29,22
DA:31,1
DA:32,1
DA:35,2
DA:36,22
DA:37,21
DA:38,9
DA:40,2
DA:41,1
DA:42,1
DA:46,1
DA:47,1
DA:48,1
DA:49,1
DA:50,1
DA:51,1
DA:54,23
DA:57,1
DA:58,1
DA:59,1
DA:60,1
DA:61,1
DA:63,1
DA:64,1
DA:65,1
DA:69,1
DA:70,1
DA:71,1
DA:72,1
DA:74,1
DA:77,12
DA:79,12
DA:80,12
DA:82,12
DA:83,12
DA:85,3
DA:86,3
DA:87,3
DA:88,3
DA:89,3
DA:93,9
DA:95,2
DA:96,2
DA:97,2
DA:104,7
DA:106,7
DA:107,7
DA:108,7
DA:109,7
DA:110,7
DA:111,7
DA:112,7
DA:113,7
DA:114,7
DA:120,12
DA:121,12
DA:122,12
DA:123,12
DA:125,12
DA:128,7
DA:129,7
DA:130,7
DA:131,7
DA:132,7
DA:134,7
DA:135,6
DA:137,1
DA:138,1
DA:139,1
DA:140,1
DA:141,1
DA:145,6
DA:146,5
DA:148,1
DA:149,1
DA:150,1
DA:151,1
DA:152,1
DA:153,1
DA:157,5
DA:158,4
DA:160,1
DA:164,1
DA:165,1
DA:166,1
DA:167,1
DA:168,1
DA:172,4
DA:173,4
DA:174,0
DA:175,1
DA:177,3
DA:178,0
DA:179,1
DA:181,2
DA:182,0
DA:183,1
DA:185,1
DA:186,0
DA:187,0
DA:189,1
DA:190,0
DA:191,0
DA:193,1
DA:194,0
DA:195,0
DA:197,1
DA:198,0
DA:199,0
DA:201,1
DA:202,0
DA:203,0
DA:204,0
DA:205,0
DA:206,0
DA:207,0
DA:208,0
DA:212,1
DA:213,1
DA:214,1
DA:215,1
DA:216,1
DA:217,1
DA:218,1
DA:219,1
DA:220,1
DA:221,1
DA:222,1
DA:223,1
DA:224,1
DA:225,1
DA:226,1
DA:230,0
DA:233,0
DA:234,0
DA:235,0
DA:236,0
DA:237,0
DA:240,0
DA:241,0
DA:242,0
DA:243,0
DA:244,0
DA:245,0
DA:246,0
DA:247,0
DA:248,0
DA:254,0
DA:255,0
DA:256,0
DA:257,0
DA:260,0
DA:261,0
DA:263,0
DA:264,0
DA:269,0
DA:270,0
DA:271,0
DA:272,0
DA:273,0
DA:274,7
DA:288,9
DA:289,9
DA:290,9
DA:291,9
DA:292,9
DA:293,9
DA:294,39
DA:295,9
DA:296,9
DA:297,9
DA:298,9
DA:304,2
DA:306,1
DA:308,1
DA:309,1
DA:310,1
DA:311,1
DA:314,1
DA:315,1
DA:316,1
DA:317,1
DA:318,1
DA:320,1
DA:323,1
DA:324,1
DA:327,1
DA:328,1
DA:333,1
DA:334,1
DA:337,1
DA:338,1
DA:341,1
DA:342,1
DA:347,1
DA:348,1
DA:353,1
DA:354,1
DA:355,1
DA:356,1
DA:357,1
DA:363,2
DA:365,1
DA:367,1
DA:368,1
DA:369,1
DA:370,1
DA:373,1
DA:374,1
DA:375,1
DA:376,1
DA:377,1
DA:379,1
DA:382,1
DA:383,1
DA:386,1
DA:387,1
DA:390,1
DA:391,1
DA:394,1
DA:395,1
DA:398,1
DA:399,1
DA:402,1
DA:403,1
DA:406,1
DA:407,1
DA:412,1
DA:413,1
DA:414,1
DA:415,1
DA:416,1
DA:422,2
DA:424,1
DA:426,1
DA:427,1
DA:428,1
DA:429,1
DA:432,1
DA:433,1
DA:434,1
DA:435,1
DA:436,1
DA:438,1
DA:441,1
DA:442,1
DA:447,1
DA:448,1
DA:451,1
DA:452,1
DA:455,1
DA:456,1
DA:459,1
DA:460,1
DA:465,1
DA:466,1
DA:467,1
DA:468,1
DA:469,1
DA:475,2
DA:477,1
DA:479,1
DA:480,1
DA:481,1
DA:482,1
DA:485,1
DA:486,1
DA:487,1
DA:488,1
DA:489,1
DA:491,1
DA:494,1
DA:495,1
DA:498,1
DA:499,1
DA:502,1
DA:503,1
DA:504,1
DA:505,1
DA:511,2
DA:513,1
DA:515,1
DA:516,1
DA:517,1
DA:518,1
DA:521,1
DA:522,1
DA:523,1
DA:524,1
DA:525,1
DA:527,1
DA:530,1
DA:531,1
DA:532,1
DA:533,1
DA:540,2
DA:543,1
DA:546,1
DA:547,1
DA:548,1
DA:549,1
DA:550,1
DA:551,1
DA:552,1
DA:554,3
DA:555,3
DA:556,3
DA:560,1
DA:561,1
DA:562,1
DA:567,1
DA:568,1
DA:569,1
DA:570,1
DA:571,1
DA:572,1
DA:574,7
DA:575,7
DA:576,7
DA:580,1
DA:581,1
DA:582,1
DA:587,1
DA:588,1
DA:589,1
DA:590,1
DA:591,1
DA:592,1
DA:594,1
DA:595,1
DA:596,1
DA:597,1
DA:598,1
DA:599,1
DA:600,1
DA:601,1
DA:602,1
DA:603,1
DA:604,1
DA:610,2
DA:611,1
DA:613,1
DA:614,1
DA:615,1
DA:616,1
DA:619,1
DA:620,1
DA:621,1
DA:622,1
DA:623,1
DA:626,1
DA:627,1
DA:628,1
DA:629,5
DA:630,1
DA:633,1
DA:634,1
DA:637,1
DA:638,1
DA:639,1
DA:642,1
DA:643,1
DA:646,1
DA:647,1
DA:648,1
DA:649,1
DA:650,1
DA:651,1
DA:657,2
DA:658,1
DA:660,1
DA:661,1
DA:662,1
DA:663,1
DA:666,1
DA:667,1
DA:668,1
DA:669,1
DA:670,1
DA:672,1
DA:673,1
DA:674,1
DA:675,1
DA:676,1
DA:681,1
DA:683,1
DA:684,1
DA:686,1
DA:687,1
DA:688,1
DA:689,1
DA:691,1
DA:693,1
DA:694,1
DA:695,1
DA:697,1
DA:698,1
DA:700,0
DA:702,1
DA:706,1
DA:707,1
DA:709,1
DA:710,1
DA:711,1
DA:712,1
DA:714,1
DA:716,1
DA:717,1
DA:718,1
DA:720,1
DA:721,1
DA:723,0
DA:725,1
BRF:0
BRH:0
LF:402
LH:354
end_of_record
SF:/Users/dbmrq/Documents/Programação/Misc/paperboat/src/mcp_server/handlers/response.rs
FN:93,_RNvNtNtNtCs2XshHk0aCOj_9paperboat10mcp_server8handlers8response19build_response_text
FN:347,_RNvNtNtNtCs2XshHk0aCOj_9paperboat10mcp_server8handlers8response23build_complete_response
FN:386,_RNvNtNtNtCs2XshHk0aCOj_9paperboat10mcp_server8handlers8response23build_set_goal_response
FN:190,_RNvNtNtNtCs2XshHk0aCOj_9paperboat10mcp_server8handlers8response24build_decompose_response
FN:147,_RNvNtNtNtCs2XshHk0aCOj_9paperboat10mcp_server8handlers8response25build_list_tasks_response
FN:406,_RNvNtNtNtCs2XshHk0aCOj_9paperboat10mcp_server8handlers8response25build_skip_tasks_response
FN:365,_RNvNtNtNtCs2XshHk0aCOj_9paperboat10mcp_server8handlers8response26build_create_task_response
FN:240,_RNvNtNtNtCs2XshHk0aCOj_9paperboat10mcp_server8handlers8response27build_spawn_agents_response
FN:118,_RNvNtNtNtCs2XshHk0aCOj_9paperboat10mcp_server8handlers8response30build_response_text_with_state
FN:168,_RNvNtNtNtCs2XshHk0aCOj_9paperboat10mcp_server8handlers8response34build_report_human_action_response
FN:460,_RNvNtNtNtNtCs2XshHk0aCOj_9paperboat10mcp_server8handlers8response5tests16failure_response
FN:456,_RNvNtNtNtNtCs2XshHk0aCOj_9paperboat10mcp_server8handlers8response5tests16success_response
FN:1215,_RNvNtNtNtNtCs2XshHk0aCOj_9paperboat10mcp_server8handlers8response5testss_34task_state_info_has_remaining_work
FN:766,_RNvNtNtNtNtCs2XshHk0aCOj_9paperboat10mcp_server8handlers8response5testss_40format_whats_next_handles_single_blocker
FN:851,_RNvNtNtNtNtCs2XshHk0aCOj_9paperboat10mcp_server8handlers8response5testss_43build_set_goal_response_success_and_failure
FN:778,_RNvNtNtNtNtCs2XshHk0aCOj_9paperboat10mcp_server8handlers8response5testss_43format_whats_next_handles_multiple_blockers
FN:1126,_RNvNtNtNtNtCs2XshHk0aCOj_9paperboat10mcp_server8handlers8response5testss_44build_skip_tasks_response_without_task_state
FN:752,_RNvNtNtNtNtCs2XshHk0aCOj_9paperboat10mcp_server8handlers8response5testss_44format_whats_next_handles_two_parallel_tasks
FN:900,_RNvNtNtNtNtCs2XshHk0aCOj_9paperboat10mcp_server8handlers8response5testss_45build_list_tasks_response_success_and_failure
FN:793,_RNvNtNtNtNtCs2XshHk0aCOj_9paperboat10mcp_server8handlers8response5testss_46build_create_task_response_success_and_failure
FN:1199,_RNvNtNtNtNtCs2XshHk0aCOj_9paperboat10mcp_server8handlers8response5testss_47build_response_text_backward_compatible_version
FN:1142,_RNvNtNtNtNtCs2XshHk0aCOj_9paperboat10mcp_server8handlers8response5testss_48build_skip_tasks_response_failure_shows_task_ids
FN:1063,_RNvNtNtNtNtCs2XshHk0aCOj_9paperboat10mcp_server8handlers8response5testss_50build_spawn_agents_response_without_files_modified
FN:1158,_RNvNtNtNtNtCs2XshHk0aCOj_9paperboat10mcp_server8handlers8response5testss_53build_complete_response_defaults_when_message_missing
FN:657,_RNvNtNtNtNtCs2XshHk0aCOj_9paperboat10mcp_server8handlers8response5testss_53build_decompose_and_skip_failure_texts_are_actionable
FN:1085,_RNvNtNtNtNtCs2XshHk0aCOj_9paperboat10mcp_server8handlers8response5testss_53build_spawn_agents_response_with_empty_files_modified
FN:962,_RNvNtNtNtNtCs2XshHk0aCOj_9paperboat10mcp_server8handlers8response5testss_54build_report_human_action_response_success_and_failure
FN:1106,_RNvNtNtNtNtCs2XshHk0aCOj_9paperboat10mcp_server8handlers8response5testss_55build_spawn_agents_response_default_role_is_implementer
FN:1050,_RNvNtNtNtNtCs2XshHk0aCOj_9paperboat10mcp_server8handlers8response5testss_56build_decompose_response_uses_fallback_when_both_missing
FN:546,_RNvNtNtNtNtCs2XshHk0aCOj_9paperboat10mcp_server8handlers8response5testss_58build_spawn_agents_success_uses_actionable_state_and_files
FN:523,_RNvNtNtNtNtCs2XshHk0aCOj_9paperboat10mcp_server8handlers8response5testss_59build_decompose_response_guides_next_action_from_task_state
FN:700,_RNvNtNtNtNtCs2XshHk0aCOj_9paperboat10mcp_server8handlers8response5testss_61build_complete_response_reports_success_and_failure_summaries
FN:584,_RNvNtNtNtNtCs2XshHk0aCOj_9paperboat10mcp_server8handlers8response5testss_62build_spawn_agents_failure_provides_targeted_recovery_guidance
FN:640,_RNvNtNtNtNtCs2XshHk0aCOj_9paperboat10mcp_server8handlers8response5testss_64build_skip_tasks_response_uses_completion_hint_when_work_is_done
FN:1021,_RNvNtNtNtNtCs2XshHk0aCOj_9paperboat10mcp_server8handlers8response5testss_66build_decompose_response_without_task_state_uses_fallback_guidance
FN:1037,_RNvNtNtNtNtCs2XshHk0aCOj_9paperboat10mcp_server8handlers8response5testss_67build_decompose_response_uses_task_description_when_task_id_missing
FN:465,_RNvNtNtNtNtCs2XshHk0aCOj_9paperboat10mcp_server8handlers8response5testss_69format_whats_next_covers_pending_parallel_blocked_and_complete_states
FN:30,_RNvMNtNtNtCs2XshHk0aCOj_9paperboat10mcp_server8handlers8responseNtNtB6_5types13TaskStateInfo17format_whats_next
FN:22,_RNvMNtNtNtCs2XshHk0aCOj_9paperboat10mcp_server8handlers8responseNtNtB6_5types13TaskStateInfo18has_remaining_work
FN:249,_RNCNCNvNtNtNtCs2XshHk0aCOj_9paperboat10mcp_server8handlers8response27build_spawn_agents_response00Bb_
FN:262,_RNCNCNvNtNtNtCs2XshHk0aCOj_9paperboat10mcp_server8handlers8response27build_spawn_agents_responses0_00Bb_
FN:198,_RNCNvNtNtNtCs2XshHk0aCOj_9paperboat10mcp_server8handlers8response24build_decompose_response0B9_
FN:211,_RNCNvNtNtNtCs2XshHk0aCOj_9paperboat10mcp_server8handlers8response24build_decompose_responses0_0B9_
FN:205,_RNCNvNtNtNtCs2XshHk0aCOj_9paperboat10mcp_server8handlers8response24build_decompose_responses_0B9_
FN:419,_RNCNvNtNtNtCs2XshHk0aCOj_9paperboat10mcp_server8handlers8response25build_skip_tasks_response0B9_
FN:424,_RNCNvNtNtNtCs2XshHk0aCOj_9paperboat10mcp_server8handlers8response25build_skip_tasks_responses_0B9_
FN:249,_RNCNvNtNtNtCs2XshHk0aCOj_9paperboat10mcp_server8handlers8response27build_spawn_agents_response0B9_
FN:257,_RNCNvNtNtNtCs2XshHk0aCOj_9paperboat10mcp_server8handlers8response27build_spawn_agents_responses0_0B9_
FN:273,_RNCNvNtNtNtCs2XshHk0aCOj_9paperboat10mcp_server8handlers8response27build_spawn_agents_responses1_0B9_
FN:279,_RNCNvNtNtNtCs2XshHk0aCOj_9paperboat10mcp_server8handlers8response27build_spawn_agents_responses2_0B9_
FN:256,_RNCNvNtNtNtCs2XshHk0aCOj_9paperboat10mcp_server8handlers8response27build_spawn_agents_responses_0B9_
FNDA:1,_RNvNtNtNtCs2XshHk0aCOj_9paperboat10mcp_server8handlers8response19build_response_text
FNDA:5,_RNvNtNtNtCs2XshHk0aCOj_9paperboat10mcp_server8handlers8response23build_complete_response
FNDA:2,_RNvNtNtNtCs2XshHk0aCOj_9paperboat10mcp_server8handlers8response23build_set_goal_response
FNDA:5,_RNvNtNtNtCs2XshHk0aCOj_9paperboat10mcp_server8handlers8response24build_decompose_response
FNDA:4,_RNvNtNtNtCs2XshHk0aCOj_9paperboat10mcp_server8handlers8response25build_list_tasks_response
FNDA:4,_RNvNtNtNtCs2XshHk0aCOj_9paperboat10mcp_server8handlers8response25build_skip_tasks_response
FNDA:3,_RNvNtNtNtCs2XshHk0aCOj_9paperboat10mcp_server8handlers8response26build_create_task_response
FNDA:7,_RNvNtNtNtCs2XshHk0aCOj_9paperboat10mcp_server8handlers8response27build_spawn_agents_response
FNDA:33,_RNvNtNtNtCs2XshHk0aCOj_9paperboat10mcp_server8handlers8response30build_response_text_with_state
FNDA:3,_RNvNtNtNtCs2XshHk0aCOj_9paperboat10mcp_server8handlers8response34build_report_human_action_response
FNDA:14,_RNvNtNtNtNtCs2XshHk0aCOj_9paperboat10mcp_server8handlers8response5tests16failure_response
FNDA:19,_RNvNtNtNtNtCs2XshHk0aCOj_9paperboat10mcp_server8handlers8response5tests16success_response
FNDA:1,_RNvNtNtNtNtCs2XshHk0aCOj_9paperboat10mcp_server8handlers8response5testss_34task_state_info_has_remaining_work
FNDA:1,_RNvNtNtNtNtCs2XshHk0aCOj_9paperboat10mcp_server8handlers8response5testss_40format_whats_next_handles_single_blocker
FNDA:1,_RNvNtNtNtNtCs2XshHk0aCOj_9paperboat10mcp_server8handlers8response5testss_43build_set_goal_response_success_and_failure
FNDA:1,_RNvNtNtNtNtCs2XshHk0aCOj_9paperboat10mcp_server8handlers8response5testss_43format_whats_next_handles_multiple_blockers
FNDA:1,_RNvNtNtNtNtCs2XshHk0aCOj_9paperboat10mcp_server8handlers8response5testss_44build_skip_tasks_response_without_task_state
FNDA:1,_RNvNtNtNtNtCs2XshHk0aCOj_9paperboat10mcp_server8handlers8response5testss_44format_whats_next_handles_two_parallel_tasks
FNDA:1,_RNvNtNtNtNtCs2XshHk0aCOj_9paperboat10mcp_server8handlers8response5testss_45build_list_tasks_response_success_and_failure
FNDA:1,_RNvNtNtNtNtCs2XshHk0aCOj_9paperboat10mcp_server8handlers8response5testss_46build_create_task_response_success_and_failure
FNDA:1,_RNvNtNtNtNtCs2XshHk0aCOj_9paperboat10mcp_server8handlers8response5testss_47build_response_text_backward_compatible_version
FNDA:1,_RNvNtNtNtNtCs2XshHk0aCOj_9paperboat10mcp_server8handlers8response5testss_48build_skip_tasks_response_failure_shows_task_ids
FNDA:1,_RNvNtNtNtNtCs2XshHk0aCOj_9paperboat10mcp_server8handlers8response5testss_50build_spawn_agents_response_without_files_modified
FNDA:1,_RNvNtNtNtNtCs2XshHk0aCOj_9paperboat10mcp_server8handlers8response5testss_53build_complete_response_defaults_when_message_missing
FNDA:1,_RNvNtNtNtNtCs2XshHk0aCOj_9paperboat10mcp_server8handlers8response5testss_53build_decompose_and_skip_failure_texts_are_actionable
FNDA:1,_RNvNtNtNtNtCs2XshHk0aCOj_9paperboat10mcp_server8handlers8response5testss_53build_spawn_agents_response_with_empty_files_modified
FNDA:1,_RNvNtNtNtNtCs2XshHk0aCOj_9paperboat10mcp_server8handlers8response5testss_54build_report_human_action_response_success_and_failure
FNDA:1,_RNvNtNtNtNtCs2XshHk0aCOj_9paperboat10mcp_server8handlers8response5testss_55build_spawn_agents_response_default_role_is_implementer
FNDA:1,_RNvNtNtNtNtCs2XshHk0aCOj_9paperboat10mcp_server8handlers8response5testss_56build_decompose_response_uses_fallback_when_both_missing
FNDA:1,_RNvNtNtNtNtCs2XshHk0aCOj_9paperboat10mcp_server8handlers8response5testss_58build_spawn_agents_success_uses_actionable_state_and_files
FNDA:1,_RNvNtNtNtNtCs2XshHk0aCOj_9paperboat10mcp_server8handlers8response5testss_59build_decompose_response_guides_next_action_from_task_state
FNDA:1,_RNvNtNtNtNtCs2XshHk0aCOj_9paperboat10mcp_server8handlers8response5testss_61build_complete_response_reports_success_and_failure_summaries
FNDA:1,_RNvNtNtNtNtCs2XshHk0aCOj_9paperboat10mcp_server8handlers8response5testss_62build_spawn_agents_failure_provides_targeted_recovery_guidance
FNDA:1,_RNvNtNtNtNtCs2XshHk0aCOj_9paperboat10mcp_server8handlers8response5testss_64build_skip_tasks_response_uses_completion_hint_when_work_is_done
FNDA:1,_RNvNtNtNtNtCs2XshHk0aCOj_9paperboat10mcp_server8handlers8response5testss_66build_decompose_response_without_task_state_uses_fallback_guidance
FNDA:1,_RNvNtNtNtNtCs2XshHk0aCOj_9paperboat10mcp_server8handlers8response5testss_67build_decompose_response_uses_task_description_when_task_id_missing
FNDA:1,_RNvNtNtNtNtCs2XshHk0aCOj_9paperboat10mcp_server8handlers8response5testss_69format_whats_next_covers_pending_parallel_blocked_and_complete_states
FNDA:9,_RNvMNtNtNtCs2XshHk0aCOj_9paperboat10mcp_server8handlers8responseNtNtB6_5types13TaskStateInfo17format_whats_next
FNDA:4,_RNvMNtNtNtCs2XshHk0aCOj_9paperboat10mcp_server8handlers8responseNtNtB6_5types13TaskStateInfo18has_remaining_work
FNDA:5,_RNCNCNvNtNtNtCs2XshHk0aCOj_9paperboat10mcp_server8handlers8response27build_spawn_agents_response00Bb_
FNDA:2,_RNCNCNvNtNtNtCs2XshHk0aCOj_9paperboat10mcp_server8handlers8response27build_spawn_agents_responses0_00Bb_
FNDA:4,_RNCNvNtNtNtCs2XshHk0aCOj_9paperboat10mcp_server8handlers8response24build_decompose_response0B9_
FNDA:1,_RNCNvNtNtNtCs2XshHk0aCOj_9paperboat10mcp_server8handlers8response24build_decompose_responses0_0B9_
FNDA:3,_RNCNvNtNtNtCs2XshHk0aCOj_9paperboat10mcp_server8handlers8response24build_decompose_responses_0B9_
FNDA:1,_RNCNvNtNtNtCs2XshHk0aCOj_9paperboat10mcp_server8handlers8response25build_skip_tasks_response0B9_
FNDA:1,_RNCNvNtNtNtCs2XshHk0aCOj_9paperboat10mcp_server8handlers8response25build_skip_tasks_responses_0B9_
FNDA:7,_RNCNvNtNtNtCs2XshHk0aCOj_9paperboat10mcp_server8handlers8response27build_spawn_agents_response0B9_
FNDA:1,_RNCNvNtNtNtCs2XshHk0aCOj_9paperboat10mcp_server8handlers8response27build_spawn_agents_responses0_0B9_
FNDA:3,_RNCNvNtNtNtCs2XshHk0aCOj_9paperboat10mcp_server8handlers8response27build_spawn_agents_responses1_0B9_
FNDA:1,_RNCNvNtNtNtCs2XshHk0aCOj_9paperboat10mcp_server8handlers8response27build_spawn_agents_responses2_0B9_
FNDA:2,_RNCNvNtNtNtCs2XshHk0aCOj_9paperboat10mcp_server8handlers8response27build_spawn_agents_responses_0B9_
FNF:51
FNH:51
DA:22,4
DA:23,4
DA:24,4
DA:30,9
DA:31,9
DA:34,9
DA:35,7
DA:36,2
DA:38,5
DA:40,7
DA:44,2
DA:47,9
DA:48,3
DA:50,3
DA:51,3
DA:52,2
DA:54,1
DA:57,6
DA:58,3
DA:59,3
DA:60,3
DA:61,3
DA:62,3
DA:65,9
DA:66,4
DA:67,4
DA:71,4
DA:76,9
DA:77,2
DA:78,7
DA:80,9
DA:81,0
DA:83,9
DA:85,9
DA:93,1
DA:94,1
DA:95,1
DA:118,33
DA:119,33
DA:120,33
DA:121,33
DA:122,33
DA:123,33
DA:124,5
DA:125,5
DA:127,7
DA:128,7
DA:131,5
DA:132,5
DA:133,3
DA:134,2
DA:135,4
DA:136,4
DA:138,4
DA:139,4
DA:141,3
DA:142,3
DA:145,33
DA:147,4
DA:148,4
DA:149,4
DA:151,2
DA:153,2
DA:154,2
DA:166,4
DA:168,3
DA:169,3
DA:170,2
DA:171,1
DA:173,1
DA:175,2
DA:180,1
DA:181,1
DA:188,3
DA:190,5
DA:191,5
DA:192,5
DA:193,5
DA:194,5
DA:195,5
DA:196,5
DA:197,5
DA:198,5
DA:199,5
DA:200,5
DA:202,4
DA:203,4
DA:204,4
DA:205,3
DA:206,3
DA:207,3
DA:208,3
DA:209,3
DA:210,3
DA:211,1
DA:214,4
DA:222,1
DA:223,1
DA:238,5
DA:240,7
DA:241,7
DA:242,7
DA:243,7
DA:244,7
DA:245,7
DA:246,7
DA:247,7
DA:248,7
DA:249,7
DA:250,7
DA:252,7
DA:253,4
DA:254,4
DA:255,4
DA:256,4
DA:257,4
DA:258,1
DA:260,1
DA:261,1
DA:262,2
DA:263,1
DA:264,1
DA:266,1
DA:267,4
DA:270,4
DA:271,4
DA:272,4
DA:273,3
DA:274,3
DA:275,3
DA:276,3
DA:277,3
DA:278,3
DA:279,1
DA:282,4
DA:290,3
DA:291,3
DA:294,3
DA:297,3
DA:298,2
DA:299,2
DA:301,3
DA:302,1
DA:303,1
DA:304,1
DA:305,1
DA:306,1
DA:307,1
DA:308,2
DA:309,1
DA:310,1
DA:311,1
DA:312,1
DA:313,1
DA:314,1
DA:316,1
DA:317,1
DA:318,1
DA:319,1
DA:320,1
DA:321,1
DA:325,3
DA:326,1
DA:327,1
DA:328,1
DA:329,1
DA:331,2
DA:332,2
DA:333,2
DA:334,2
DA:337,3
DA:345,7
DA:347,5
DA:348,5
DA:349,3
DA:353,3
DA:356,2
DA:360,2
DA:363,5
DA:365,3
DA:366,3
DA:367,1
DA:369,2
DA:370,2
DA:384,3
DA:386,2
DA:387,2
DA:388,1
DA:390,1
DA:391,1
DA:404,2
DA:406,4
DA:407,4
DA:408,4
DA:409,4
DA:410,4
DA:411,4
DA:412,4
DA:413,4
DA:414,4
DA:416,2
DA:417,2
DA:418,2
DA:419,1
DA:420,1
DA:421,1
DA:422,1
DA:423,1
DA:424,1
DA:427,2
DA:434,2
DA:435,2
DA:449,4
DA:456,19
DA:457,19
DA:458,19
DA:460,14
DA:461,14
DA:462,14
DA:465,1
DA:466,1
DA:467,1
DA:468,1
DA:469,1
DA:470,1
DA:471,1
DA:472,1
DA:473,1
DA:474,1
DA:475,1
DA:476,1
DA:477,1
DA:478,1
DA:479,1
DA:480,1
DA:481,1
DA:482,1
DA:483,1
DA:484,1
DA:485,1
DA:486,1
DA:487,1
DA:488,1
DA:489,1
DA:490,1
DA:491,1
DA:492,1
DA:493,1
DA:494,1
DA:495,1
DA:496,1
DA:497,1
DA:498,1
DA:499,1
DA:500,1
DA:501,1
DA:502,1
DA:503,1
DA:505,3
DA:506,3
DA:507,6
DA:508,6
DA:509,6
DA:513,4
DA:514,4
DA:515,4
DA:520,1
DA:523,1
DA:524,1
DA:525,1
DA:526,1
DA:527,1
DA:528,1
DA:529,1
DA:530,1
DA:531,1
DA:532,1
DA:533,1
DA:535,1
DA:537,1
DA:538,1
DA:539,1
DA:540,1
DA:541,1
DA:542,1
DA:543,1
DA:546,1
DA:547,1
DA:548,1
DA:549,1
DA:550,1
DA:551,1
DA:552,1
DA:553,1
DA:554,1
DA:555,1
DA:556,1
DA:557,1
DA:558,1
DA:559,1
DA:560,1
DA:561,1
DA:562,1
DA:563,1
DA:564,1
DA:565,1
DA:566,1
DA:567,1
DA:569,1
DA:571,1
DA:572,1
DA:573,1
DA:574,1
DA:575,1
DA:576,1
DA:577,1
DA:578,1
DA:579,1
DA:580,1
DA:581,1
DA:584,1
DA:585,1
DA:586,1
DA:587,1
DA:588,1
DA:589,1
DA:590,1
DA:591,1
DA:592,1
DA:593,1
DA:594,1
DA:595,1
DA:597,1
DA:598,1
DA:599,1
DA:600,1
DA:601,1
DA:602,1
DA:603,1
DA:604,1
DA:605,1
DA:606,1
DA:607,1
DA:608,1
DA:609,1
DA:610,1
DA:611,1
DA:612,1
DA:613,1
DA:614,1
DA:615,1
DA:616,1
DA:617,1
DA:618,1
DA:619,1
DA:620,1
DA:621,1
DA:622,1
DA:623,1
DA:624,1
DA:625,1
DA:627,3
DA:628,3
DA:629,3
DA:630,9
DA:631,9
DA:632,9
DA:637,1
DA:640,1
DA:641,1
DA:642,1
DA:643,1
DA:644,1
DA:645,1
DA:646,1
DA:648,1
DA:650,1
DA:651,1
DA:652,1
DA:653,1
DA:654,1
DA:657,1
DA:658,1
DA:659,1
DA:660,1
DA:661,1
DA:662,1
DA:663,1
DA:664,1
DA:665,1
DA:666,1
DA:667,1
DA:668,1
DA:669,1
DA:670,1
DA:671,1
DA:672,1
DA:673,1
DA:674,1
DA:675,1
DA:676,1
DA:677,1
DA:678,1
DA:679,1
DA:680,1
DA:681,1
DA:682,1
DA:683,1
DA:684,1
DA:685,1
DA:686,1
DA:688,2
DA:689,2
DA:690,7
DA:691,7
DA:692,7
DA:697,1
DA:700,1
DA:701,1
DA:702,1
DA:703,1
DA:704,1
DA:705,1
DA:706,1
DA:707,1
DA:708,1
DA:709,1
DA:710,1
DA:711,1
DA:712,1
DA:713,1
DA:714,1
DA:715,1
DA:716,1
DA:717,1
DA:718,1
DA:719,1
DA:720,1
DA:721,1
DA:722,1
DA:723,1
DA:724,1
DA:725,1
DA:726,1
DA:727,1
DA:728,1
DA:729,1
DA:730,1
DA:731,1
DA:732,1
DA:734,2
DA:735,2
DA:736,4
DA:737,4
DA:738,4
DA:742,2
DA:743,2
DA:744,2
DA:749,1
DA:752,1
DA:753,1
DA:754,1
DA:755,1
DA:756,1
DA:757,1
DA:759,1
DA:760,1
DA:761,1
DA:762,1
DA:763,1
DA:766,1
DA:767,1
DA:768,1
DA:769,1
DA:770,1
DA:771,1
DA:773,1
DA:774,1
DA:775,1
DA:778,1
DA:779,1
DA:780,1
DA:781,1
DA:782,1
DA:783,1
DA:784,1
DA:785,1
DA:786,1
DA:788,1
DA:789,1
DA:790,1
DA:793,1
DA:794,1
DA:795,1
DA:796,1
DA:797,1
DA:798,1
DA:799,1
DA:800,1
DA:801,1
DA:802,1
DA:803,1
DA:804,1
DA:805,1
DA:806,1
DA:807,1
DA:808,1
DA:809,1
DA:810,1
DA:811,1
DA:812,1
DA:813,1
DA:814,1
DA:815,1
DA:816,1
DA:817,1
DA:818,1
DA:819,1
DA:820,1
DA:821,1
DA:822,1
DA:823,1
DA:824,1
DA:825,1
DA:827,3
DA:828,3
DA:829,3
DA:830,3
DA:831,3
DA:832,3
DA:833,3
DA:835,8
DA:836,8
DA:837,8
DA:841,4
DA:842,4
DA:843,4
DA:848,1
DA:851,1
DA:852,1
DA:853,1
DA:854,1
DA:855,1
DA:856,1
DA:857,1
DA:858,1
DA:859,1
DA:860,1
DA:861,1
DA:862,1
DA:863,1
DA:864,1
DA:865,1
DA:866,1
DA:867,1
DA:868,1
DA:869,1
DA:870,1
DA:871,1
DA:872,1
DA:873,1
DA:874,1
DA:875,1
DA:877,2
DA:878,2
DA:879,2
DA:880,2
DA:881,2
DA:882,2
DA:884,6
DA:885,6
DA:886,6
DA:890,3
DA:891,3
DA:892,3
DA:897,1
DA:900,1
DA:901,1
DA:902,1
DA:903,1
DA:904,1
DA:905,1
DA:906,1
DA:907,1
DA:908,1
DA:909,1
DA:910,1
DA:911,1
DA:912,1
DA:913,1
DA:914,1
DA:915,1
DA:916,1
DA:917,1
DA:918,1
DA:919,1
DA:920,1
DA:921,1
DA:922,1
DA:923,1
DA:924,1
DA:925,1
DA:926,1
DA:927,1
DA:928,1
DA:929,1
DA:930,1
DA:931,1
DA:932,1
DA:933,1
DA:934,1
DA:935,1
DA:936,1
DA:937,1
DA:938,1
DA:940,4
DA:941,4
DA:942,4
DA:943,4
DA:944,4
DA:946,11
DA:947,11
DA:948,11
DA:952,5
DA:953,5
DA:954,5
DA:959,1
DA:962,1
DA:963,1
DA:964,1
DA:965,1
DA:966,1
DA:967,1
DA:968,1
DA:969,1
DA:970,1
DA:971,1
DA:972,1
DA:973,1
DA:974,1
DA:975,1
DA:976,1
DA:977,1
DA:978,1
DA:979,1
DA:980,1
DA:981,1
DA:982,1
DA:983,1
DA:984,1
DA:985,1
DA:986,1
DA:987,1
DA:988,1
DA:989,1
DA:990,1
DA:991,1
DA:992,1
DA:993,1
DA:994,1
DA:995,1
DA:996,1
DA:998,3
DA:999,3
DA:1000,3
DA:1001,3
DA:1002,3
DA:1003,3
DA:1005,8
DA:1006,8
DA:1007,8
DA:1011,6
DA:1012,6
DA:1013,6
DA:1018,1
DA:1021,1
DA:1022,1
DA:1023,1
DA:1024,1
DA:1025,1
DA:1026,1
DA:1028,1
DA:1030,1
DA:1031,1
DA:1032,1
DA:1033,1
DA:1034,1
DA:1037,1
DA:1038,1
DA:1039,1
DA:1040,1
DA:1041,1
DA:1042,1
DA:1044,1
DA:1046,1
DA:1047,1
DA:1050,1
DA:1051,1
DA:1052,1
DA:1053,1
DA:1054,1
DA:1055,1
DA:1057,1
DA:1059,1
DA:1060,1
DA:1063,1
DA:1064,1
DA:1065,1
DA:1066,1
DA:1067,1
DA:1068,1
DA:1069,1
DA:1070,1
DA:1071,1
DA:1072,1
DA:1073,1
DA:1074,1
DA:1075,1
DA:1077,1
DA:1079,1
DA:1080,1
DA:1081,1
DA:1082,1
DA:1085,1
DA:1086,1
DA:1087,1
DA:1088,1
DA:1089,1
DA:1090,1
DA:1091,1
DA:1092,1
DA:1093,1
DA:1094,1
DA:1095,1
DA:1096,1
DA:1097,1
DA:1098,1
DA:1100,1
DA:1102,1
DA:1103,1
DA:1106,1
DA:1107,1
DA:1108,1
DA:1109,1
DA:1110,1
DA:1111,1
DA:1112,1
DA:1113,1
DA:1114,1
DA:1115,1
DA:1116,1
DA:1117,1
DA:1118,1
DA:1120,1
DA:1122,1
DA:1123,1
DA:1126,1
DA:1127,1
DA:1128,1
DA:1129,1
DA:1130,1
DA:1131,1
DA:1133,1
DA:1135,1
DA:1136,1
DA:1137,1
DA:1138,1
DA:1139,1
DA:1142,1
DA:1143,1
DA:1144,1
DA:1145,1
DA:1146,1
DA:1147,1
DA:1149,1
DA:1151,1
DA:1152,1
DA:1153,1
DA:1154,1
DA:1155,1
DA:1158,1
DA:1159,1
DA:1160,1
DA:1161,1
DA:1162,1
DA:1163,1
DA:1164,1
DA:1165,1
DA:1166,1
DA:1167,1
DA:1168,1
DA:1169,1
DA:1170,1
DA:1171,1
DA:1172,1
DA:1173,1
DA:1174,1
DA:1175,1
DA:1176,1
DA:1177,1
DA:1178,1
DA:1179,1
DA:1180,1
DA:1181,1
DA:1182,1
DA:1183,1
DA:1184,1
DA:1185,1
DA:1187,2
DA:1188,2
DA:1189,4
DA:1190,4
DA:1191,4
DA:1196,1
DA:1199,1
DA:1200,1
DA:1201,1
DA:1202,1
DA:1203,1
DA:1204,1
DA:1205,1
DA:1206,1
DA:1208,1
DA:1210,1
DA:1211,1
DA:1212,1
DA:1215,1
DA:1216,1
DA:1217,1
DA:1218,1
DA:1219,1
DA:1220,1
DA:1221,1
DA:1222,1
DA:1223,1
DA:1224,1
DA:1225,1
DA:1226,1
DA:1227,1
DA:1228,1
DA:1229,1
DA:1230,1
DA:1231,1
DA:1232,1
DA:1233,1
DA:1234,1
DA:1235,1
DA:1236,1
DA:1237,1
DA:1238,1
DA:1239,1
DA:1240,1
DA:1241,1
DA:1242,1
DA:1243,1
DA:1244,1
DA:1245,1
DA:1246,1
DA:1247,1
DA:1248,1
DA:1249,1
DA:1251,4
DA:1252,4
DA:1254,1
BRF:0
BRH:0
LF:870
LH:869
end_of_record
SF:/Users/dbmrq/Documents/Programação/Misc/paperboat/src/mcp_server/handlers/tool_parsing.rs
FN:75,_RNvNtNtNtCs2XshHk0aCOj_9paperboat10mcp_server8handlers12tool_parsing14parse_complete
FN:137,_RNvNtNtNtCs2XshHk0aCOj_9paperboat10mcp_server8handlers12tool_parsing14parse_set_goal
FN:12,_RNvNtNtNtCs2XshHk0aCOj_9paperboat10mcp_server8handlers12tool_parsing15parse_decompose
FN:183,_RNvNtNtNtCs2XshHk0aCOj_9paperboat10mcp_server8handlers12tool_parsing16parse_list_tasks
FN:157,_RNvNtNtNtCs2XshHk0aCOj_9paperboat10mcp_server8handlers12tool_parsing16parse_skip_tasks
FN:104,_RNvNtNtNtCs2XshHk0aCOj_9paperboat10mcp_server8handlers12tool_parsing17parse_create_task
FN:40,_RNvNtNtNtCs2XshHk0aCOj_9paperboat10mcp_server8handlers12tool_parsing18parse_spawn_agents
FN:193,_RNvNtNtNtCs2XshHk0aCOj_9paperboat10mcp_server8handlers12tool_parsing25parse_report_human_action
FN:217,_RNvNtNtNtNtCs2XshHk0aCOj_9paperboat10mcp_server8handlers12tool_parsing5tests6object
FN:414,_RNvNtNtNtNtCs2XshHk0aCOj_9paperboat10mcp_server8handlers12tool_parsing5testss_39parse_complete_requires_boolean_success
FN:1147,_RNvNtNtNtNtCs2XshHk0aCOj_9paperboat10mcp_server8handlers12tool_parsing5testss_41parse_list_tasks_accepts_all_valid_inputs
FN:355,_RNvNtNtNtNtCs2XshHk0aCOj_9paperboat10mcp_server8handlers12tool_parsing5testss_46parse_skip_tasks_requires_non_empty_string_ids
FN:960,_RNvNtNtNtNtCs2XshHk0aCOj_9paperboat10mcp_server8handlers12tool_parsing5testss_47parse_set_goal_validates_all_required_arguments
FN:802,_RNvNtNtNtNtCs2XshHk0aCOj_9paperboat10mcp_server8handlers12tool_parsing5testss_50parse_complete_validates_all_argument_combinations
FN:886,_RNvNtNtNtNtCs2XshHk0aCOj_9paperboat10mcp_server8handlers12tool_parsing5testss_50parse_create_task_validates_all_required_arguments
FN:1021,_RNvNtNtNtNtCs2XshHk0aCOj_9paperboat10mcp_server8handlers12tool_parsing5testss_51parse_skip_tasks_validates_empty_and_missing_arrays
FN:757,_RNvNtNtNtNtCs2XshHk0aCOj_9paperboat10mcp_server8handlers12tool_parsing5testss_54parse_spawn_agents_deprecated_task_vs_task_id_fallback
FN:678,_RNvNtNtNtNtCs2XshHk0aCOj_9paperboat10mcp_server8handlers12tool_parsing5testss_54parse_spawn_agents_validates_mixed_valid_invalid_specs
FN:222,_RNvNtNtNtNtCs2XshHk0aCOj_9paperboat10mcp_server8handlers12tool_parsing5testss_56parse_decompose_supports_preferred_and_deprecated_inputs
FN:264,_RNvNtNtNtNtCs2XshHk0aCOj_9paperboat10mcp_server8handlers12tool_parsing5testss_57parse_spawn_agents_validates_agents_payload_and_wait_mode
FN:1089,_RNvNtNtNtNtCs2XshHk0aCOj_9paperboat10mcp_server8handlers12tool_parsing5testss_58parse_report_human_action_validates_all_required_arguments
FN:481,_RNvNtNtNtNtCs2XshHk0aCOj_9paperboat10mcp_server8handlers12tool_parsing5testss_59parse_remaining_supported_tools_validate_required_arguments
FN:621,_RNvNtNtNtNtCs2XshHk0aCOj_9paperboat10mcp_server8handlers12tool_parsing5testss_61parse_decompose_validates_missing_arguments_and_invalid_types
FN:124,_RNCNCNvNtNtNtCs2XshHk0aCOj_9paperboat10mcp_server8handlers12tool_parsing17parse_create_tasks1_00Bb_
FN:82,_RNCNvNtNtNtCs2XshHk0aCOj_9paperboat10mcp_server8handlers12tool_parsing14parse_complete0B9_
FN:90,_RNCNvNtNtNtCs2XshHk0aCOj_9paperboat10mcp_server8handlers12tool_parsing14parse_completes0_0B9_
FN:86,_RNCNvNtNtNtCs2XshHk0aCOj_9paperboat10mcp_server8handlers12tool_parsing14parse_completes_0B9_
FN:138,_RNCNvNtNtNtCs2XshHk0aCOj_9paperboat10mcp_server8handlers12tool_parsing14parse_set_goal0B9_
FN:147,_RNCNvNtNtNtCs2XshHk0aCOj_9paperboat10mcp_server8handlers12tool_parsing14parse_set_goals_0B9_
FN:15,_RNCNvNtNtNtCs2XshHk0aCOj_9paperboat10mcp_server8handlers12tool_parsing15parse_decompose0B9_
FN:21,_RNCNvNtNtNtCs2XshHk0aCOj_9paperboat10mcp_server8handlers12tool_parsing15parse_decomposes_0B9_
FN:186,_RNCNvNtNtNtCs2XshHk0aCOj_9paperboat10mcp_server8handlers12tool_parsing16parse_list_tasks0B9_
FN:158,_RNCNvNtNtNtCs2XshHk0aCOj_9paperboat10mcp_server8handlers12tool_parsing16parse_skip_tasks0B9_
FN:175,_RNCNvNtNtNtCs2XshHk0aCOj_9paperboat10mcp_server8handlers12tool_parsing16parse_skip_taskss0_0B9_
FN:161,_RNCNvNtNtNtCs2XshHk0aCOj_9paperboat10mcp_server8handlers12tool_parsing16parse_skip_taskss_0B9_
FN:105,_RNCNvNtNtNtCs2XshHk0aCOj_9paperboat10mcp_server8handlers12tool_parsing17parse_create_task0B9_
FN:121,_RNCNvNtNtNtCs2XshHk0aCOj_9paperboat10mcp_server8handlers12tool_parsing17parse_create_tasks0_0B9_
FN:122,_RNCNvNtNtNtCs2XshHk0aCOj_9paperboat10mcp_server8handlers12tool_parsing17parse_create_tasks1_0B9_
FN:112,_RNCNvNtNtNtCs2XshHk0aCOj_9paperboat10mcp_server8handlers12tool_parsing17parse_create_tasks_0B9_
FN:64,_RNCNvNtNtNtCs2XshHk0aCOj_9paperboat10mcp_server8handlers12tool_parsing18parse_spawn_agents0B9_
FN:194,_RNCNvNtNtNtCs2XshHk0aCOj_9paperboat10mcp_server8handlers12tool_parsing25parse_report_human_action0B9_
FN:203,_RNCNvNtNtNtCs2XshHk0aCOj_9paperboat10mcp_server8handlers12tool_parsing25parse_report_human_actions_0B9_
FNDA:12,_RNvNtNtNtCs2XshHk0aCOj_9paperboat10mcp_server8handlers12tool_parsing14parse_complete
FNDA:8,_RNvNtNtNtCs2XshHk0aCOj_9paperboat10mcp_server8handlers12tool_parsing14parse_set_goal
FNDA:12,_RNvNtNtNtCs2XshHk0aCOj_9paperboat10mcp_server8handlers12tool_parsing15parse_decompose
FNDA:7,_RNvNtNtNtCs2XshHk0aCOj_9paperboat10mcp_server8handlers12tool_parsing16parse_list_tasks
FNDA:13,_RNvNtNtNtCs2XshHk0aCOj_9paperboat10mcp_server8handlers12tool_parsing16parse_skip_tasks
FNDA:11,_RNvNtNtNtCs2XshHk0aCOj_9paperboat10mcp_server8handlers12tool_parsing17parse_create_task
FNDA:16,_RNvNtNtNtCs2XshHk0aCOj_9paperboat10mcp_server8handlers12tool_parsing18parse_spawn_agents
FNDA:8,_RNvNtNtNtCs2XshHk0aCOj_9paperboat10mcp_server8handlers12tool_parsing25parse_report_human_action
FNDA:84,_RNvNtNtNtNtCs2XshHk0aCOj_9paperboat10mcp_server8handlers12tool_parsing5tests6object
FNDA:1,_RNvNtNtNtNtCs2XshHk0aCOj_9paperboat10mcp_server8handlers12tool_parsing5testss_39parse_complete_requires_boolean_success
FNDA:1,_RNvNtNtNtNtCs2XshHk0aCOj_9paperboat10mcp_server8handlers12tool_parsing5testss_41parse_list_tasks_accepts_all_valid_inputs
FNDA:1,_RNvNtNtNtNtCs2XshHk0aCOj_9paperboat10mcp_server8handlers12tool_parsing5testss_46parse_skip_tasks_requires_non_empty_string_ids
FNDA:1,_RNvNtNtNtNtCs2XshHk0aCOj_9paperboat10mcp_server8handlers12tool_parsing5testss_47parse_set_goal_validates_all_required_arguments
FNDA:1,_RNvNtNtNtNtCs2XshHk0aCOj_9paperboat10mcp_server8handlers12tool_parsing5testss_50parse_complete_validates_all_argument_combinations
FNDA:1,_RNvNtNtNtNtCs2XshHk0aCOj_9paperboat10mcp_server8handlers12tool_parsing5testss_50parse_create_task_validates_all_required_arguments
FNDA:1,_RNvNtNtNtNtCs2XshHk0aCOj_9paperboat10mcp_server8handlers12tool_parsing5testss_51parse_skip_tasks_validates_empty_and_missing_arrays
FNDA:1,_RNvNtNtNtNtCs2XshHk0aCOj_9paperboat10mcp_server8handlers12tool_parsing5testss_54parse_spawn_agents_deprecated_task_vs_task_id_fallback
FNDA:1,_RNvNtNtNtNtCs2XshHk0aCOj_9paperboat10mcp_server8handlers12tool_parsing5testss_54parse_spawn_agents_validates_mixed_valid_invalid_specs
FNDA:1,_RNvNtNtNtNtCs2XshHk0aCOj_9paperboat10mcp_server8handlers12tool_parsing5testss_56parse_decompose_supports_preferred_and_deprecated_inputs
FNDA:1,_RNvNtNtNtNtCs2XshHk0aCOj_9paperboat10mcp_server8handlers12tool_parsing5testss_57parse_spawn_agents_validates_agents_payload_and_wait_mode
FNDA:1,_RNvNtNtNtNtCs2XshHk0aCOj_9paperboat10mcp_server8handlers12tool_parsing5testss_58parse_report_human_action_validates_all_required_arguments
FNDA:1,_RNvNtNtNtNtCs2XshHk0aCOj_9paperboat10mcp_server8handlers12tool_parsing5testss_59parse_remaining_supported_tools_validate_required_arguments
FNDA:1,_RNvNtNtNtNtCs2XshHk0aCOj_9paperboat10mcp_server8handlers12tool_parsing5testss_61parse_decompose_validates_missing_arguments_and_invalid_types
FNDA:7,_RNCNCNvNtNtNtCs2XshHk0aCOj_9paperboat10mcp_server8handlers12tool_parsing17parse_create_tasks1_00Bb_
FNDA:3,_RNCNvNtNtNtCs2XshHk0aCOj_9paperboat10mcp_server8handlers12tool_parsing14parse_complete0B9_
FNDA:3,_RNCNvNtNtNtCs2XshHk0aCOj_9paperboat10mcp_server8handlers12tool_parsing14parse_completes0_0B9_
FNDA:3,_RNCNvNtNtNtCs2XshHk0aCOj_9paperboat10mcp_server8handlers12tool_parsing14parse_completes_0B9_
FNDA:6,_RNCNvNtNtNtCs2XshHk0aCOj_9paperboat10mcp_server8handlers12tool_parsing14parse_set_goal0B9_
FNDA:3,_RNCNvNtNtNtCs2XshHk0aCOj_9paperboat10mcp_server8handlers12tool_parsing14parse_set_goals_0B9_
FNDA:7,_RNCNvNtNtNtCs2XshHk0aCOj_9paperboat10mcp_server8handlers12tool_parsing15parse_decompose0B9_
FNDA:3,_RNCNvNtNtNtCs2XshHk0aCOj_9paperboat10mcp_server8handlers12tool_parsing15parse_decomposes_0B9_
FNDA:6,_RNCNvNtNtNtCs2XshHk0aCOj_9paperboat10mcp_server8handlers12tool_parsing16parse_list_tasks0B9_
FNDA:11,_RNCNvNtNtNtCs2XshHk0aCOj_9paperboat10mcp_server8handlers12tool_parsing16parse_skip_tasks0B9_
FNDA:4,_RNCNvNtNtNtCs2XshHk0aCOj_9paperboat10mcp_server8handlers12tool_parsing16parse_skip_taskss0_0B9_
FNDA:17,_RNCNvNtNtNtCs2XshHk0aCOj_9paperboat10mcp_server8handlers12tool_parsing16parse_skip_taskss_0B9_
FNDA:9,_RNCNvNtNtNtCs2XshHk0aCOj_9paperboat10mcp_server8handlers12tool_parsing17parse_create_task0B9_
FNDA:3,_RNCNvNtNtNtCs2XshHk0aCOj_9paperboat10mcp_server8handlers12tool_parsing17parse_create_tasks0_0B9_
FNDA:3,_RNCNvNtNtNtCs2XshHk0aCOj_9paperboat10mcp_server8handlers12tool_parsing17parse_create_tasks1_0B9_
FNDA:5,_RNCNvNtNtNtCs2XshHk0aCOj_9paperboat10mcp_server8handlers12tool_parsing17parse_create_tasks_0B9_
FNDA:3,_RNCNvNtNtNtCs2XshHk0aCOj_9paperboat10mcp_server8handlers12tool_parsing18parse_spawn_agents0B9_
FNDA:6,_RNCNvNtNtNtCs2XshHk0aCOj_9paperboat10mcp_server8handlers12tool_parsing25parse_report_human_action0B9_
FNDA:3,_RNCNvNtNtNtCs2XshHk0aCOj_9paperboat10mcp_server8handlers12tool_parsing25parse_report_human_actions_0B9_
FNF:42
FNH:42
DA:12,12
DA:13,12
DA:14,12
DA:15,12
DA:16,12
DA:19,12
DA:20,12
DA:21,12
DA:22,12
DA:25,12
DA:26,8
DA:27,8
DA:28,8
DA:29,8
DA:30,4
DA:32,4
DA:33,2
DA:34,2
DA:36,4
DA:37,12
DA:40,16
DA:41,16
DA:42,14
DA:43,8
DA:44,6
DA:45,6
DA:46,6
DA:51,11
DA:52,11
DA:53,4
DA:59,7
DA:62,8
DA:63,8
DA:64,8
DA:65,8
DA:67,8
DA:69,2
DA:70,2
DA:72,16
DA:75,12
DA:76,12
DA:77,12
DA:78,12
DA:80,6
DA:81,6
DA:82,6
DA:83,6
DA:84,6
DA:85,6
DA:86,6
DA:87,6
DA:88,6
DA:89,6
DA:90,6
DA:91,6
DA:92,6
DA:93,6
DA:94,6
DA:95,6
DA:96,6
DA:98,6
DA:99,6
DA:101,12
DA:104,11
DA:105,11
DA:106,7
DA:108,4
DA:109,4
DA:112,7
DA:113,4
DA:115,3
DA:116,3
DA:119,4
DA:120,4
DA:121,4
DA:122,4
DA:123,3
DA:124,7
DA:125,3
DA:126,3
DA:127,4
DA:129,4
DA:130,4
DA:131,4
DA:132,4
DA:133,4
DA:134,11
DA:137,8
DA:138,8
DA:139,4
DA:141,4
DA:142,4
DA:145,4
DA:146,4
DA:147,4
DA:148,4
DA:150,4
DA:151,4
DA:152,4
DA:153,4
DA:154,8
DA:157,13
DA:158,13
DA:159,9
DA:160,9
DA:161,17
DA:162,9
DA:163,9
DA:164,4
DA:165,4
DA:166,5
DA:167,5
DA:169,4
DA:170,4
DA:173,5
DA:174,5
DA:175,5
DA:176,5
DA:178,5
DA:179,13
DA:183,7
DA:184,7
DA:185,7
DA:186,7
DA:187,7
DA:189,7
DA:190,7
DA:193,8
DA:194,8
DA:195,4
DA:197,4
DA:198,4
DA:201,4
DA:202,4
DA:203,4
DA:204,4
DA:206,4
DA:207,4
DA:208,4
DA:209,4
DA:210,8
DA:217,84
DA:218,84
DA:219,84
DA:222,1
DA:223,1
DA:224,1
DA:225,1
DA:226,1
DA:227,1
DA:228,1
DA:229,1
DA:230,1
DA:231,1
DA:232,1
DA:233,1
DA:234,1
DA:235,1
DA:236,1
DA:237,1
DA:238,1
DA:239,1
DA:240,1
DA:241,1
DA:242,1
DA:243,1
DA:244,1
DA:246,4
DA:247,4
DA:248,4
DA:249,2
DA:250,2
DA:251,2
DA:253,2
DA:254,2
DA:256,0
DA:257,0
DA:261,1
DA:264,1
DA:265,1
DA:266,1
DA:267,1
DA:268,1
DA:269,1
DA:270,1
DA:271,1
DA:272,1
DA:273,1
DA:274,1
DA:275,1
DA:276,1
DA:277,1
DA:278,1
DA:279,1
DA:280,1
DA:281,1
DA:282,1
DA:283,1
DA:284,1
DA:285,1
DA:286,1
DA:287,1
DA:288,1
DA:289,1
DA:290,1
DA:291,1
DA:292,1
DA:293,1
DA:294,1
DA:295,1
DA:296,1
DA:297,1
DA:298,1
DA:299,1
DA:300,1
DA:301,1
DA:302,1
DA:303,1
DA:304,1
DA:305,1
DA:306,1
DA:307,1
DA:308,1
DA:309,1
DA:310,1
DA:311,1
DA:312,1
DA:313,1
DA:314,1
DA:315,1
DA:316,1
DA:317,1
DA:318,1
DA:319,1
DA:320,1
DA:321,1
DA:322,1
DA:324,5
DA:325,5
DA:326,5
DA:328,3
DA:330,3
DA:331,3
DA:332,3
DA:333,3
DA:334,3
DA:337,3
DA:338,3
DA:339,3
DA:340,3
DA:341,3
DA:342,3
DA:344,2
DA:345,2
DA:347,0
DA:348,0
DA:352,1
DA:355,1
DA:356,1
DA:357,1
DA:358,1
DA:359,1
DA:360,1
DA:361,1
DA:362,1
DA:363,1
DA:364,1
DA:365,1
DA:366,1
DA:367,1
DA:368,1
DA:369,1
DA:370,1
DA:371,1
DA:372,1
DA:373,1
DA:374,1
DA:375,1
DA:376,1
DA:377,1
DA:378,1
DA:379,1
DA:380,1
DA:381,1
DA:382,1
DA:383,1
DA:384,1
DA:385,1
DA:386,1
DA:387,1
DA:388,1
DA:389,1
DA:390,1
DA:391,1
DA:393,5
DA:394,5
DA:395,5
DA:397,2
DA:398,2
DA:400,2
DA:401,2
DA:403,3
DA:404,3
DA:406,0
DA:407,0
DA:411,1
DA:414,1
DA:415,1
DA:416,1
DA:417,1
DA:418,1
DA:419,1
DA:420,1
DA:421,1
DA:422,1
DA:423,1
DA:424,1
DA:425,1
DA:426,1
DA:427,1
DA:428,1
DA:429,1
DA:430,1
DA:431,1
DA:432,1
DA:433,1
DA:434,1
DA:435,1
DA:436,1
DA:437,1
DA:438,1
DA:439,1
DA:440,1
DA:441,1
DA:442,1
DA:443,1
DA:444,1
DA:445,1
DA:446,1
DA:447,1
DA:449,3
DA:450,3
DA:451,3
DA:454,1
DA:455,1
DA:456,1
DA:457,1
DA:459,1
DA:461,1
DA:462,1
DA:463,1
DA:464,1
DA:465,1
DA:470,2
DA:471,2
DA:473,0
DA:474,0
DA:478,1
DA:481,1
DA:482,1
DA:483,1
DA:484,1
DA:485,1
DA:486,1
DA:487,1
DA:488,1
DA:489,1
DA:490,1
DA:491,1
DA:492,1
DA:493,1
DA:494,1
DA:495,1
DA:496,1
DA:497,1
DA:498,1
DA:499,1
DA:500,1
DA:501,1
DA:502,1
DA:503,1
DA:504,1
DA:505,1
DA:506,1
DA:508,3
DA:509,3
DA:510,3
DA:513,1
DA:514,1
DA:515,1
DA:517,1
DA:519,1
DA:520,1
DA:521,1
DA:523,2
DA:524,2
DA:526,0
DA:527,0
DA:532,1
DA:533,1
DA:534,1
DA:535,1
DA:536,1
DA:537,1
DA:538,1
DA:539,1
DA:540,1
DA:541,1
DA:542,1
DA:543,1
DA:544,1
DA:545,1
DA:546,1
DA:547,1
DA:548,1
DA:549,1
DA:551,2
DA:552,2
DA:553,2
DA:556,1
DA:557,1
DA:559,1
DA:561,1
DA:562,1
DA:564,1
DA:565,1
DA:567,0
DA:568,0
DA:573,1
DA:574,1
DA:575,1
DA:576,1
DA:577,1
DA:578,1
DA:579,1
DA:580,1
DA:581,1
DA:582,1
DA:583,1
DA:584,1
DA:585,1
DA:586,1
DA:587,1
DA:589,2
DA:590,2
DA:591,2
DA:594,1
DA:595,1
DA:597,1
DA:599,1
DA:600,1
DA:602,1
DA:603,1
DA:605,0
DA:606,0
DA:611,1
DA:612,1
DA:613,1
DA:614,1
DA:616,0
DA:618,1
DA:621,1
DA:622,1
DA:623,1
DA:624,1
DA:625,1
DA:626,1
DA:627,1
DA:628,1
DA:629,1
DA:630,1
DA:631,1
DA:632,1
DA:633,1
DA:634,1
DA:635,1
DA:636,1
DA:637,1
DA:638,1
DA:639,1
DA:640,1
DA:641,1
DA:642,1
DA:643,1
DA:644,1
DA:645,1
DA:646,1
DA:647,1
DA:648,1
DA:649,1
DA:650,1
DA:651,1
DA:652,1
DA:653,1
DA:654,1
DA:655,1
DA:656,1
DA:657,1
DA:658,1
DA:660,7
DA:661,7
DA:662,7
DA:663,2
DA:664,2
DA:665,2
DA:667,5
DA:668,5
DA:670,0
DA:671,0
DA:675,1
DA:678,1
DA:680,1
DA:681,1
DA:682,1
DA:683,1
DA:684,1
DA:685,1
DA:686,1
DA:687,1
DA:688,1
DA:689,1
DA:690,1
DA:691,1
DA:692,1
DA:693,1
DA:694,1
DA:695,1
DA:696,1
DA:697,1
DA:698,1
DA:699,1
DA:700,1
DA:701,1
DA:702,1
DA:703,1
DA:704,1
DA:705,1
DA:706,1
DA:707,1
DA:708,1
DA:709,1
DA:710,1
DA:711,1
DA:712,1
DA:713,1
DA:714,1
DA:715,1
DA:716,1
DA:717,1
DA:718,1
DA:719,1
DA:720,1
DA:721,1
DA:722,1
DA:723,1
DA:724,1
DA:725,1
DA:726,1
DA:727,1
DA:728,1
DA:729,1
DA:730,1
DA:731,1
DA:732,1
DA:733,1
DA:734,1
DA:735,1
DA:736,1
DA:737,1
DA:739,7
DA:740,7
DA:741,7
DA:742,2
DA:743,2
DA:744,2
DA:746,5
DA:747,5
DA:749,0
DA:750,0
DA:754,1
DA:757,1
DA:758,1
DA:759,1
DA:760,1
DA:761,1
DA:762,1
DA:763,1
DA:764,1
DA:765,1
DA:766,1
DA:767,1
DA:768,1
DA:769,1
DA:770,1
DA:771,1
DA:772,1
DA:773,1
DA:774,1
DA:775,1
DA:776,1
DA:777,1
DA:778,1
DA:779,1
DA:780,1
DA:781,1
DA:782,1
DA:783,1
DA:784,1
DA:786,3
DA:787,3
DA:788,3
DA:789,3
DA:790,3
DA:791,3
DA:792,3
DA:793,3
DA:795,0
DA:796,0
DA:799,1
DA:802,1
DA:803,1
DA:804,1
DA:805,1
DA:806,1
DA:807,1
DA:808,1
DA:809,1
DA:810,1
DA:811,1
DA:812,1
DA:813,1
DA:814,1
DA:815,1
DA:816,1
DA:817,1
DA:818,1
DA:819,1
DA:820,1
DA:821,1
DA:822,1
DA:823,1
DA:824,1
DA:825,1
DA:826,1
DA:827,1
DA:828,1
DA:829,1
DA:830,1
DA:831,1
DA:832,1
DA:833,1
DA:834,1
DA:835,1
DA:836,1
DA:837,1
DA:838,1
DA:839,1
DA:840,1
DA:841,1
DA:842,1
DA:843,1
DA:844,1
DA:845,1
DA:846,1
DA:847,1
DA:848,1
DA:849,1
DA:850,1
DA:851,1
DA:852,1
DA:854,8
DA:855,8
DA:856,8
DA:859,5
DA:860,5
DA:861,5
DA:862,5
DA:864,5
DA:866,5
DA:867,5
DA:868,5
DA:869,5
DA:870,5
DA:875,3
DA:876,3
DA:878,0
DA:879,0
DA:883,1
DA:886,1
DA:887,1
DA:888,1
DA:889,1
DA:890,1
DA:891,1
DA:892,1
DA:893,1
DA:894,1
DA:895,1
DA:896,1
DA:897,1
DA:898,1
DA:899,1
DA:900,1
DA:901,1
DA:902,1
DA:903,1
DA:904,1
DA:905,1
DA:906,1
DA:907,1
DA:908,1
DA:909,1
DA:910,1
DA:911,1
DA:912,1
DA:913,1
DA:914,1
DA:915,1
DA:916,1
DA:917,1
DA:918,1
DA:919,1
DA:920,1
DA:921,1
DA:922,1
DA:923,1
DA:924,1
DA:925,1
DA:926,1
DA:927,1
DA:928,1
DA:929,1
DA:930,1
DA:931,1
DA:932,1
DA:934,8
DA:935,8
DA:936,8
DA:939,3
DA:940,3
DA:941,3
DA:943,3
DA:945,3
DA:946,3
DA:947,3
DA:949,5
DA:950,5
DA:952,0
DA:953,0
DA:957,1
DA:960,1
DA:961,1
DA:962,1
DA:963,1
DA:964,1
DA:965,1
DA:966,1
DA:967,1
DA:968,1
DA:969,1
DA:970,1
DA:971,1
DA:972,1
DA:973,1
DA:974,1
DA:975,1
DA:976,1
DA:977,1
DA:978,1
DA:979,1
DA:980,1
DA:981,1
DA:982,1
DA:983,1
DA:984,1
DA:985,1
DA:986,1
DA:987,1
DA:988,1
DA:989,1
DA:990,1
DA:991,1
DA:992,1
DA:993,1
DA:994,1
DA:995,1
DA:997,6
DA:998,6
DA:999,6
DA:1002,3
DA:1003,3
DA:1005,3
DA:1007,3
DA:1008,3
DA:1010,3
DA:1011,3
DA:1013,0
DA:1014,0
DA:1018,1
DA:1021,1
DA:1022,1
DA:1023,1
DA:1024,1
DA:1025,1
DA:1026,1
DA:1027,1
DA:1028,1
DA:1029,1
DA:1030,1
DA:1031,1
DA:1032,1
DA:1033,1
DA:1034,1
DA:1035,1
DA:1036,1
DA:1037,1
DA:1038,1
DA:1039,1
DA:1040,1
DA:1041,1
DA:1042,1
DA:1043,1
DA:1044,1
DA:1045,1
DA:1046,1
DA:1047,1
DA:1048,1
DA:1049,1
DA:1050,1
DA:1051,1
DA:1052,1
DA:1053,1
DA:1054,1
DA:1055,1
DA:1056,1
DA:1057,1
DA:1058,1
DA:1059,1
DA:1060,1
DA:1061,1
DA:1062,1
DA:1063,1
DA:1064,1
DA:1065,1
DA:1066,1
DA:1068,8
DA:1069,8
DA:1070,8
DA:1072,3
DA:1073,3
DA:1075,3
DA:1076,3
DA:1078,5
DA:1079,5
DA:1081,0
DA:1082,0
DA:1086,1
DA:1089,1
DA:1090,1
DA:1091,1
DA:1092,1
DA:1093,1
DA:1094,1
DA:1095,1
DA:1096,1
DA:1097,1
DA:1098,1
DA:1099,1
DA:1100,1
DA:1101,1
DA:1102,1
DA:1103,1
DA:1104,1
DA:1105,1
DA:1106,1
DA:1107,1
DA:1108,1
DA:1109,1
DA:1110,1
DA:1111,1
DA:1112,1
DA:1113,1
DA:1114,1
DA:1115,1
DA:1116,1
DA:1117,1
DA:1118,1
DA:1119,1
DA:1120,1
DA:1121,1
DA:1123,6
DA:1124,6
DA:1125,6
DA:1128,3
DA:1129,3
DA:1131,3
DA:1133,3
DA:1134,3
DA:1136,3
DA:1137,3
DA:1139,0
DA:1140,0
DA:1144,1
DA:1147,1
DA:1148,1
DA:1149,1
DA:1150,1
DA:1151,1
DA:1152,1
DA:1153,1
DA:1154,1
DA:1155,1
DA:1157,6
DA:1158,6
DA:1159,6
DA:1160,6
DA:1161,6
DA:1163,0
DA:1166,1
BRF:0
BRH:0
LF:938
LH:906
end_of_record
SF:/Users/dbmrq/Documents/Programação/Misc/paperboat/src/mcp_server/handlers/tool_schemas.rs
FN:8,_RNvNtNtNtCs2XshHk0aCOj_9paperboat10mcp_server8handlers12tool_schemas15set_goal_schema
FN:142,_RNvNtNtNtCs2XshHk0aCOj_9paperboat10mcp_server8handlers12tool_schemas16decompose_schema
FN:252,_RNvNtNtNtCs2XshHk0aCOj_9paperboat10mcp_server8handlers12tool_schemas17list_tasks_schema
FN:229,_RNvNtNtNtCs2XshHk0aCOj_9paperboat10mcp_server8handlers12tool_schemas17skip_tasks_schema
FN:160,_RNvNtNtNtCs2XshHk0aCOj_9paperboat10mcp_server8handlers12tool_schemas19spawn_agents_schema
FN:59,_RNvNtNtNtCs2XshHk0aCOj_9paperboat10mcp_server8handlers12tool_schemas23complete_schema_planner
FN:30,_RNvNtNtNtCs2XshHk0aCOj_9paperboat10mcp_server8handlers12tool_schemas26create_task_schema_planner
FN:271,_RNvNtNtNtCs2XshHk0aCOj_9paperboat10mcp_server8handlers12tool_schemas26report_human_action_schema
FN:81,_RNvNtNtNtCs2XshHk0aCOj_9paperboat10mcp_server8handlers12tool_schemas27complete_schema_implementer
FN:120,_RNvNtNtNtCs2XshHk0aCOj_9paperboat10mcp_server8handlers12tool_schemas28complete_schema_orchestrator
FN:202,_RNvNtNtNtCs2XshHk0aCOj_9paperboat10mcp_server8handlers12tool_schemas31create_task_schema_orchestrator
FNDA:3,_RNvNtNtNtCs2XshHk0aCOj_9paperboat10mcp_server8handlers12tool_schemas15set_goal_schema
FNDA:7,_RNvNtNtNtCs2XshHk0aCOj_9paperboat10mcp_server8handlers12tool_schemas16decompose_schema
FNDA:7,_RNvNtNtNtCs2XshHk0aCOj_9paperboat10mcp_server8handlers12tool_schemas17list_tasks_schema
FNDA:7,_RNvNtNtNtCs2XshHk0aCOj_9paperboat10mcp_server8handlers12tool_schemas17skip_tasks_schema
FNDA:7,_RNvNtNtNtCs2XshHk0aCOj_9paperboat10mcp_server8handlers12tool_schemas19spawn_agents_schema
FNDA:3,_RNvNtNtNtCs2XshHk0aCOj_9paperboat10mcp_server8handlers12tool_schemas23complete_schema_planner
FNDA:3,_RNvNtNtNtCs2XshHk0aCOj_9paperboat10mcp_server8handlers12tool_schemas26create_task_schema_planner
FNDA:7,_RNvNtNtNtCs2XshHk0aCOj_9paperboat10mcp_server8handlers12tool_schemas26report_human_action_schema
FNDA:2,_RNvNtNtNtCs2XshHk0aCOj_9paperboat10mcp_server8handlers12tool_schemas27complete_schema_implementer
FNDA:7,_RNvNtNtNtCs2XshHk0aCOj_9paperboat10mcp_server8handlers12tool_schemas28complete_schema_orchestrator
FNDA:7,_RNvNtNtNtCs2XshHk0aCOj_9paperboat10mcp_server8handlers12tool_schemas31create_task_schema_orchestrator
FNF:11
FNH:11
DA:8,3
DA:9,3
DA:10,3
DA:11,3
DA:12,3
DA:13,3
DA:14,3
DA:15,3
DA:16,3
DA:17,3
DA:19,3
DA:20,3
DA:21,3
DA:24,3
DA:27,3
DA:30,3
DA:31,3
DA:32,3
DA:33,3
DA:34,3
DA:35,3
DA:36,3
DA:37,3
DA:38,3
DA:39,3
DA:41,3
DA:42,3
DA:43,3
DA:45,3
DA:46,3
DA:47,3
DA:48,3
DA:50,3
DA:53,3
DA:56,3
DA:59,3
DA:60,3
DA:61,3
DA:62,3
DA:63,3
DA:64,3
DA:65,3
DA:66,3
DA:67,3
DA:68,3
DA:70,3
DA:71,3
DA:72,3
DA:75,3
DA:78,3
DA:81,2
DA:82,2
DA:83,2
DA:84,2
DA:85,2
DA:86,2
DA:87,2
DA:88,2
DA:89,2
DA:90,2
DA:92,2
DA:93,2
DA:94,2
DA:96,2
DA:97,2
DA:98,2
DA:100,2
DA:101,2
DA:102,2
DA:103,2
DA:104,2
DA:105,2
DA:106,2
DA:107,2
DA:108,2
DA:110,2
DA:114,2
DA:117,2
DA:120,7
DA:121,7
DA:122,7
DA:123,7
DA:124,7
DA:125,7
DA:126,7
DA:127,7
DA:128,7
DA:129,7
DA:131,7
DA:132,7
DA:133,7
DA:136,7
DA:139,7
DA:142,7
DA:143,7
DA:144,7
DA:145,7
DA:146,7
DA:147,7
DA:148,7
DA:149,7
DA:150,7
DA:151,7
DA:154,7
DA:157,7
DA:160,7
DA:161,7
DA:164,7
DA:168,7
DA:169,7
DA:170,7
DA:171,7
DA:172,7
DA:173,7
DA:174,7
DA:175,7
DA:176,7
DA:177,7
DA:178,7
DA:179,7
DA:180,7
DA:181,7
DA:182,7
DA:183,7
DA:184,7
DA:186,7
DA:189,7
DA:190,7
DA:191,7
DA:192,7
DA:193,7
DA:196,7
DA:199,7
DA:202,7
DA:203,7
DA:204,7
DA:205,7
DA:206,7
DA:207,7
DA:208,7
DA:209,7
DA:210,7
DA:211,7
DA:213,7
DA:214,7
DA:215,7
DA:217,7
DA:218,7
DA:219,7
DA:220,7
DA:223,7
DA:226,7
DA:229,7
DA:230,7
DA:231,7
DA:232,7
DA:233,7
DA:234,7
DA:235,7
DA:236,7
DA:237,7
DA:238,7
DA:239,7
DA:241,7
DA:242,7
DA:243,7
DA:246,7
DA:249,7
DA:252,7
DA:253,7
DA:254,7
DA:255,7
DA:256,7
DA:257,7
DA:258,7
DA:259,7
DA:260,7
DA:261,7
DA:262,7
DA:263,7
DA:268,7
DA:271,7
DA:272,7
DA:273,7
DA:274,7
DA:275,7
DA:276,7
DA:277,7
DA:278,7
DA:279,7
DA:280,7
DA:282,7
DA:283,7
DA:284,7
DA:287,7
DA:290,7
BRF:0
BRH:0
LF:196
LH:196
end_of_record
SF:/Users/dbmrq/Documents/Programação/Misc/paperboat/src/mcp_server/server.rs
FN:312,_RINvNtNtNtCs2XshHk0aCOj_9paperboat10mcp_server6server5tests21make_json_rpc_requestlEB8_
FN:321,_RINvNtNtNtCs2XshHk0aCOj_9paperboat10mcp_server6server5tests22make_tool_call_requestlEB8_
FN:408,_RNCNCNvNtNtNtCs2XshHk0aCOj_9paperboat10mcp_server6server5testss_35test_tools_list_has_correct_schemas00Bb_
FN:418,_RNCNCNvNtNtNtCs2XshHk0aCOj_9paperboat10mcp_server6server5testss_35test_tools_list_has_correct_schemas0s_0Bb_
FN:383,_RNCNCNvNtNtNtCs2XshHk0aCOj_9paperboat10mcp_server6server5testss_46test_tools_list_returns_all_orchestrator_tools00Bb_
FN:379,_RNCNCNvNtNtNtCs2XshHk0aCOj_9paperboat10mcp_server6server5testss_46test_tools_list_returns_all_orchestrator_tools0s_0Bb_
FN:579,_RNCNvNtNtNtCs2XshHk0aCOj_9paperboat10mcp_server6server5testss_31test_unknown_tool_returns_error0B9_
FN:395,_RNCNvNtNtNtCs2XshHk0aCOj_9paperboat10mcp_server6server5testss_35test_tools_list_has_correct_schemas0B9_
FN:446,_RNCNvNtNtNtCs2XshHk0aCOj_9paperboat10mcp_server6server5testss_39test_notification_without_id_is_ignored0B9_
FN:537,_RNCNvNtNtNtCs2XshHk0aCOj_9paperboat10mcp_server6server5testss_41test_decompose_missing_task_returns_error0B9_
FN:462,_RNCNvNtNtNtCs2XshHk0aCOj_9paperboat10mcp_server6server5testss_41test_request_missing_method_returns_error0B9_
FN:431,_RNCNvNtNtNtCs2XshHk0aCOj_9paperboat10mcp_server6server5testss_41test_unknown_method_with_id_returns_error0B9_
FN:503,_RNCNvNtNtNtCs2XshHk0aCOj_9paperboat10mcp_server6server5testss_42test_tools_call_missing_name_returns_error0B9_
FN:561,_RNCNvNtNtNtCs2XshHk0aCOj_9paperboat10mcp_server6server5testss_43test_complete_missing_success_returns_error0B9_
FN:487,_RNCNvNtNtNtCs2XshHk0aCOj_9paperboat10mcp_server6server5testss_44test_tools_call_missing_params_returns_error0B9_
FN:549,_RNCNvNtNtNtCs2XshHk0aCOj_9paperboat10mcp_server6server5testss_46test_spawn_agents_missing_agents_returns_error0B9_
FN:360,_RNCNvNtNtNtCs2XshHk0aCOj_9paperboat10mcp_server6server5testss_46test_tools_list_returns_all_orchestrator_tools0B9_
FN:520,_RNCNvNtNtNtCs2XshHk0aCOj_9paperboat10mcp_server6server5testss_47test_tools_call_missing_arguments_returns_error0B9_
FN:337,_RNCNvNtNtNtCs2XshHk0aCOj_9paperboat10mcp_server6server5testss_48test_initialize_returns_correct_protocol_version0B9_
FN:106,_RNCNCNCNvNtNtCs2XshHk0aCOj_9paperboat10mcp_server6server16run_stdio_server000Bb_
FN:98,_RNCNCNvNtNtCs2XshHk0aCOj_9paperboat10mcp_server6server16run_stdio_server00B9_
FN:29,_RNCNvNtNtCs2XshHk0aCOj_9paperboat10mcp_server6server16run_stdio_server0B7_
FN:29,_RNvNtNtCs2XshHk0aCOj_9paperboat10mcp_server6server16run_stdio_server
FN:579,_RNvNtNtNtCs2XshHk0aCOj_9paperboat10mcp_server6server5testss_31test_unknown_tool_returns_error
FN:203,_RNvNtNtNtCs2XshHk0aCOj_9paperboat10mcp_server6server5testss_35test_tool_call_decompose_round_trip
FN:395,_RNvNtNtNtCs2XshHk0aCOj_9paperboat10mcp_server6server5testss_35test_tools_list_has_correct_schemas
FN:172,_RNvNtNtNtCs2XshHk0aCOj_9paperboat10mcp_server6server5testss_37test_tool_call_complete_serialization
FN:143,_RNvNtNtNtCs2XshHk0aCOj_9paperboat10mcp_server6server5testss_38test_tool_call_decompose_serialization
FN:220,_RNvNtNtNtCs2XshHk0aCOj_9paperboat10mcp_server6server5testss_38test_tool_call_spawn_agents_round_trip
FN:446,_RNvNtNtNtCs2XshHk0aCOj_9paperboat10mcp_server6server5testss_39test_notification_without_id_is_ignored
FN:186,_RNvNtNtNtCs2XshHk0aCOj_9paperboat10mcp_server6server5testss_39test_tool_call_complete_without_message
FN:537,_RNvNtNtNtCs2XshHk0aCOj_9paperboat10mcp_server6server5testss_41test_decompose_missing_task_returns_error
FN:462,_RNvNtNtNtCs2XshHk0aCOj_9paperboat10mcp_server6server5testss_41test_request_missing_method_returns_error
FN:154,_RNvNtNtNtCs2XshHk0aCOj_9paperboat10mcp_server6server5testss_41test_tool_call_spawn_agents_serialization
FN:431,_RNvNtNtNtCs2XshHk0aCOj_9paperboat10mcp_server6server5testss_41test_unknown_method_with_id_returns_error
FN:503,_RNvNtNtNtCs2XshHk0aCOj_9paperboat10mcp_server6server5testss_42test_tools_call_missing_name_returns_error
FN:561,_RNvNtNtNtCs2XshHk0aCOj_9paperboat10mcp_server6server5testss_43test_complete_missing_success_returns_error
FN:487,_RNvNtNtNtCs2XshHk0aCOj_9paperboat10mcp_server6server5testss_44test_tools_call_missing_params_returns_error
FN:549,_RNvNtNtNtCs2XshHk0aCOj_9paperboat10mcp_server6server5testss_46test_spawn_agents_missing_agents_returns_error
FN:360,_RNvNtNtNtCs2XshHk0aCOj_9paperboat10mcp_server6server5testss_46test_tools_list_returns_all_orchestrator_tools
FN:246,_RNvNtNtNtCs2XshHk0aCOj_9paperboat10mcp_server6server5testss_47test_tool_call_complete_round_trip_with_message
FN:520,_RNvNtNtNtCs2XshHk0aCOj_9paperboat10mcp_server6server5testss_47test_tools_call_missing_arguments_returns_error
FN:337,_RNvNtNtNtCs2XshHk0aCOj_9paperboat10mcp_server6server5testss_48test_initialize_returns_correct_protocol_version
FN:268,_RNvNtNtNtCs2XshHk0aCOj_9paperboat10mcp_server6server5testss_50test_tool_call_complete_round_trip_without_message
FN:290,_RNvNtNtNtCs2XshHk0aCOj_9paperboat10mcp_server6server5testss_51test_tool_call_json_format_matches_app_expectations
FNDA:10,_RINvNtNtNtCs2XshHk0aCOj_9paperboat10mcp_server6server5tests21make_json_rpc_requestlEB8_
FNDA:4,_RINvNtNtNtCs2XshHk0aCOj_9paperboat10mcp_server6server5tests22make_tool_call_requestlEB8_
FNDA:1,_RNCNCNvNtNtNtCs2XshHk0aCOj_9paperboat10mcp_server6server5testss_35test_tools_list_has_correct_schemas00Bb_
FNDA:3,_RNCNCNvNtNtNtCs2XshHk0aCOj_9paperboat10mcp_server6server5testss_35test_tools_list_has_correct_schemas0s_0Bb_
FNDA:7,_RNCNCNvNtNtNtCs2XshHk0aCOj_9paperboat10mcp_server6server5testss_46test_tools_list_returns_all_orchestrator_tools00Bb_
FNDA:0,_RNCNCNvNtNtNtCs2XshHk0aCOj_9paperboat10mcp_server6server5testss_46test_tools_list_returns_all_orchestrator_tools0s_0Bb_
FNDA:1,_RNCNvNtNtNtCs2XshHk0aCOj_9paperboat10mcp_server6server5testss_31test_unknown_tool_returns_error0B9_
FNDA:1,_RNCNvNtNtNtCs2XshHk0aCOj_9paperboat10mcp_server6server5testss_35test_tools_list_has_correct_schemas0B9_
FNDA:1,_RNCNvNtNtNtCs2XshHk0aCOj_9paperboat10mcp_server6server5testss_39test_notification_without_id_is_ignored0B9_
FNDA:1,_RNCNvNtNtNtCs2XshHk0aCOj_9paperboat10mcp_server6server5testss_41test_decompose_missing_task_returns_error0B9_
FNDA:1,_RNCNvNtNtNtCs2XshHk0aCOj_9paperboat10mcp_server6server5testss_41test_request_missing_method_returns_error0B9_
FNDA:1,_RNCNvNtNtNtCs2XshHk0aCOj_9paperboat10mcp_server6server5testss_41test_unknown_method_with_id_returns_error0B9_
FNDA:1,_RNCNvNtNtNtCs2XshHk0aCOj_9paperboat10mcp_server6server5testss_42test_tools_call_missing_name_returns_error0B9_
FNDA:1,_RNCNvNtNtNtCs2XshHk0aCOj_9paperboat10mcp_server6server5testss_43test_complete_missing_success_returns_error0B9_
FNDA:1,_RNCNvNtNtNtCs2XshHk0aCOj_9paperboat10mcp_server6server5testss_44test_tools_call_missing_params_returns_error0B9_
FNDA:1,_RNCNvNtNtNtCs2XshHk0aCOj_9paperboat10mcp_server6server5testss_46test_spawn_agents_missing_agents_returns_error0B9_
FNDA:1,_RNCNvNtNtNtCs2XshHk0aCOj_9paperboat10mcp_server6server5testss_46test_tools_list_returns_all_orchestrator_tools0B9_
FNDA:1,_RNCNvNtNtNtCs2XshHk0aCOj_9paperboat10mcp_server6server5testss_47test_tools_call_missing_arguments_returns_error0B9_
FNDA:1,_RNCNvNtNtNtCs2XshHk0aCOj_9paperboat10mcp_server6server5testss_48test_initialize_returns_correct_protocol_version0B9_
FNDA:0,_RNCNCNCNvNtNtCs2XshHk0aCOj_9paperboat10mcp_server6server16run_stdio_server000Bb_
FNDA:0,_RNCNCNvNtNtCs2XshHk0aCOj_9paperboat10mcp_server6server16run_stdio_server00B9_
FNDA:0,_RNCNvNtNtCs2XshHk0aCOj_9paperboat10mcp_server6server16run_stdio_server0B7_
FNDA:0,_RNvNtNtCs2XshHk0aCOj_9paperboat10mcp_server6server16run_stdio_server
FNDA:1,_RNvNtNtNtCs2XshHk0aCOj_9paperboat10mcp_server6server5testss_31test_unknown_tool_returns_error
FNDA:1,_RNvNtNtNtCs2XshHk0aCOj_9paperboat10mcp_server6server5testss_35test_tool_call_decompose_round_trip
FNDA:1,_RNvNtNtNtCs2XshHk0aCOj_9paperboat10mcp_server6server5testss_35test_tools_list_has_correct_schemas
FNDA:1,_RNvNtNtNtCs2XshHk0aCOj_9paperboat10mcp_server6server5testss_37test_tool_call_complete_serialization
FNDA:1,_RNvNtNtNtCs2XshHk0aCOj_9paperboat10mcp_server6server5testss_38test_tool_call_decompose_serialization
FNDA:1,_RNvNtNtNtCs2XshHk0aCOj_9paperboat10mcp_server6server5testss_38test_tool_call_spawn_agents_round_trip
FNDA:1,_RNvNtNtNtCs2XshHk0aCOj_9paperboat10mcp_server6server5testss_39test_notification_without_id_is_ignored
FNDA:1,_RNvNtNtNtCs2XshHk0aCOj_9paperboat10mcp_server6server5testss_39test_tool_call_complete_without_message
FNDA:1,_RNvNtNtNtCs2XshHk0aCOj_9paperboat10mcp_server6server5testss_41test_decompose_missing_task_returns_error
FNDA:1,_RNvNtNtNtCs2XshHk0aCOj_9paperboat10mcp_server6server5testss_41test_request_missing_method_returns_error
FNDA:1,_RNvNtNtNtCs2XshHk0aCOj_9paperboat10mcp_server6server5testss_41test_tool_call_spawn_agents_serialization
FNDA:1,_RNvNtNtNtCs2XshHk0aCOj_9paperboat10mcp_server6server5testss_41test_unknown_method_with_id_returns_error
FNDA:1,_RNvNtNtNtCs2XshHk0aCOj_9paperboat10mcp_server6server5testss_42test_tools_call_missing_name_returns_error
FNDA:1,_RNvNtNtNtCs2XshHk0aCOj_9paperboat10mcp_server6server5testss_43test_complete_missing_success_returns_error
FNDA:1,_RNvNtNtNtCs2XshHk0aCOj_9paperboat10mcp_server6server5testss_44test_tools_call_missing_params_returns_error
FNDA:1,_RNvNtNtNtCs2XshHk0aCOj_9paperboat10mcp_server6server5testss_46test_spawn_agents_missing_agents_returns_error
FNDA:1,_RNvNtNtNtCs2XshHk0aCOj_9paperboat10mcp_server6server5testss_46test_tools_list_returns_all_orchestrator_tools
FNDA:1,_RNvNtNtNtCs2XshHk0aCOj_9paperboat10mcp_server6server5testss_47test_tool_call_complete_round_trip_with_message
FNDA:1,_RNvNtNtNtCs2XshHk0aCOj_9paperboat10mcp_server6server5testss_47test_tools_call_missing_arguments_returns_error
FNDA:1,_RNvNtNtNtCs2XshHk0aCOj_9paperboat10mcp_server6server5testss_48test_initialize_returns_correct_protocol_version
FNDA:1,_RNvNtNtNtCs2XshHk0aCOj_9paperboat10mcp_server6server5testss_50test_tool_call_complete_round_trip_without_message
FNDA:1,_RNvNtNtNtCs2XshHk0aCOj_9paperboat10mcp_server6server5testss_51test_tool_call_json_format_matches_app_expectations
FNF:45
FNH:40
DA:29,0
DA:31,0
DA:33,0
DA:37,0
DA:38,0
DA:39,0
DA:40,0
DA:41,0
DA:42,0
DA:43,0
DA:44,0
DA:46,0
DA:47,0
DA:48,0
DA:49,0
DA:50,0
DA:52,0
DA:56,0
DA:57,0
DA:60,0
DA:61,0
DA:63,0
DA:64,0
DA:65,0
DA:69,0
DA:72,0
DA:73,0
DA:74,0
DA:75,0
DA:76,0
DA:78,0
DA:80,0
DA:85,0
DA:86,0
DA:87,0
DA:88,0
DA:89,0
DA:90,0
DA:96,0
DA:97,0
DA:98,0
DA:100,0
DA:101,0
DA:102,0
DA:103,0
DA:104,0
DA:105,0
DA:106,0
DA:107,0
DA:108,0
DA:109,0
DA:110,0
DA:111,0
DA:112,0
DA:113,0
DA:118,0
DA:119,0
DA:120,0
DA:121,0
DA:122,0
DA:123,0
DA:124,0
DA:127,0
DA:128,0
DA:143,1
DA:144,1
DA:145,1
DA:146,1
DA:147,1
DA:148,1
DA:149,1
DA:150,1
DA:151,1
DA:154,1
DA:155,1
DA:156,1
DA:157,1
DA:158,1
DA:159,1
DA:160,1
DA:161,1
DA:162,1
DA:163,1
DA:164,1
DA:165,1
DA:166,1
DA:167,1
DA:168,1
DA:169,1
DA:172,1
DA:173,1
DA:174,1
DA:175,1
DA:176,1
DA:177,1
DA:178,1
DA:179,1
DA:180,1
DA:181,1
DA:182,1
DA:183,1
DA:186,1
DA:187,1
DA:188,1
DA:189,1
DA:190,1
DA:191,1
DA:192,1
DA:193,1
DA:194,1
DA:195,1
DA:196,1
DA:203,1
DA:204,1
DA:205,1
DA:206,1
DA:207,1
DA:208,1
DA:209,1
DA:211,1
DA:212,1
DA:213,1
DA:215,0
DA:217,1
DA:220,1
DA:221,1
DA:222,1
DA:223,1
DA:224,1
DA:225,1
DA:226,1
DA:227,1
DA:228,1
DA:229,1
DA:230,1
DA:231,1
DA:232,1
DA:233,1
DA:235,1
DA:236,1
DA:237,1
DA:238,1
DA:239,1
DA:241,0
DA:243,1
DA:246,1
DA:247,1
DA:248,1
DA:249,1
DA:250,1
DA:251,1
DA:252,1
DA:253,1
DA:254,1
DA:256,1
DA:258,1
DA:260,1
DA:261,1
DA:263,0
DA:265,1
DA:268,1
DA:269,1
DA:270,1
DA:271,1
DA:272,1
DA:273,1
DA:274,1
DA:275,1
DA:276,1
DA:278,1
DA:280,1
DA:282,1
DA:283,1
DA:285,0
DA:287,1
DA:290,1
DA:292,1
DA:293,1
DA:294,1
DA:295,1
DA:296,1
DA:299,1
DA:300,1
DA:301,1
DA:302,1
DA:304,0
DA:306,1
DA:312,10
DA:313,10
DA:314,10
DA:315,10
DA:316,10
DA:317,10
DA:319,10
DA:321,4
DA:322,4
DA:323,4
DA:324,4
DA:325,4
DA:326,4
DA:327,4
DA:328,4
DA:330,4
DA:337,1
DA:339,1
DA:341,1
DA:342,1
DA:344,1
DA:345,1
DA:346,1
DA:347,1
DA:348,1
DA:349,1
DA:350,1
DA:351,1
DA:352,1
DA:353,1
DA:360,1
DA:362,1
DA:364,1
DA:366,1
DA:367,1
DA:369,1
DA:370,1
DA:373,1
DA:374,1
DA:377,0
DA:378,0
DA:379,0
DA:380,0
DA:383,7
DA:385,1
DA:386,1
DA:387,1
DA:388,1
DA:389,1
DA:390,1
DA:391,1
DA:392,1
DA:395,1
DA:397,1
DA:399,1
DA:401,1
DA:402,1
DA:404,1
DA:405,1
DA:408,1
DA:409,1
DA:411,1
DA:412,1
DA:413,1
DA:414,1
DA:415,1
DA:418,3
DA:419,1
DA:420,1
DA:421,1
DA:422,1
DA:423,1
DA:424,1
DA:431,1
DA:432,1
DA:434,1
DA:435,1
DA:437,1
DA:438,1
DA:439,1
DA:440,1
DA:441,1
DA:442,1
DA:443,1
DA:446,1
DA:447,1
DA:450,1
DA:451,1
DA:452,1
DA:453,1
DA:455,1
DA:458,1
DA:459,1
DA:462,1
DA:463,1
DA:465,1
DA:466,1
DA:467,1
DA:468,1
DA:470,1
DA:472,1
DA:473,1
DA:474,1
DA:475,1
DA:476,1
DA:477,1
DA:478,1
DA:487,1
DA:488,1
DA:491,1
DA:492,1
DA:493,1
DA:494,1
DA:496,1
DA:498,1
DA:499,1
DA:500,1
DA:503,1
DA:504,1
DA:506,1
DA:508,1
DA:509,1
DA:510,1
DA:511,1
DA:513,1
DA:515,1
DA:516,1
DA:517,1
DA:520,1
DA:521,1
DA:523,1
DA:525,1
DA:526,1
DA:527,1
DA:528,1
DA:530,1
DA:532,1
DA:533,1
DA:534,1
DA:537,1
DA:538,1
DA:540,1
DA:541,1
DA:543,1
DA:544,1
DA:545,1
DA:546,1
DA:549,1
DA:550,1
DA:552,1
DA:553,1
DA:555,1
DA:556,1
DA:557,1
DA:558,1
DA:561,1
DA:562,1
DA:564,1
DA:566,1
DA:567,1
DA:568,1
DA:569,1
DA:571,1
DA:573,1
DA:574,1
DA:575,1
DA:576,1
DA:579,1
DA:580,1
DA:582,1
DA:584,1
DA:585,1
DA:586,1
DA:587,1
DA:589,1
DA:591,1
DA:592,1
DA:593,1
DA:594,1
BRF:0
BRH:0
LF:409
LH:332
end_of_record
SF:/Users/dbmrq/Documents/Programação/Misc/paperboat/src/mcp_server/socket.rs
FN:64,_RNCNCNvNtNtCs2XshHk0aCOj_9paperboat10mcp_server6socket21send_request_and_wait00B9_
FN:14,_RNCNvNtNtCs2XshHk0aCOj_9paperboat10mcp_server6socket13send_response0B7_
FN:31,_RNCNvNtNtCs2XshHk0aCOj_9paperboat10mcp_server6socket21send_request_and_wait0B7_
FN:14,_RNvNtNtCs2XshHk0aCOj_9paperboat10mcp_server6socket13send_response
FN:28,_RNvNtNtCs2XshHk0aCOj_9paperboat10mcp_server6socket21send_request_and_wait
FNDA:0,_RNCNCNvNtNtCs2XshHk0aCOj_9paperboat10mcp_server6socket21send_request_and_wait00B9_
FNDA:0,_RNCNvNtNtCs2XshHk0aCOj_9paperboat10mcp_server6socket13send_response0B7_
FNDA:0,_RNCNvNtNtCs2XshHk0aCOj_9paperboat10mcp_server6socket21send_request_and_wait0B7_
FNDA:0,_RNvNtNtCs2XshHk0aCOj_9paperboat10mcp_server6socket13send_response
FNDA:0,_RNvNtNtCs2XshHk0aCOj_9paperboat10mcp_server6socket21send_request_and_wait
FNF:5
FNH:0
DA:14,0
DA:15,0
DA:16,0
DA:17,0
DA:18,0
DA:19,0
DA:20,0
DA:21,0
DA:28,0
DA:29,0
DA:30,0
DA:31,0
DA:33,0
DA:34,0
DA:37,0
DA:38,0
DA:39,0
DA:40,0
DA:41,0
DA:44,0
DA:45,0
DA:46,0
DA:47,0
DA:48,0
DA:49,0
DA:51,0
DA:54,0
DA:58,0
DA:59,0
DA:60,0
DA:61,0
DA:62,0
DA:64,0
DA:65,0
DA:68,0
DA:70,0
DA:72,0
DA:73,0
BRF:0
BRH:0
LF:42
LH:0
end_of_record
SF:/Users/dbmrq/Documents/Programação/Misc/paperboat/src/mcp_server/types.rs
FN:227,_RNvMs1_NtNtCs2XshHk0aCOj_9paperboat10mcp_server5typesNtB5_12ToolResponse18success_with_files
FN:400,_RNvNtNtNtCs2XshHk0aCOj_9paperboat10mcp_server5types5testss_28test_model_complexity_as_str
FN:414,_RNvNtNtNtCs2XshHk0aCOj_9paperboat10mcp_server5types5testss_29test_model_complexity_default
FN:407,_RNvNtNtNtCs2XshHk0aCOj_9paperboat10mcp_server5types5testss_29test_model_complexity_display
FN:433,_RNvNtNtNtCs2XshHk0aCOj_9paperboat10mcp_server5types5testss_34test_model_complexity_serde_format
FN:453,_RNvNtNtNtCs2XshHk0aCOj_9paperboat10mcp_server5types5testss_37test_agent_spec_with_model_complexity
FN:419,_RNvNtNtNtCs2XshHk0aCOj_9paperboat10mcp_server5types5testss_37test_model_complexity_serde_roundtrip
FN:468,_RNvNtNtNtCs2XshHk0aCOj_9paperboat10mcp_server5types5testss_40test_agent_spec_without_model_complexity
FN:483,_RNvNtNtNtCs2XshHk0aCOj_9paperboat10mcp_server5types5testss_43test_agent_spec_deserialize_with_complexity
FN:494,_RNvNtNtNtCs2XshHk0aCOj_9paperboat10mcp_server5types5testss_46test_agent_spec_deserialize_without_complexity
FN:110,_RINvMs0_NtNtCs2XshHk0aCOj_9paperboat10mcp_server5typesNtB6_9AgentSpec7resolveNCNCNvMs_NtNtBa_3app13agent_spawnerNtB1o_3App18resolve_agent_spec00EBa_
FN:110,_RINvMs0_NtNtCs2XshHk0aCOj_9paperboat10mcp_server5typesNtB6_9AgentSpec7resolveNCNvNtB6_5testss_37test_agent_spec_with_model_complexity0EBa_
FN:110,_RINvMs0_NtNtCs2XshHk0aCOj_9paperboat10mcp_server5typesNtB6_9AgentSpec7resolveNCNvNtB6_5testss_40test_agent_spec_without_model_complexity0EBa_
FN:116,_RNCINvMs0_NtNtCs2XshHk0aCOj_9paperboat10mcp_server5typesNtB8_9AgentSpec7resolveNCNCNvMs_NtNtBc_3app13agent_spawnerNtB1q_3App18resolve_agent_spec00E0Bc_
FN:127,_RNCINvMs0_NtNtCs2XshHk0aCOj_9paperboat10mcp_server5typesNtB8_9AgentSpec7resolveNCNCNvMs_NtNtBc_3app13agent_spawnerNtB1q_3App18resolve_agent_spec00Es_0Bc_
FN:116,_RNCINvMs0_NtNtCs2XshHk0aCOj_9paperboat10mcp_server5typesNtB8_9AgentSpec7resolveNCNvNtB8_5testss_37test_agent_spec_with_model_complexity0E0Bc_
FN:127,_RNCINvMs0_NtNtCs2XshHk0aCOj_9paperboat10mcp_server5typesNtB8_9AgentSpec7resolveNCNvNtB8_5testss_37test_agent_spec_with_model_complexity0Es_0Bc_
FN:116,_RNCINvMs0_NtNtCs2XshHk0aCOj_9paperboat10mcp_server5typesNtB8_9AgentSpec7resolveNCNvNtB8_5testss_40test_agent_spec_without_model_complexity0E0Bc_
FN:127,_RNCINvMs0_NtNtCs2XshHk0aCOj_9paperboat10mcp_server5typesNtB8_9AgentSpec7resolveNCNvNtB8_5testss_40test_agent_spec_without_model_complexity0Es_0Bc_
FN:28,_RNvMNtNtCs2XshHk0aCOj_9paperboat10mcp_server5typesNtB2_15ModelComplexity6as_str
FN:259,_RNvMs1_NtNtCs2XshHk0aCOj_9paperboat10mcp_server5typesNtB5_12ToolResponse15with_task_state
FN:243,_RNvMs1_NtNtCs2XshHk0aCOj_9paperboat10mcp_server5typesNtB5_12ToolResponse7failure
FN:214,_RNvMs1_NtNtCs2XshHk0aCOj_9paperboat10mcp_server5typesNtB5_12ToolResponse7success
FN:377,_RNvMs2_NtNtCs2XshHk0aCOj_9paperboat10mcp_server5typesNtB5_8ToolCall9tool_type
FN:38,_RNvXs_NtNtCs2XshHk0aCOj_9paperboat10mcp_server5typesNtB4_15ModelComplexityNtNtCskpTlHb4dJmc_4core3fmt7Display3fmt
FNDA:0,_RNvMs1_NtNtCs2XshHk0aCOj_9paperboat10mcp_server5typesNtB5_12ToolResponse18success_with_files
FNDA:1,_RNvNtNtNtCs2XshHk0aCOj_9paperboat10mcp_server5types5testss_28test_model_complexity_as_str
FNDA:1,_RNvNtNtNtCs2XshHk0aCOj_9paperboat10mcp_server5types5testss_29test_model_complexity_default
FNDA:1,_RNvNtNtNtCs2XshHk0aCOj_9paperboat10mcp_server5types5testss_29test_model_complexity_display
FNDA:1,_RNvNtNtNtCs2XshHk0aCOj_9paperboat10mcp_server5types5testss_34test_model_complexity_serde_format
FNDA:1,_RNvNtNtNtCs2XshHk0aCOj_9paperboat10mcp_server5types5testss_37test_agent_spec_with_model_complexity
FNDA:1,_RNvNtNtNtCs2XshHk0aCOj_9paperboat10mcp_server5types5testss_37test_model_complexity_serde_roundtrip
FNDA:1,_RNvNtNtNtCs2XshHk0aCOj_9paperboat10mcp_server5types5testss_40test_agent_spec_without_model_complexity
FNDA:1,_RNvNtNtNtCs2XshHk0aCOj_9paperboat10mcp_server5types5testss_43test_agent_spec_deserialize_with_complexity
FNDA:1,_RNvNtNtNtCs2XshHk0aCOj_9paperboat10mcp_server5types5testss_46test_agent_spec_deserialize_without_complexity
FNDA:1,_RINvMs0_NtNtCs2XshHk0aCOj_9paperboat10mcp_server5typesNtB6_9AgentSpec7resolveNCNCNvMs_NtNtBa_3app13agent_spawnerNtB1o_3App18resolve_agent_spec00EBa_
FNDA:1,_RINvMs0_NtNtCs2XshHk0aCOj_9paperboat10mcp_server5typesNtB6_9AgentSpec7resolveNCNvNtB6_5testss_37test_agent_spec_with_model_complexity0EBa_
FNDA:1,_RINvMs0_NtNtCs2XshHk0aCOj_9paperboat10mcp_server5typesNtB6_9AgentSpec7resolveNCNvNtB6_5testss_40test_agent_spec_without_model_complexity0EBa_
FNDA:0,_RNCINvMs0_NtNtCs2XshHk0aCOj_9paperboat10mcp_server5typesNtB8_9AgentSpec7resolveNCNCNvMs_NtNtBc_3app13agent_spawnerNtB1q_3App18resolve_agent_spec00E0Bc_
FNDA:0,_RNCINvMs0_NtNtCs2XshHk0aCOj_9paperboat10mcp_server5typesNtB8_9AgentSpec7resolveNCNCNvMs_NtNtBc_3app13agent_spawnerNtB1q_3App18resolve_agent_spec00Es_0Bc_
FNDA:0,_RNCINvMs0_NtNtCs2XshHk0aCOj_9paperboat10mcp_server5typesNtB8_9AgentSpec7resolveNCNvNtB8_5testss_37test_agent_spec_with_model_complexity0E0Bc_
FNDA:0,_RNCINvMs0_NtNtCs2XshHk0aCOj_9paperboat10mcp_server5typesNtB8_9AgentSpec7resolveNCNvNtB8_5testss_37test_agent_spec_with_model_complexity0Es_0Bc_
FNDA:0,_RNCINvMs0_NtNtCs2XshHk0aCOj_9paperboat10mcp_server5typesNtB8_9AgentSpec7resolveNCNvNtB8_5testss_40test_agent_spec_without_model_complexity0E0Bc_
FNDA:0,_RNCINvMs0_NtNtCs2XshHk0aCOj_9paperboat10mcp_server5typesNtB8_9AgentSpec7resolveNCNvNtB8_5testss_40test_agent_spec_without_model_complexity0Es_0Bc_
FNDA:6,_RNvMNtNtCs2XshHk0aCOj_9paperboat10mcp_server5typesNtB2_15ModelComplexity6as_str
FNDA:99,_RNvMs1_NtNtCs2XshHk0aCOj_9paperboat10mcp_server5typesNtB5_12ToolResponse15with_task_state
FNDA:354,_RNvMs1_NtNtCs2XshHk0aCOj_9paperboat10mcp_server5typesNtB5_12ToolResponse7failure
FNDA:693,_RNvMs1_NtNtCs2XshHk0aCOj_9paperboat10mcp_server5typesNtB5_12ToolResponse7success
FNDA:8,_RNvMs2_NtNtCs2XshHk0aCOj_9paperboat10mcp_server5typesNtB5_8ToolCall9tool_type
FNDA:3,_RNvXs_NtNtCs2XshHk0aCOj_9paperboat10mcp_server5typesNtB4_15ModelComplexityNtNtCskpTlHb4dJmc_4core3fmt7Display3fmt
FNF:19
FNH:16
DA:28,6
DA:29,6
DA:30,2
DA:31,2
DA:32,2
DA:34,6
DA:38,3
DA:39,3
DA:40,3
DA:110,3
DA:111,3
DA:112,3
DA:115,3
DA:116,1
DA:117,2
DA:118,2
DA:120,0
DA:124,3
DA:125,3
DA:126,3
DA:127,3
DA:129,3
DA:130,3
DA:131,3
DA:132,3
DA:133,3
DA:134,3
DA:135,3
DA:136,3
DA:137,3
DA:214,693
DA:215,693
DA:216,693
DA:217,693
DA:218,693
DA:219,693
DA:220,693
DA:221,693
DA:222,693
DA:223,693
DA:227,0
DA:228,0
DA:229,0
DA:230,0
DA:231,0
DA:232,0
DA:233,0
DA:234,0
DA:235,0
DA:236,0
DA:237,0
DA:238,0
DA:239,0
DA:240,0
DA:243,354
DA:244,354
DA:245,354
DA:246,354
DA:247,354
DA:248,354
DA:249,354
DA:250,354
DA:251,354
DA:252,354
DA:259,99
DA:260,99
DA:261,99
DA:262,99
DA:377,8
DA:378,8
DA:379,0
DA:380,1
DA:381,3
DA:382,1
DA:383,0
DA:384,3
DA:385,0
DA:386,0
DA:388,8
DA:400,1
DA:401,1
DA:402,1
DA:403,1
DA:404,1
DA:407,1
DA:408,1
DA:409,1
DA:410,1
DA:411,1
DA:414,1
DA:415,1
DA:416,1
DA:419,1
DA:420,1
DA:421,1
DA:422,1
DA:423,1
DA:424,1
DA:425,3
DA:426,3
DA:427,3
DA:428,3
DA:430,1
DA:433,1
DA:434,1
DA:435,1
DA:438,1
DA:439,1
DA:442,1
DA:443,1
DA:446,1
DA:453,1
DA:454,1
DA:455,1
DA:456,1
DA:457,1
DA:458,1
DA:459,1
DA:460,1
DA:461,1
DA:463,1
DA:464,1
DA:465,1
DA:468,1
DA:469,1
DA:470,1
DA:471,1
DA:472,1
DA:473,1
DA:474,1
DA:475,1
DA:476,1
DA:478,1
DA:479,1
DA:480,1
DA:483,1
DA:484,1
DA:485,1
DA:486,1
DA:487,1
DA:488,1
DA:489,1
DA:490,1
DA:491,1
DA:494,1
DA:495,1
DA:496,1
DA:497,1
DA:498,1
DA:499,1
DA:500,1
DA:501,1
BRF:0
BRH:0
LF:154
LH:132
end_of_record
SF:/Users/dbmrq/Documents/Programação/Misc/paperboat/src/metrics.rs
FN:50,_RNCNvNtCs2XshHk0aCOj_9paperboat7metrics12init_metrics0B5_
FN:58,_RNCNvNtCs2XshHk0aCOj_9paperboat7metrics12init_metricss_0B5_
FN:38,_RNvNtCs2XshHk0aCOj_9paperboat7metrics12init_metrics
FN:78,_RNvNtCs2XshHk0aCOj_9paperboat7metrics16describe_metrics
FN:168,_RNvNtCs2XshHk0aCOj_9paperboat7metrics16record_tool_call
FN:152,_RNvNtCs2XshHk0aCOj_9paperboat7metrics18record_task_status
FN:111,_RNvNtCs2XshHk0aCOj_9paperboat7metrics20record_agent_spawned
FN:130,_RNvNtCs2XshHk0aCOj_9paperboat7metrics22record_agent_completed
